Reserved 0xf7000000 bytes of guest address space
host mmap_min_addr=0x10000
guest_base  0x7f4a86635000
start    end      size     prot
00008000-00009000 00001000 r-x
00010000-00012000 00002000 rw-
f67d6000-f67f5000 0001f000 r-x
f67f5000-f67fd000 00008000 ---
f67fd000-f67ff000 00002000 rw-
f67ff000-f6800000 00001000 ---
f6800000-f7000000 00800000 rw-
start_brk   0x00000000
end_code    0x00008548
start_code  0x00008000
start_data  0x00010f0c
end_data    0x00011047
start_stack 0xf6fff210
brk         0x00011048
entry       0xf67d6d10
----------------
IN: 
0xf67d6d10:  e59fa094      ldr	sl, [pc, #148]	; 0xf67d6dac
0xf67d6d14:  e59f4094      ldr	r4, [pc, #148]	; 0xf67d6db0
0xf67d6d18:  e1a0000d      mov	r0, sp
0xf67d6d1c:  eb000ff7      bl	0xf67dad00

----------------
IN: 
0xf67dad00:  e92d4ff0      push	{r4, r5, r6, r7, r8, r9, sl, fp, lr}
0xf67dad04:  e59f172c      ldr	r1, [pc, #1836]	; 0xf67db438
0xf67dad08:  e24ddfa1      sub	sp, sp, #644	; 0x284
0xf67dad0c:  e28d9028      add	r9, sp, #40	; 0x28
0xf67dad10:  e58d0010      str	r0, [sp, #16]
0xf67dad14:  e1a03009      mov	r3, r9
0xf67dad18:  e3a02000      mov	r2, #0	; 0x0
0xf67dad1c:  e08f1001      add	r1, pc, r1
0xf67dad20:  e4c32001      strb	r2, [r3], #1
0xf67dad24:  e28d0d0a      add	r0, sp, #640	; 0x280
0xf67dad28:  e1530000      cmp	r3, r0
0xf67dad2c:  3afffffb      bcc	0xf67dad20

----------------
IN: 
0xf67dad20:  e4c32001      strb	r2, [r3], #1
0xf67dad24:  e28d0d0a      add	r0, sp, #640	; 0x280
0xf67dad28:  e1530000      cmp	r3, r0
0xf67dad2c:  3afffffb      bcc	0xf67dad20

----------------
IN: 
0xf67dad30:  e59f3704      ldr	r3, [pc, #1796]	; 0xf67db43c
0xf67dad34:  e59f2704      ldr	r2, [pc, #1796]	; 0xf67db440
0xf67dad38:  e7913003      ldr	r3, [r1, r3]
0xf67dad3c:  e08f2002      add	r2, pc, r2
0xf67dad40:  e5922000      ldr	r2, [r2]
0xf67dad44:  e24f404c      sub	r4, pc, #76	; 0x4c
0xf67dad48:  e0634004      rsb	r4, r3, r4
0xf67dad4c:  e7943002      ldr	r3, [r4, r2]
0xf67dad50:  e0842002      add	r2, r4, r2
0xf67dad54:  e3530000      cmp	r3, #0	; 0x0
0xf67dad58:  e58d4028      str	r4, [sp, #40]
0xf67dad5c:  e58d2030      str	r2, [sp, #48]
0xf67dad60:  1a000006      bne	0xf67dad80

----------------
IN: 
0xf67dad80:  e3530021      cmp	r3, #33	; 0x21
0xf67dad84:  9afffff7      bls	0xf67dad68

----------------
IN: 
0xf67dad68:  e28d1d0a      add	r1, sp, #640	; 0x280
0xf67dad6c:  e0813103      add	r3, r1, r3, lsl #2
0xf67dad70:  e5032238      str	r2, [r3, #-568]
0xf67dad74:  e5b23008      ldr	r3, [r2, #8]!
0xf67dad78:  e3530000      cmp	r3, #0	; 0x0
0xf67dad7c:  0a00000c      beq	0xf67dadb4

----------------
IN: 
0xf67dad88:  e3e01209      mvn	r1, #-1879048192	; 0x90000000
0xf67dad8c:  e0631001      rsb	r1, r3, r1
0xf67dad90:  e351000f      cmp	r1, #15	; 0xf
0xf67dad94:  8a00005c      bhi	0xf67daf0c

----------------
IN: 
0xf67daf0c:  e1a01083      lsl	r1, r3, #1
0xf67daf10:  e1a010c1      asr	r1, r1, #1
0xf67daf14:  e3710004      cmn	r1, #4	; 0x4
0xf67daf18:  9a000006      bls	0xf67daf38

----------------
IN: 
0xf67daf38:  e59f1504      ldr	r1, [pc, #1284]	; 0xf67db444
0xf67daf3c:  e0631001      rsb	r1, r3, r1
0xf67daf40:  e351000b      cmp	r1, #11	; 0xb
0xf67daf44:  8a000005      bhi	0xf67daf60

----------------
IN: 
0xf67daf60:  e59f14e0      ldr	r1, [pc, #1248]	; 0xf67db448
0xf67daf64:  e0631001      rsb	r1, r3, r1
0xf67daf68:  e351000a      cmp	r1, #10	; 0xa
0xf67daf6c:  928d1d0a      addls	r1, sp, #640	; 0x280
0xf67daf70:  90413103      subls	r3, r1, r3, lsl #2
0xf67daf74:  92433e53      subls	r3, r3, #1328	; 0x530
0xf67daf78:  92433121      subls	r3, r3, #1073741832	; 0x40000008
0xf67daf7c:  95832000      strls	r2, [r3]
0xf67daf80:  eaffff7b      b	0xf67dad74

----------------
IN: 
0xf67dad74:  e5b23008      ldr	r3, [r2, #8]!
0xf67dad78:  e3530000      cmp	r3, #0	; 0x0
0xf67dad7c:  0a00000c      beq	0xf67dadb4

----------------
IN: 
0xf67dad98:  e2633207      rsb	r3, r3, #1879048192	; 0x70000000
0xf67dad9c:  e28d0d0a      add	r0, sp, #640	; 0x280
0xf67dada0:  e0803103      add	r3, r0, r3, lsl #2
0xf67dada4:  e50321b4      str	r2, [r3, #-436]
0xf67dada8:  e5b23008      ldr	r3, [r2, #8]!
0xf67dadac:  e3530000      cmp	r3, #0	; 0x0
0xf67dadb0:  1afffff2      bne	0xf67dad80

----------------
IN: 
0xf67dadb4:  e3540000      cmp	r4, #0	; 0x0
0xf67dadb8:  0a000027      beq	0xf67dae5c

----------------
IN: 
0xf67dadbc:  e59d3058      ldr	r3, [sp, #88]
0xf67dadc0:  e3530000      cmp	r3, #0	; 0x0
0xf67dadc4:  15932004      ldrne	r2, [r3, #4]
0xf67dadc8:  10822004      addne	r2, r2, r4
0xf67dadcc:  15832004      strne	r2, [r3, #4]
0xf67dadd0:  e59d3054      ldr	r3, [sp, #84]
0xf67dadd4:  e3530000      cmp	r3, #0	; 0x0
0xf67dadd8:  15932004      ldrne	r2, [r3, #4]
0xf67daddc:  10822004      addne	r2, r2, r4
0xf67dade0:  15832004      strne	r2, [r3, #4]
0xf67dade4:  e59d305c      ldr	r3, [sp, #92]
0xf67dade8:  e3530000      cmp	r3, #0	; 0x0
0xf67dadec:  15932004      ldrne	r2, [r3, #4]
0xf67dadf0:  10822004      addne	r2, r2, r4
0xf67dadf4:  15832004      strne	r2, [r3, #4]
0xf67dadf8:  e59d3060      ldr	r3, [sp, #96]
0xf67dadfc:  e3530000      cmp	r3, #0	; 0x0
0xf67dae00:  15932004      ldrne	r2, [r3, #4]
0xf67dae04:  10822004      addne	r2, r2, r4
0xf67dae08:  15832004      strne	r2, [r3, #4]
0xf67dae0c:  e59d308c      ldr	r3, [sp, #140]
0xf67dae10:  e3530000      cmp	r3, #0	; 0x0
0xf67dae14:  15932004      ldrne	r2, [r3, #4]
0xf67dae18:  10822004      addne	r2, r2, r4
0xf67dae1c:  15832004      strne	r2, [r3, #4]
0xf67dae20:  e59d30a4      ldr	r3, [sp, #164]
0xf67dae24:  e3530000      cmp	r3, #0	; 0x0
0xf67dae28:  15932004      ldrne	r2, [r3, #4]
0xf67dae2c:  10822004      addne	r2, r2, r4
0xf67dae30:  15832004      strne	r2, [r3, #4]
0xf67dae34:  e59d310c      ldr	r3, [sp, #268]
0xf67dae38:  e3530000      cmp	r3, #0	; 0x0
0xf67dae3c:  15932004      ldrne	r2, [r3, #4]
0xf67dae40:  10822004      addne	r2, r2, r4
0xf67dae44:  15832004      strne	r2, [r3, #4]
0xf67dae48:  e59d3174      ldr	r3, [sp, #372]
0xf67dae4c:  e3530000      cmp	r3, #0	; 0x0
0xf67dae50:  15932004      ldrne	r2, [r3, #4]
0xf67dae54:  10822004      addne	r2, r2, r4
0xf67dae58:  15832004      strne	r2, [r3, #4]
0xf67dae5c:  e59d2098      ldr	r2, [sp, #152]
0xf67dae60:  e3520000      cmp	r2, #0	; 0x0
0xf67dae64:  0a000002      beq	0xf67dae74

----------------
IN: 
0xf67dae68:  e5923004      ldr	r3, [r2, #4]
0xf67dae6c:  e3530011      cmp	r3, #17	; 0x11
0xf67dae70:  1a00013e      bne	0xf67db370

----------------
IN: 
0xf67dae74:  e59d508c      ldr	r5, [sp, #140]
0xf67dae78:  e3550000      cmp	r5, #0	; 0x0
0xf67dae7c:  0a000003      beq	0xf67dae90

----------------
IN: 
0xf67dae80:  e59d3094      ldr	r3, [sp, #148]
0xf67dae84:  e5933004      ldr	r3, [r3, #4]
0xf67dae88:  e3530008      cmp	r3, #8	; 0x8
0xf67dae8c:  1a00012f      bne	0xf67db350

----------------
IN: 
0xf67dae90:  e59d30e0      ldr	r3, [sp, #224]
0xf67dae94:  e3530000      cmp	r3, #0	; 0x0
0xf67dae98:  0a000002      beq	0xf67daea8

----------------
IN: 
0xf67daea8:  e59d30c0      ldr	r3, [sp, #192]
0xf67daeac:  e3530000      cmp	r3, #0	; 0x0
0xf67daeb0:  0a000002      beq	0xf67daec0

----------------
IN: 
0xf67daec0:  e59d30bc      ldr	r3, [sp, #188]
0xf67daec4:  e3530000      cmp	r3, #0	; 0x0
0xf67daec8:  1a000138      bne	0xf67db3b0

----------------
IN: 
0xf67daecc:  e59d3084      ldr	r3, [sp, #132]
0xf67daed0:  e3530000      cmp	r3, #0	; 0x0
0xf67daed4:  1a00012d      bne	0xf67db390

----------------
IN: 
0xf67daed8:  e3540000      cmp	r4, #0	; 0x0
0xf67daedc:  1a000028      bne	0xf67daf84

----------------
IN: 
0xf67daf84:  e3550000      cmp	r5, #0	; 0x0
0xf67daf88:  0a0000ba      beq	0xf67db278

----------------
IN: 
0xf67daf8c:  e59d0090      ldr	r0, [sp, #144]
0xf67daf90:  e59d30e4      ldr	r3, [sp, #228]
0xf67daf94:  e5951004      ldr	r1, [r5, #4]
0xf67daf98:  e5900004      ldr	r0, [r0, #4]
0xf67daf9c:  e3530000      cmp	r3, #0	; 0x0
0xf67dafa0:  00808001      addeq	r8, r0, r1
0xf67dafa4:  01a05001      moveq	r5, r1
0xf67dafa8:  01a03001      moveq	r3, r1
0xf67dafac:  0a000006      beq	0xf67dafcc

----------------
IN: 
0xf67dafb0:  e5933004      ldr	r3, [r3, #4]
0xf67dafb4:  e1a0c1a0      lsr	ip, r0, #3
0xf67dafb8:  e15c0003      cmp	ip, r3
0xf67dafbc:  31a0300c      movcc	r3, ip
0xf67dafc0:  e0815183      add	r5, r1, r3, lsl #3
0xf67dafc4:  e1a03001      mov	r3, r1
0xf67dafc8:  e0808001      add	r8, r0, r1
0xf67dafcc:  e3520000      cmp	r2, #0	; 0x0
0xf67dafd0:  0a000008      beq	0xf67daff8

----------------
IN: 
0xf67dafd4:  e59d2050      ldr	r2, [sp, #80]
0xf67dafd8:  e59dc0a4      ldr	ip, [sp, #164]
0xf67dafdc:  e5922004      ldr	r2, [r2, #4]
0xf67dafe0:  e59cc004      ldr	ip, [ip, #4]
0xf67dafe4:  e082c00c      add	ip, r2, ip
0xf67dafe8:  e15c0008      cmp	ip, r8
0xf67dafec:  00620000      rsbeq	r0, r2, r0
0xf67daff0:  e0812002      add	r2, r1, r2
0xf67daff4:  e0828000      add	r8, r2, r0
0xf67daff8:  e59d2060      ldr	r2, [sp, #96]
0xf67daffc:  e1530005      cmp	r3, r5

----------------
IN: 
0xf67db000:  e592a004      ldr	sl, [r2, #4]
0xf67db004:  2a000005      bcs	0xf67db020

----------------
IN: 
0xf67db008:  e4932008      ldr	r2, [r3], #8
0xf67db00c:  e7941002      ldr	r1, [r4, r2]
0xf67db010:  e1530005      cmp	r3, r5
0xf67db014:  e0811004      add	r1, r1, r4
0xf67db018:  e7841002      str	r1, [r4, r2]
0xf67db01c:  3afffff9      bcc	0xf67db008

----------------
IN: 
0xf67db020:  e59d310c      ldr	r3, [sp, #268]
0xf67db024:  e3530000      cmp	r3, #0	; 0x0
0xf67db028:  0a0000e8      beq	0xf67db3d0

----------------
IN: 
0xf67db02c:  e1580005      cmp	r8, r5
0xf67db030:  9affffad      bls	0xf67daeec

----------------
IN: 
0xf67db034:  e59f2410      ldr	r2, [pc, #1040]	; 0xf67db44c
0xf67db038:  e59f3410      ldr	r3, [pc, #1040]	; 0xf67db450
0xf67db03c:  e08f2002      add	r2, pc, r2
0xf67db040:  e58d2020      str	r2, [sp, #32]
0xf67db044:  e59f0408      ldr	r0, [pc, #1032]	; 0xf67db454
0xf67db048:  e59f1408      ldr	r1, [pc, #1032]	; 0xf67db458
0xf67db04c:  e59f2408      ldr	r2, [pc, #1032]	; 0xf67db45c
0xf67db050:  e08f3003      add	r3, pc, r3
0xf67db054:  e08f0000      add	r0, pc, r0
0xf67db058:  e08f1001      add	r1, pc, r1
0xf67db05c:  e08f2002      add	r2, pc, r2
0xf67db060:  e58d3014      str	r3, [sp, #20]
0xf67db064:  e58d0018      str	r0, [sp, #24]
0xf67db068:  e58d101c      str	r1, [sp, #28]
0xf67db06c:  e58d2024      str	r2, [sp, #36]
0xf67db070:  e2855008      add	r5, r5, #8	; 0x8
0xf67db074:  e5153004      ldr	r3, [r5, #-4]
0xf67db078:  e59d2028      ldr	r2, [sp, #40]
0xf67db07c:  e1a0b423      lsr	fp, r3, #8
0xf67db080:  e08ab20b      add	fp, sl, fp, lsl #4
0xf67db084:  e5db100c      ldrb	r1, [fp, #12]
0xf67db088:  e59b7004      ldr	r7, [fp, #4]
0xf67db08c:  e201100f      and	r1, r1, #15	; 0xf
0xf67db090:  e5156008      ldr	r6, [r5, #-8]
0xf67db094:  e351000a      cmp	r1, #10	; 0xa
0xf67db098:  e0877002      add	r7, r7, r2
0xf67db09c:  e20310ff      and	r1, r3, #255	; 0xff
0xf67db0a0:  e0842006      add	r2, r4, r6
0xf67db0a4:  0a0000d1      beq	0xf67db3f0

----------------
IN: 
0xf67db0a8:  e2413001      sub	r3, r1, #1	; 0x1
0xf67db0ac:  e3530015      cmp	r3, #21	; 0x15
0xf67db0b0:  908ff103      addls	pc, pc, r3, lsl #2

----------------
IN: 
0xf67db108:  ea00004b      b	0xf67db23c

----------------
IN: 
0xf67db23c:  e59b3004      ldr	r3, [fp, #4]
0xf67db240:  e3530000      cmp	r3, #0	; 0x0
0xf67db244:  03a07000      moveq	r7, #0	; 0x0
0xf67db248:  e7847006      str	r7, [r4, r6]
0xf67db24c:  eaffffb8      b	0xf67db134

----------------
IN: 
0xf67db134:  e1580005      cmp	r8, r5
0xf67db138:  e2855008      add	r5, r5, #8	; 0x8
0xf67db13c:  8affffcc      bhi	0xf67db074

----------------
IN: 
0xf67db074:  e5153004      ldr	r3, [r5, #-4]
0xf67db078:  e59d2028      ldr	r2, [sp, #40]
0xf67db07c:  e1a0b423      lsr	fp, r3, #8
0xf67db080:  e08ab20b      add	fp, sl, fp, lsl #4
0xf67db084:  e5db100c      ldrb	r1, [fp, #12]
0xf67db088:  e59b7004      ldr	r7, [fp, #4]
0xf67db08c:  e201100f      and	r1, r1, #15	; 0xf
0xf67db090:  e5156008      ldr	r6, [r5, #-8]
0xf67db094:  e351000a      cmp	r1, #10	; 0xa
0xf67db098:  e0877002      add	r7, r7, r2
0xf67db09c:  e20310ff      and	r1, r3, #255	; 0xff
0xf67db0a0:  e0842006      add	r2, r4, r6
0xf67db0a4:  0a0000d1      beq	0xf67db3f0

----------------
IN: 
0xf67db10c:  ea00004a      b	0xf67db23c

----------------
IN: 
0xf67db140:  eaffff69      b	0xf67daeec

----------------
IN: 
0xf67daeec:  e5dd31bc      ldrb	r3, [sp, #444]
0xf67daef0:  e59d0010      ldr	r0, [sp, #16]
0xf67daef4:  e3833004      orr	r3, r3, #4	; 0x4
0xf67daef8:  e1a01009      mov	r1, r9
0xf67daefc:  e5cd31bc      strb	r3, [sp, #444]
0xf67daf00:  ebffff2e      bl	0xf67dabc0

----------------
IN: 
0xf67dabc0:  e92d48f0      push	{r4, r5, r6, r7, fp, lr}
0xf67dabc4:  e1a06001      mov	r6, r1
0xf67dabc8:  e1a07000      mov	r7, r0
0xf67dabcc:  e59f40cc      ldr	r4, [pc, #204]	; 0xf67daca0
0xf67dabd0:  e28db014      add	fp, sp, #20	; 0x14
0xf67dabd4:  e24dd008      sub	sp, sp, #8	; 0x8
0xf67dabd8:  e08f4004      add	r4, pc, r4
0xf67dabdc:  e591c000      ldr	ip, [r1]
0xf67dabe0:  e5913008      ldr	r3, [r1, #8]
0xf67dabe4:  e2840e53      add	r0, r4, #1328	; 0x530
0xf67dabe8:  e2811020      add	r1, r1, #32	; 0x20
0xf67dabec:  e3a02e13      mov	r2, #304	; 0x130
0xf67dabf0:  e2800008      add	r0, r0, #8	; 0x8
0xf67dabf4:  e584c518      str	ip, [r4, #1304]
0xf67dabf8:  e5843520      str	r3, [r4, #1312]
0xf67dabfc:  e2845e51      add	r5, r4, #1296	; 0x510
0xf67dac00:  eb0054fe      bl	0xf67f0000

----------------
IN: 
0xf67f0000:  e92d4011      push	{r0, r4, lr}
0xf67f0004:  e2522004      subs	r2, r2, #4	; 0x4
0xf67f0008:  ba000021      blt	0xf67f0094

----------------
IN: 
0xf67f000c:  e210c003      ands	ip, r0, #3	; 0x3
0xf67f0010:  1a000027      bne	0xf67f00b4

----------------
IN: 
0xf67f0014:  e211c003      ands	ip, r1, #3	; 0x3
0xf67f0018:  1a000031      bne	0xf67f00e4

----------------
IN: 
0xf67f001c:  e252201c      subs	r2, r2, #28	; 0x1c
0xf67f0020:  e92d01e0      push	{r5, r6, r7, r8}
0xf67f0024:  ba000003      blt	0xf67f0038

----------------
IN: 
0xf67f0028:  e8b151f8      ldm	r1!, {r3, r4, r5, r6, r7, r8, ip, lr}
0xf67f002c:  e2522020      subs	r2, r2, #32	; 0x20
0xf67f0030:  e8a051f8      stmia	r0!, {r3, r4, r5, r6, r7, r8, ip, lr}
0xf67f0034:  aafffffb      bge	0xf67f0028

----------------
IN: 
0xf67f0038:  e212c01c      ands	ip, r2, #28	; 0x1c
0xf67f003c:  e26cc020      rsb	ip, ip, #32	; 0x20
0xf67f0040:  108ff00c      addne	pc, pc, ip

----------------
IN: 
0xf67f0058:  e4916004      ldr	r6, [r1], #4
0xf67f005c:  e4917004      ldr	r7, [r1], #4
0xf67f0060:  e4918004      ldr	r8, [r1], #4
0xf67f0064:  e491e004      ldr	lr, [r1], #4
0xf67f0068:  e08ff00c      add	pc, pc, ip

----------------
IN: 
0xf67f0080:  e4806004      str	r6, [r0], #4
0xf67f0084:  e4807004      str	r7, [r0], #4
0xf67f0088:  e4808004      str	r8, [r0], #4
0xf67f008c:  e480e004      str	lr, [r0], #4
0xf67f0090:  e8bd01e0      pop	{r5, r6, r7, r8}
0xf67f0094:  e1b02f82      lsls	r2, r2, #31
0xf67f0098:  14d13001      ldrbne	r3, [r1], #1
0xf67f009c:  24d14001      ldrbcs	r4, [r1], #1
0xf67f00a0:  25d1c000      ldrbcs	ip, [r1]
0xf67f00a4:  14c03001      strbne	r3, [r0], #1
0xf67f00a8:  24c04001      strbcs	r4, [r0], #1
0xf67f00ac:  25c0c000      strbcs	ip, [r0]
0xf67f00b0:  e8bd8011      pop	{r0, r4, pc}

----------------
IN: 
0xf67dac04:  e5d426ac      ldrb	r2, [r4, #1708]
0xf67dac08:  e2843e72      add	r3, r4, #1824	; 0x720
0xf67dac0c:  e2833008      add	r3, r3, #8	; 0x8
0xf67dac10:  e2855008      add	r5, r5, #8	; 0x8
0xf67dac14:  e2866e21      add	r6, r6, #528	; 0x210
0xf67dac18:  e8960003      ldm	r6, {r0, r1}
0xf67dac1c:  e3822004      orr	r2, r2, #4	; 0x4
0xf67dac20:  e8830003      stm	r3, {r0, r1}
0xf67dac24:  e1a00005      mov	r0, r5
0xf67dac28:  e5c426ac      strb	r2, [r4, #1708]
0xf67dac2c:  eb001a13      bl	0xf67e1480

----------------
IN: 
0xf67e1480:  e590314c      ldr	r3, [r0, #332]
0xf67e1484:  e3530000      cmp	r3, #0	; 0x0
0xf67e1488:  0a000013      beq	0xf67e14dc

----------------
IN: 
0xf67e148c:  e92d4010      push	{r4, lr}
0xf67e1490:  e5933004      ldr	r3, [r3, #4]
0xf67e1494:  e593c000      ldr	ip, [r3]
0xf67e1498:  e580c178      str	ip, [r0, #376]
0xf67e149c:  e5932008      ldr	r2, [r3, #8]
0xf67e14a0:  e5934004      ldr	r4, [r3, #4]
0xf67e14a4:  e242e001      sub	lr, r2, #1	; 0x1
0xf67e14a8:  e11e0002      tst	lr, r2
0xf67e14ac:  1a000014      bne	0xf67e1504

----------------
IN: 
0xf67e14b0:  e2831010      add	r1, r3, #16	; 0x10
0xf67e14b4:  e0812102      add	r2, r1, r2, lsl #2
0xf67e14b8:  e580e17c      str	lr, [r0, #380]
0xf67e14bc:  e593300c      ldr	r3, [r3, #12]
0xf67e14c0:  e082c10c      add	ip, r2, ip, lsl #2
0xf67e14c4:  e04cc104      sub	ip, ip, r4, lsl #2
0xf67e14c8:  e580c18c      str	ip, [r0, #396]
0xf67e14cc:  e5803180      str	r3, [r0, #384]
0xf67e14d0:  e5802188      str	r2, [r0, #392]
0xf67e14d4:  e5801184      str	r1, [r0, #388]
0xf67e14d8:  e8bd8010      pop	{r4, pc}

----------------
IN: 
0xf67dac30:  e59fe06c      ldr	lr, [pc, #108]	; 0xf67daca4
0xf67dac34:  e59fc06c      ldr	ip, [pc, #108]	; 0xf67daca8
0xf67dac38:  e59f206c      ldr	r2, [pc, #108]	; 0xf67dacac
0xf67dac3c:  e59f306c      ldr	r3, [pc, #108]	; 0xf67dacb0
0xf67dac40:  e59f106c      ldr	r1, [pc, #108]	; 0xf67dacb4
0xf67dac44:  e08f3003      add	r3, pc, r3
0xf67dac48:  e08fe00e      add	lr, pc, lr
0xf67dac4c:  e08fc00c      add	ip, pc, ip
0xf67dac50:  e08f2002      add	r2, pc, r2
0xf67dac54:  e1a00007      mov	r0, r7
0xf67dac58:  e08f1001      add	r1, pc, r1
0xf67dac5c:  e583b000      str	fp, [r3]
0xf67dac60:  e584552c      str	r5, [r4, #1324]
0xf67dac64:  e584e6c4      str	lr, [r4, #1732]
0xf67dac68:  e584c6c8      str	ip, [r4, #1736]
0xf67dac6c:  e58426cc      str	r2, [r4, #1740]
0xf67dac70:  eb00471e      bl	0xf67ec8f0

----------------
IN: 
0xf67ec8f0:  e1a02000      mov	r2, r0
0xf67ec8f4:  e492c004      ldr	ip, [r2], #4
0xf67ec8f8:  e92d4ff0      push	{r4, r5, r6, r7, r8, r9, sl, fp, lr}
0xf67ec8fc:  e59f62e4      ldr	r6, [pc, #740]	; 0xf67ecbe8
0xf67ec900:  e59f52e4      ldr	r5, [pc, #740]	; 0xf67ecbec
0xf67ec904:  e59f42e4      ldr	r4, [pc, #740]	; 0xf67ecbf0
0xf67ec908:  e28ce001      add	lr, ip, #1	; 0x1
0xf67ec90c:  e082310e      add	r3, r2, lr, lsl #2
0xf67ec910:  e08f6006      add	r6, pc, r6
0xf67ec914:  e08f5005      add	r5, pc, r5
0xf67ec918:  e08f4004      add	r4, pc, r4
0xf67ec91c:  e5852000      str	r2, [r5]
0xf67ec920:  e5860000      str	r0, [r6]
0xf67ec924:  e5843000      str	r3, [r4]
0xf67ec928:  e792010e      ldr	r0, [r2, lr, lsl #2]
0xf67ec92c:  e59f22c0      ldr	r2, [pc, #704]	; 0xf67ecbf4
0xf67ec930:  e24dd01c      sub	sp, sp, #28	; 0x1c
0xf67ec934:  e08f2002      add	r2, pc, r2
0xf67ec938:  e3500000      cmp	r0, #0	; 0x0
0xf67ec93c:  e58d100c      str	r1, [sp, #12]
0xf67ec940:  e582c000      str	ip, [r2]
0xf67ec944:  0a000002      beq	0xf67ec954

----------------
IN: 
0xf67ec948:  e5b32004      ldr	r2, [r3, #4]!
0xf67ec94c:  e3520000      cmp	r2, #0	; 0x0
0xf67ec950:  1afffffc      bne	0xf67ec948

----------------
IN: 
0xf67ec954:  e3a0c000      mov	ip, #0	; 0x0
0xf67ec958:  e5932004      ldr	r2, [r3, #4]
0xf67ec95c:  e59f1294      ldr	r1, [pc, #660]	; 0xf67ecbf8
0xf67ec960:  e59fb294      ldr	fp, [pc, #660]	; 0xf67ecbfc
0xf67ec964:  e08f1001      add	r1, pc, r1
0xf67ec968:  e08fb00b      add	fp, pc, fp
0xf67ec96c:  e2830004      add	r0, r3, #4	; 0x4
0xf67ec970:  e152000c      cmp	r2, ip
0xf67ec974:  e581c008      str	ip, [r1, #8]
0xf67ec978:  e5810050      str	r0, [r1, #80]
0xf67ec97c:  e58db014      str	fp, [sp, #20]
0xf67ec980:  0a00008b      beq	0xf67ecbb4

----------------
IN: 
0xf67ec984:  e1a0400c      mov	r4, ip
0xf67ec988:  e1a0500c      mov	r5, ip
0xf67ec98c:  e59fe26c      ldr	lr, [pc, #620]	; 0xf67ecc00
0xf67ec990:  e59f026c      ldr	r0, [pc, #620]	; 0xf67ecc04
0xf67ec994:  e08fe00e      add	lr, pc, lr
0xf67ec998:  e08f0000      add	r0, pc, r0
0xf67ec99c:  e59ee000      ldr	lr, [lr]
0xf67ec9a0:  e5900004      ldr	r0, [r0, #4]
0xf67ec9a4:  e58de004      str	lr, [sp, #4]
0xf67ec9a8:  e58d0008      str	r0, [sp, #8]
0xf67ec9ac:  e591a010      ldr	sl, [r1, #16]
0xf67ec9b0:  e5919040      ldr	r9, [r1, #64]
0xf67ec9b4:  e5918044      ldr	r8, [r1, #68]
0xf67ec9b8:  e5917140      ldr	r7, [r1, #320]
0xf67ec9bc:  e5916144      ldr	r6, [r1, #324]
0xf67ec9c0:  e591e020      ldr	lr, [r1, #32]
0xf67ec9c4:  e5910038      ldr	r0, [r1, #56]
0xf67ec9c8:  e5911134      ldr	r1, [r1, #308]
0xf67ec9cc:  e2422003      sub	r2, r2, #3	; 0x3
0xf67ec9d0:  e352001e      cmp	r2, #30	; 0x1e
0xf67ec9d4:  908ff102      addls	pc, pc, r2, lsl #2

----------------
IN: 
0xf67eca38:  ea000040      b	0xf67ecb40

----------------
IN: 
0xf67ecb40:  e5937008      ldr	r7, [r3, #8]
0xf67ecb44:  e3a06000      mov	r6, #0	; 0x0
0xf67ecb48:  eaffffc3      b	0xf67eca5c

----------------
IN: 
0xf67eca5c:  e2833008      add	r3, r3, #8	; 0x8
0xf67eca60:  e5932004      ldr	r2, [r3, #4]
0xf67eca64:  e3520000      cmp	r2, #0	; 0x0
0xf67eca68:  1affffd7      bne	0xf67ec9cc

----------------
IN: 
0xf67ec9cc:  e2422003      sub	r2, r2, #3	; 0x3
0xf67ec9d0:  e352001e      cmp	r2, #30	; 0x1e
0xf67ec9d4:  908ff102      addls	pc, pc, r2, lsl #2

----------------
IN: 
0xf67eca34:  ea000049      b	0xf67ecb60

----------------
IN: 
0xf67ecb60:  e5932008      ldr	r2, [r3, #8]
0xf67ecb64:  e58d2008      str	r2, [sp, #8]
0xf67ecb68:  eaffffbb      b	0xf67eca5c

----------------
IN: 
0xf67eca14:  ea000054      b	0xf67ecb6c

----------------
IN: 
0xf67ecb6c:  e593e008      ldr	lr, [r3, #8]
0xf67ecb70:  eaffffb9      b	0xf67eca5c

----------------
IN: 
0xf67eca10:  ea000057      b	0xf67ecb74

----------------
IN: 
0xf67ecb74:  e5939008      ldr	r9, [r3, #8]
0xf67ecb78:  e3a08000      mov	r8, #0	; 0x0
0xf67ecb7c:  eaffffb6      b	0xf67eca5c

----------------
IN: 
0xf67eca08:  ea000013      b	0xf67eca5c

----------------
IN: 
0xf67eca04:  ea000014      b	0xf67eca5c

----------------
IN: 
0xf67eca00:  ea000015      b	0xf67eca5c

----------------
IN: 
0xf67ec9fc:  ea000016      b	0xf67eca5c

----------------
IN: 
0xf67ec9f4:  ea000063      b	0xf67ecb88

----------------
IN: 
0xf67ecb88:  e593b008      ldr	fp, [r3, #8]
0xf67ecb8c:  eaffffb2      b	0xf67eca5c

----------------
IN: 
0xf67ec9f0:  ea000019      b	0xf67eca5c

----------------
IN: 
0xf67ec9ec:  ea00001a      b	0xf67eca5c

----------------
IN: 
0xf67ec9e8:  ea000068      b	0xf67ecb90

----------------
IN: 
0xf67ecb90:  e593a008      ldr	sl, [r3, #8]
0xf67ecb94:  eaffffb0      b	0xf67eca5c

----------------
IN: 
0xf67ec9e4:  ea00006d      b	0xf67ecba0

----------------
IN: 
0xf67ecba0:  e5934008      ldr	r4, [r3, #8]
0xf67ecba4:  eaffffac      b	0xf67eca5c

----------------
IN: 
0xf67ec9e0:  ea00001d      b	0xf67eca5c

----------------
IN: 
0xf67ec9dc:  ea00006d      b	0xf67ecb98

----------------
IN: 
0xf67ecb98:  e5935008      ldr	r5, [r3, #8]
0xf67ecb9c:  eaffffae      b	0xf67eca5c

----------------
IN: 
0xf67eca6c:  e59f3194      ldr	r3, [pc, #404]	; 0xf67ecc08
0xf67eca70:  e59f2194      ldr	r2, [pc, #404]	; 0xf67ecc0c
0xf67eca74:  e08f3003      add	r3, pc, r3
0xf67eca78:  e583a010      str	sl, [r3, #16]
0xf67eca7c:  e59fa18c      ldr	sl, [pc, #396]	; 0xf67ecc10
0xf67eca80:  e583c008      str	ip, [r3, #8]
0xf67eca84:  e5839040      str	r9, [r3, #64]
0xf67eca88:  e5838044      str	r8, [r3, #68]
0xf67eca8c:  e5837140      str	r7, [r3, #320]
0xf67eca90:  e5836144      str	r6, [r3, #324]
0xf67eca94:  e583e020      str	lr, [r3, #32]
0xf67eca98:  e5830038      str	r0, [r3, #56]
0xf67eca9c:  e5831134      str	r1, [r3, #308]
0xf67ecaa0:  e59dc008      ldr	ip, [sp, #8]
0xf67ecaa4:  e59d3004      ldr	r3, [sp, #4]
0xf67ecaa8:  e08f2002      add	r2, pc, r2
0xf67ecaac:  e08fa00a      add	sl, pc, sl
0xf67ecab0:  e58db014      str	fp, [sp, #20]
0xf67ecab4:  e5823000      str	r3, [r2]
0xf67ecab8:  e58ac004      str	ip, [sl, #4]
0xf67ecabc:  e59f6150      ldr	r6, [pc, #336]	; 0xf67ecc14
0xf67ecac0:  e3a00000      mov	r0, #0	; 0x0
0xf67ecac4:  e08f6006      add	r6, pc, r6
0xf67ecac8:  eb000374      bl	0xf67ed8a0

----------------
IN: 
0xf67ed8a0:  e52d7004      push	{r7}		; (str r7, [sp, #-4]!)
0xf67ed8a4:  e1a03000      mov	r3, r0
0xf67ed8a8:  e3a0702d      mov	r7, #45	; 0x2d
0xf67ed8ac:  ef000000      svc	0x00000000

----------------
IN: 
0xf67ed8b0:  e3700a01      cmn	r0, #4096	; 0x1000
0xf67ed8b4:  8a00000d      bhi	0xf67ed8f0

----------------
IN: 
0xf67ed8b8:  e59f2058      ldr	r2, [pc, #88]	; 0xf67ed918
0xf67ed8bc:  e1530000      cmp	r3, r0
0xf67ed8c0:  e08f2002      add	r2, pc, r2
0xf67ed8c4:  e5820000      str	r0, [r2]
0xf67ed8c8:  93a00000      movls	r0, #0	; 0x0
0xf67ed8cc:  8a000001      bhi	0xf67ed8d8

----------------
IN: 
0xf67ed8d0:  e49d7004      pop	{r7}		; (ldr r7, [sp], #4)
0xf67ed8d4:  e12fff1e      bx	lr

----------------
IN: 
0xf67ecacc:  e5960008      ldr	r0, [r6, #8]
0xf67ecad0:  e3500000      cmp	r0, #0	; 0x0
0xf67ecad4:  0a000003      beq	0xf67ecae8

----------------
IN: 
0xf67ecae8:  e3a00000      mov	r0, #0	; 0x0
0xf67ecaec:  eb00038d      bl	0xf67ed928

----------------
IN: 
0xf67ed928:  e92d4038      push	{r3, r4, r5, lr}
0xf67ed92c:  e59f3084      ldr	r3, [pc, #132]	; 0xf67ed9b8
0xf67ed930:  e1a05000      mov	r5, r0
0xf67ed934:  e08f3003      add	r3, pc, r3
0xf67ed938:  e5934000      ldr	r4, [r3]
0xf67ed93c:  e3540000      cmp	r4, #0	; 0x0
0xf67ed940:  0a00000e      beq	0xf67ed980

----------------
IN: 
0xf67ed944:  e59f3070      ldr	r3, [pc, #112]	; 0xf67ed9bc
0xf67ed948:  e08f3003      add	r3, pc, r3
0xf67ed94c:  e5933000      ldr	r3, [r3]
0xf67ed950:  e3530000      cmp	r3, #0	; 0x0
0xf67ed954:  1a000009      bne	0xf67ed980

----------------
IN: 
0xf67ed958:  e3550000      cmp	r5, #0	; 0x0
0xf67ed95c:  0a000005      beq	0xf67ed978

----------------
IN: 
0xf67ed978:  e1a00004      mov	r0, r4
0xf67ed97c:  e8bd8038      pop	{r3, r4, r5, pc}

----------------
IN: 
0xf67ecaf0:  e59f3120      ldr	r3, [pc, #288]	; 0xf67ecc18
0xf67ecaf4:  e08f3003      add	r3, pc, r3
0xf67ecaf8:  e1500003      cmp	r0, r3
0xf67ecafc:  0a00002f      beq	0xf67ecbc0

----------------
IN: 
0xf67ecb00:  e59f3114      ldr	r3, [pc, #276]	; 0xf67ecc1c
0xf67ecb04:  e08f3003      add	r3, pc, r3
0xf67ecb08:  e5933000      ldr	r3, [r3]
0xf67ecb0c:  e3530000      cmp	r3, #0	; 0x0
0xf67ecb10:  1a000032      bne	0xf67ecbe0

----------------
IN: 
0xf67ecb14:  e59f3104      ldr	r3, [pc, #260]	; 0xf67ecc20
0xf67ecb18:  e1a00005      mov	r0, r5
0xf67ecb1c:  e08f3003      add	r3, pc, r3
0xf67ecb20:  e1a01004      mov	r1, r4
0xf67ecb24:  e5933050      ldr	r3, [r3, #80]
0xf67ecb28:  e28d2014      add	r2, sp, #20	; 0x14
0xf67ecb2c:  e59dc00c      ldr	ip, [sp, #12]
0xf67ecb30:  e12fff3c      blx	ip

----------------
IN: 
0xf67d72bc:  e92d4ff0      push	{r4, r5, r6, r7, r8, r9, sl, fp, lr}
0xf67d72c0:  e3a0a000      mov	sl, #0	; 0x0
0xf67d72c4:  e59fcdc0      ldr	ip, [pc, #3520]	; 0xf67d808c
0xf67d72c8:  e28db020      add	fp, sp, #32	; 0x20
0xf67d72cc:  e24dd084      sub	sp, sp, #132	; 0x84
0xf67d72d0:  e08fc00c      add	ip, pc, ip
0xf67d72d4:  e59cc000      ldr	ip, [ip]
0xf67d72d8:  e24b4024      sub	r4, fp, #36	; 0x24
0xf67d72dc:  e15c000a      cmp	ip, sl
0xf67d72e0:  13a0c009      movne	ip, #9	; 0x9
0xf67d72e4:  01a0c00a      moveq	ip, sl
0xf67d72e8:  e59f9da0      ldr	r9, [pc, #3488]	; 0xf67d8090
0xf67d72ec:  e59feda0      ldr	lr, [pc, #3488]	; 0xf67d8094
0xf67d72f0:  e50b4068      str	r4, [fp, #-104]
0xf67d72f4:  e59f7d9c      ldr	r7, [pc, #3484]	; 0xf67d8098
0xf67d72f8:  e59f4d9c      ldr	r4, [pc, #3484]	; 0xf67d809c
0xf67d72fc:  e08fe00e      add	lr, pc, lr
0xf67d7300:  e08f9009      add	r9, pc, r9
0xf67d7304:  e08f7007      add	r7, pc, r7
0xf67d7308:  e59e8000      ldr	r8, [lr]
0xf67d730c:  e08f4004      add	r4, pc, r4
0xf67d7310:  e2899ff6      add	r9, r9, #984	; 0x3d8
0xf67d7314:  e50b0054      str	r0, [fp, #-84]
0xf67d7318:  e51b0068      ldr	r0, [fp, #-104]
0xf67d731c:  e089900c      add	r9, r9, ip
0xf67d7320:  e59f6d78      ldr	r6, [pc, #3448]	; 0xf67d80a0
0xf67d7324:  e59fcd78      ldr	ip, [pc, #3448]	; 0xf67d80a4
0xf67d7328:  e58747f0      str	r4, [r7, #2032]
0xf67d732c:  e59f4d74      ldr	r4, [pc, #3444]	; 0xf67d80a8
0xf67d7330:  e5208018      str	r8, [r0, #-24]!
0xf67d7334:  e50b3064      str	r3, [fp, #-100]
0xf67d7338:  e59f8d6c      ldr	r8, [pc, #3436]	; 0xf67d80ac
0xf67d733c:  e59f3d6c      ldr	r3, [pc, #3436]	; 0xf67d80b0
0xf67d7340:  e08f6006      add	r6, pc, r6
0xf67d7344:  e08fc00c      add	ip, pc, ip
0xf67d7348:  e08f4004      add	r4, pc, r4
0xf67d734c:  e50b406c      str	r4, [fp, #-108]
0xf67d7350:  e08f8008      add	r8, pc, r8
0xf67d7354:  e59f5d58      ldr	r5, [pc, #3416]	; 0xf67d80b4
0xf67d7358:  e59fed58      ldr	lr, [pc, #3416]	; 0xf67d80b8
0xf67d735c:  e08f3003      add	r3, pc, r3
0xf67d7360:  e5876514      str	r6, [r7, #1300]
0xf67d7364:  e587c7f8      str	ip, [r7, #2040]
0xf67d7368:  e59f6d4c      ldr	r6, [pc, #3404]	; 0xf67d80bc
0xf67d736c:  e59fcd4c      ldr	ip, [pc, #3404]	; 0xf67d80c0
0xf67d7370:  e59f4d4c      ldr	r4, [pc, #3404]	; 0xf67d80c4
0xf67d7374:  e5839124      str	r9, [r3, #292]
0xf67d7378:  e50b8074      str	r8, [fp, #-116]
0xf67d737c:  e59f9d44      ldr	r9, [pc, #3396]	; 0xf67d80c8
0xf67d7380:  e59f8d44      ldr	r8, [pc, #3396]	; 0xf67d80cc
0xf67d7384:  e08f5005      add	r5, pc, r5
0xf67d7388:  e08fe00e      add	lr, pc, lr
0xf67d738c:  e08f6006      add	r6, pc, r6
0xf67d7390:  e08fc00c      add	ip, pc, ip
0xf67d7394:  e08f4004      add	r4, pc, r4
0xf67d7398:  e50b105c      str	r1, [fp, #-92]
0xf67d739c:  e50b2060      str	r2, [fp, #-96]
0xf67d73a0:  e50b0068      str	r0, [fp, #-104]
0xf67d73a4:  e50ba050      str	sl, [fp, #-80]
0xf67d73a8:  e5875824      str	r5, [r7, #2084]
0xf67d73ac:  e587e7f4      str	lr, [r7, #2036]
0xf67d73b0:  e50b6070      str	r6, [fp, #-112]
0xf67d73b4:  e08f9009      add	r9, pc, r9
0xf67d73b8:  e08f8008      add	r8, pc, r8
0xf67d73bc:  e50bc078      str	ip, [fp, #-120]
0xf67d73c0:  e50b407c      str	r4, [fp, #-124]
0xf67d73c4:  e51b0068      ldr	r0, [fp, #-104]
0xf67d73c8:  eb005723      bl	0xf67ed05c

----------------
IN: 
0xf67ed05c:  e5902000      ldr	r2, [r0]
0xf67ed060:  e5923000      ldr	r3, [r2]
0xf67ed064:  e3530000      cmp	r3, #0	; 0x0
0xf67ed068:  0a000005      beq	0xf67ed084

----------------
IN: 
0xf67ed06c:  e5d31000      ldrb	r1, [r3]
0xf67ed070:  e351004c      cmp	r1, #76	; 0x4c
0xf67ed074:  0a000004      beq	0xf67ed08c

----------------
IN: 
0xf67ed078:  e5b23004      ldr	r3, [r2, #4]!
0xf67ed07c:  e3530000      cmp	r3, #0	; 0x0
0xf67ed080:  1afffff9      bne	0xf67ed06c

----------------
IN: 
0xf67ed08c:  e5d31001      ldrb	r1, [r3, #1]
0xf67ed090:  e3510044      cmp	r1, #68	; 0x44
0xf67ed094:  1afffff7      bne	0xf67ed078

----------------
IN: 
0xf67ed084:  e1a00003      mov	r0, r3
0xf67ed088:  e12fff1e      bx	lr

----------------
IN: 
0xf67d73cc:  e2507000      subs	r7, r0, #0	; 0x0
0xf67d73d0:  0a00002d      beq	0xf67d748c

----------------
IN: 
0xf67d748c:  e59f3c3c      ldr	r3, [pc, #3132]	; 0xf67d80d0
0xf67d7490:  e79f7003      ldr	r7, [pc, r3]
0xf67d7494:  e3570000      cmp	r7, #0	; 0x0
0xf67d7498:  1a000da3      bne	0xf67dab2c

----------------
IN: 
0xf67d749c:  e59f3c30      ldr	r3, [pc, #3120]	; 0xf67d80d4
0xf67d74a0:  e08f3003      add	r3, pc, r3
0xf67d74a4:  e5933008      ldr	r3, [r3, #8]
0xf67d74a8:  e3530000      cmp	r3, #0	; 0x0
0xf67d74ac:  0a000021      beq	0xf67d7538

----------------
IN: 
0xf67d7538:  e51b8060      ldr	r8, [fp, #-96]
0xf67d753c:  e59f3ba0      ldr	r3, [pc, #2976]	; 0xf67d80e4
0xf67d7540:  e5982000      ldr	r2, [r8]
0xf67d7544:  e08f3003      add	r3, pc, r3
0xf67d7548:  e1520003      cmp	r2, r3
0xf67d754c:  1a000164      bne	0xf67d7ae4

----------------
IN: 
0xf67d7ae4:  e3a05000      mov	r5, #0	; 0x0
0xf67d7ae8:  e3a03202      mov	r3, #536870912	; 0x20000000
0xf67d7aec:  e59f06ac      ldr	r0, [pc, #1708]	; 0xf67d81a0
0xf67d7af0:  e88d0028      stm	sp, {r3, r5}
0xf67d7af4:  e08f0000      add	r0, pc, r0
0xf67d7af8:  e1a01000      mov	r1, r0
0xf67d7afc:  e1a02005      mov	r2, r5
0xf67d7b00:  e1a03005      mov	r3, r5
0xf67d7b04:  eb0026b9      bl	0xf67e15f0

----------------
IN: 
0xf67e15f0:  e92d4ff0      push	{r4, r5, r6, r7, r8, r9, sl, fp, lr}
0xf67e15f4:  e1a08000      mov	r8, r0
0xf67e15f8:  e24dd00c      sub	sp, sp, #12	; 0xc
0xf67e15fc:  e1a00001      mov	r0, r1
0xf67e1600:  e58d2004      str	r2, [sp, #4]
0xf67e1604:  e1a05003      mov	r5, r3
0xf67e1608:  e1a09001      mov	r9, r1
0xf67e160c:  eb0037df      bl	0xf67ef590

----------------
IN: 
0xf67ef590:  e3c01003      bic	r1, r0, #3	; 0x3
0xf67ef594:  e4912004      ldr	r2, [r1], #4
0xf67ef598:  e2103003      ands	r3, r0, #3	; 0x3
0xf67ef59c:  e2630000      rsb	r0, r3, #0	; 0x0
0xf67ef5a0:  0a000004      beq	0xf67ef5b8

----------------
IN: 
0xf67ef5b8:  e31200ff      tst	r2, #255	; 0xff
0xf67ef5bc:  13120cff      tstne	r2, #65280	; 0xff00
0xf67ef5c0:  131208ff      tstne	r2, #16711680	; 0xff0000
0xf67ef5c4:  131204ff      tstne	r2, #-16777216	; 0xff000000
0xf67ef5c8:  12800004      addne	r0, r0, #4	; 0x4
0xf67ef5cc:  14912004      ldrne	r2, [r1], #4
0xf67ef5d0:  1afffff8      bne	0xf67ef5b8

----------------
IN: 
0xf67ef5d4:  e31200ff      tst	r2, #255	; 0xff
0xf67ef5d8:  12800001      addne	r0, r0, #1	; 0x1
0xf67ef5dc:  13120cff      tstne	r2, #65280	; 0xff00
0xf67ef5e0:  12800001      addne	r0, r0, #1	; 0x1
0xf67ef5e4:  131208ff      tstne	r2, #16711680	; 0xff0000
0xf67ef5e8:  12800001      addne	r0, r0, #1	; 0x1
0xf67ef5ec:  e12fff1e      bx	lr

----------------
IN: 
0xf67e1610:  e59f32a0      ldr	r3, [pc, #672]	; 0xf67e18b8
0xf67e1614:  e1a07000      mov	r7, r0
0xf67e1618:  e08f3003      add	r3, pc, r3
0xf67e161c:  e593a174      ldr	sl, [r3, #372]
0xf67e1620:  e2802001      add	r2, r0, #1	; 0x1
0xf67e1624:  e35a0000      cmp	sl, #0	; 0x0
0xf67e1628:  e59d6034      ldr	r6, [sp, #52]
0xf67e162c:  11a0b18a      lslne	fp, sl, #3
0xf67e1630:  1a000005      bne	0xf67e164c

----------------
IN: 
0xf67e1634:  e59d3030      ldr	r3, [sp, #48]
0xf67e1638:  e2031202      and	r1, r3, #536870912	; 0x20000000
0xf67e163c:  e3510000      cmp	r1, #0	; 0x0
0xf67e1640:  13a0a010      movne	sl, #16	; 0x10
0xf67e1644:  03a0b000      moveq	fp, #0	; 0x0
0xf67e1648:  13a0b080      movne	fp, #128	; 0x80
0xf67e164c:  e2870f9a      add	r0, r7, #616	; 0x268
0xf67e1650:  e2800001      add	r0, r0, #1	; 0x1
0xf67e1654:  e080000b      add	r0, r0, fp
0xf67e1658:  e3a01001      mov	r1, #1	; 0x1
0xf67e165c:  e58d2000      str	r2, [sp]
0xf67e1660:  ebffd44f      bl	0xf67d67a4

----------------
IN: 
0xf67d67a4:  e28fc600      add	ip, pc, #0	; 0x0
0xf67d67a8:  e28cca27      add	ip, ip, #159744	; 0x27000
0xf67d67ac:  e5bcf86c      ldr	pc, [ip, #2156]!

----------------
IN: 
0xf67ed2b0:  e1802001      orr	r2, r0, r1
0xf67ed2b4:  e3520801      cmp	r2, #65536	; 0x10000
0xf67ed2b8:  e92d4038      push	{r3, r4, r5, lr}
0xf67ed2bc:  e1a04000      mov	r4, r0
0xf67ed2c0:  e0050091      mul	r5, r1, r0
0xf67ed2c4:  2a000002      bcs	0xf67ed2d4

----------------
IN: 
0xf67ed2c8:  e1a00005      mov	r0, r5
0xf67ed2cc:  e8bd4038      pop	{r3, r4, r5, lr}
0xf67ed2d0:  eaffa52d      b	0xf67d678c

----------------
IN: 
0xf67d678c:  e28fc600      add	ip, pc, #0	; 0x0
0xf67d6790:  e28cca27      add	ip, ip, #159744	; 0x27000
0xf67d6794:  e5bcf87c      ldr	pc, [ip, #2172]!

----------------
IN: 
0xf67ed2a4:  e1a01000      mov	r1, r0
0xf67ed2a8:  e3a00008      mov	r0, #8	; 0x8
0xf67ed2ac:  eaffa533      b	0xf67d6780

----------------
IN: 
0xf67d6780:  e28fc600      add	ip, pc, #0	; 0x0
0xf67d6784:  e28cca27      add	ip, ip, #159744	; 0x27000
0xf67d6788:  e5bcf884      ldr	pc, [ip, #2180]!

----------------
IN: 
0xf67ed148:  e59f3134      ldr	r3, [pc, #308]	; 0xf67ed284
0xf67ed14c:  e92d4030      push	{r4, r5, lr}
0xf67ed150:  e08f3003      add	r3, pc, r3
0xf67ed154:  e5932000      ldr	r2, [r3]
0xf67ed158:  e24dd00c      sub	sp, sp, #12	; 0xc
0xf67ed15c:  e3520000      cmp	r2, #0	; 0x0
0xf67ed160:  e1a04001      mov	r4, r1
0xf67ed164:  0a000034      beq	0xf67ed23c

----------------
IN: 
0xf67ed23c:  e59f1058      ldr	r1, [pc, #88]	; 0xf67ed29c
0xf67ed240:  e59f2058      ldr	r2, [pc, #88]	; 0xf67ed2a0
0xf67ed244:  e08f1001      add	r1, pc, r1
0xf67ed248:  e5911010      ldr	r1, [r1, #16]
0xf67ed24c:  e08f2002      add	r2, pc, r2
0xf67ed250:  e1a0c002      mov	ip, r2
0xf67ed254:  e0812002      add	r2, r1, r2
0xf67ed258:  e2422001      sub	r2, r2, #1	; 0x1
0xf67ed25c:  e2611000      rsb	r1, r1, #0	; 0x0
0xf67ed260:  e0022001      and	r2, r2, r1
0xf67ed264:  e1a01002      mov	r1, r2
0xf67ed268:  e5832000      str	r2, [r3]
0xf67ed26c:  eaffffbf      b	0xf67ed170

----------------
IN: 
0xf67ed170:  e2403001      sub	r3, r0, #1	; 0x1
0xf67ed174:  e083300c      add	r3, r3, ip
0xf67ed178:  e2600000      rsb	r0, r0, #0	; 0x0
0xf67ed17c:  e0000003      and	r0, r0, r3
0xf67ed180:  e59f2100      ldr	r2, [pc, #256]	; 0xf67ed288
0xf67ed184:  e0803004      add	r3, r0, r4
0xf67ed188:  e08f2002      add	r2, pc, r2
0xf67ed18c:  e1530001      cmp	r3, r1
0xf67ed190:  e5820004      str	r0, [r2, #4]
0xf67ed194:  2a000002      bcs	0xf67ed1a4

----------------
IN: 
0xf67ed198:  e2602000      rsb	r2, r0, #0	; 0x0
0xf67ed19c:  e1540002      cmp	r4, r2
0xf67ed1a0:  3a000023      bcc	0xf67ed234

----------------
IN: 
0xf67ed234:  e1a04003      mov	r4, r3
0xf67ed238:  eafffff7      b	0xf67ed21c

----------------
IN: 
0xf67ed21c:  e59f3074      ldr	r3, [pc, #116]	; 0xf67ed298
0xf67ed220:  e08f3003      add	r3, pc, r3
0xf67ed224:  e5830008      str	r0, [r3, #8]
0xf67ed228:  e5834004      str	r4, [r3, #4]
0xf67ed22c:  e28dd00c      add	sp, sp, #12	; 0xc
0xf67ed230:  e8bd8030      pop	{r4, r5, pc}

----------------
IN: 
0xf67e1664:  e2504000      subs	r4, r0, #0	; 0x0
0xf67e1668:  e59d2000      ldr	r2, [sp]
0xf67e166c:  0a000066      beq	0xf67e180c

----------------
IN: 
0xf67e1670:  e28bcf96      add	ip, fp, #600	; 0x258
0xf67e1674:  e084c00c      add	ip, r4, ip
0xf67e1678:  e28c0004      add	r0, ip, #4	; 0x4
0xf67e167c:  e584c164      str	ip, [r4, #356]
0xf67e1680:  e1a01009      mov	r1, r9
0xf67e1684:  e584001c      str	r0, [r4, #28]
0xf67e1688:  e5844014      str	r4, [r4, #20]
0xf67e168c:  e28c0010      add	r0, ip, #16	; 0x10
0xf67e1690:  e58dc000      str	ip, [sp]
0xf67e1694:  eb003a59      bl	0xf67f0000

----------------
IN: 
0xf67f0094:  e1b02f82      lsls	r2, r2, #31
0xf67f0098:  14d13001      ldrbne	r3, [r1], #1
0xf67f009c:  24d14001      ldrbcs	r4, [r1], #1
0xf67f00a0:  25d1c000      ldrbcs	ip, [r1]
0xf67f00a4:  14c03001      strbne	r3, [r0], #1
0xf67f00a8:  24c04001      strbcs	r4, [r0], #1
0xf67f00ac:  25c0c000      strbcs	ip, [r0]
0xf67f00b0:  e8bd8011      pop	{r0, r4, pc}

----------------
IN: 
0xf67e1698:  e3a02001      mov	r2, #1	; 0x1
0xf67e169c:  e59dc000      ldr	ip, [sp]
0xf67e16a0:  e5d41194      ldrb	r1, [r4, #404]
0xf67e16a4:  e58c200c      str	r2, [ip, #12]
0xf67e16a8:  e59f220c      ldr	r2, [pc, #524]	; 0xf67e18bc
0xf67e16ac:  e58c0004      str	r0, [ip, #4]
0xf67e16b0:  e5d89000      ldrb	r9, [r8]
0xf67e16b4:  e08f2002      add	r2, pc, r2
0xf67e16b8:  e5922000      ldr	r2, [r2]
0xf67e16bc:  e3590000      cmp	r9, #0	; 0x0
0xf67e16c0:  00800007      addeq	r0, r0, r7
0xf67e16c4:  11a00008      movne	r0, r8
0xf67e16c8:  e3120c01      tst	r2, #256	; 0x100
0xf67e16cc:  03a02001      moveq	r2, #1	; 0x1
0xf67e16d0:  e59d3004      ldr	r3, [sp, #4]
0xf67e16d4:  e3c11003      bic	r1, r1, #3	; 0x3
0xf67e16d8:  e203b003      and	fp, r3, #3	; 0x3
0xf67e16dc:  e18bb001      orr	fp, fp, r1
0xf67e16e0:  058421fc      streq	r2, [r4, #508]
0xf67e16e4:  e35a0000      cmp	sl, #0	; 0x0
0xf67e16e8:  e5840004      str	r0, [r4, #4]
0xf67e16ec:  e5c4b194      strb	fp, [r4, #404]
0xf67e16f0:  e584516c      str	r5, [r4, #364]
0xf67e16f4:  e5846018      str	r6, [r4, #24]
0xf67e16f8:  11a01004      movne	r1, r4
0xf67e16fc:  13a02000      movne	r2, #0	; 0x0
0xf67e1700:  0a000004      beq	0xf67e1718

----------------
IN: 
0xf67e1704:  e2822001      add	r2, r2, #1	; 0x1
0xf67e1708:  e152000a      cmp	r2, sl
0xf67e170c:  e5814258      str	r4, [r1, #600]
0xf67e1710:  e2811008      add	r1, r1, #8	; 0x8
0xf67e1714:  1afffffa      bne	0xf67e1704

----------------
IN: 
0xf67e1718:  e3a01004      mov	r1, #4	; 0x4
0xf67e171c:  e59f319c      ldr	r3, [pc, #412]	; 0xf67e18c0
0xf67e1720:  e0862186      add	r2, r6, r6, lsl #3
0xf67e1724:  e0866082      add	r6, r6, r2, lsl #1
0xf67e1728:  e08f3003      add	r3, pc, r3
0xf67e172c:  e7933106      ldr	r3, [r3, r6, lsl #2]
0xf67e1730:  e2842f6e      add	r2, r4, #440	; 0x1b8
0xf67e1734:  e3530000      cmp	r3, #0	; 0x0
0xf67e1738:  e58411c8      str	r1, [r4, #456]
0xf67e173c:  e58421cc      str	r2, [r4, #460]
0xf67e1740:  01a01003      moveq	r1, r3
0xf67e1744:  13a01001      movne	r1, #1	; 0x1
0xf67e1748:  12833f57      addne	r3, r3, #348	; 0x15c
0xf67e174c:  158431b8      strne	r3, [r4, #440]
0xf67e1750:  e3550000      cmp	r5, #0	; 0x0
0xf67e1754:  01a05004      moveq	r5, r4
0xf67e1758:  1a000001      bne	0xf67e1764

----------------
IN: 
0xf67e175c:  ea000003      b	0xf67e1770

----------------
IN: 
0xf67e1770:  e3510000      cmp	r1, #0	; 0x0
0xf67e1774:  1a000027      bne	0xf67e1818

----------------
IN: 
0xf67e1778:  e2855f57      add	r5, r5, #348	; 0x15c
0xf67e177c:  e7825001      str	r5, [r2, r1]
0xf67e1780:  e2843f57      add	r3, r4, #348	; 0x15c
0xf67e1784:  e3590000      cmp	r9, #0	; 0x0
0xf67e1788:  e58431d0      str	r3, [r4, #464]
0xf67e178c:  0a00001e      beq	0xf67e180c

----------------
IN: 
0xf67e180c:  e1a00004      mov	r0, r4
0xf67e1810:  e28dd00c      add	sp, sp, #12	; 0xc
0xf67e1814:  e8bd8ff0      pop	{r4, r5, r6, r7, r8, r9, sl, fp, pc}

----------------
IN: 
0xf67d7b08:  e250a000      subs	sl, r0, #0	; 0x0
0xf67d7b0c:  0a000b51      beq	0xf67da858

----------------
IN: 
0xf67d7b10:  e3a03f56      mov	r3, #344	; 0x158
0xf67d7b14:  e51b6060      ldr	r6, [fp, #-96]
0xf67d7b18:  e51b8054      ldr	r8, [fp, #-84]
0xf67d7b1c:  e5962000      ldr	r2, [r6]
0xf67d7b20:  e51bc05c      ldr	ip, [fp, #-92]
0xf67d7b24:  e58a8150      str	r8, [sl, #336]
0xf67d7b28:  e58a2154      str	r2, [sl, #340]
0xf67d7b2c:  e1a01005      mov	r1, r5
0xf67d7b30:  e18ac0b3      strh	ip, [sl, r3]
0xf67d7b34:  eb00267e      bl	0xf67e1534

----------------
IN: 
0xf67e1534:  e92d4070      push	{r4, r5, r6, lr}
0xf67e1538:  e1a04001      mov	r4, r1
0xf67e153c:  e1a06000      mov	r6, r0
0xf67e1540:  e59f50a0      ldr	r5, [pc, #160]	; 0xf67e15e8
0xf67e1544:  e08f5005      add	r5, pc, r5
0xf67e1548:  e2850e4d      add	r0, r5, #1232	; 0x4d0
0xf67e154c:  e59537f0      ldr	r3, [r5, #2032]
0xf67e1550:  e280000c      add	r0, r0, #12	; 0xc
0xf67e1554:  e12fff33      blx	r3

----------------
IN: 
0xf67d6dd0:  e5903004      ldr	r3, [r0, #4]
0xf67d6dd4:  e2833001      add	r3, r3, #1	; 0x1
0xf67d6dd8:  e5803004      str	r3, [r0, #4]
0xf67d6ddc:  e12fff1e      bx	lr

----------------
IN: 
0xf67e1558:  e1a0c184      lsl	ip, r4, #3
0xf67e155c:  e08c3004      add	r3, ip, r4
0xf67e1560:  e0843083      add	r3, r4, r3, lsl #1
0xf67e1564:  e1a03103      lsl	r3, r3, #2
0xf67e1568:  e7952003      ldr	r2, [r5, r3]
0xf67e156c:  e3520000      cmp	r2, #0	; 0x0
0xf67e1570:  07856003      streq	r6, [r5, r3]
0xf67e1574:  1a000001      bne	0xf67e1580

----------------
IN: 
0xf67e1578:  ea000005      b	0xf67e1594

----------------
IN: 
0xf67e1594:  e59f1050      ldr	r1, [pc, #80]	; 0xf67e15ec
0xf67e1598:  e08cc004      add	ip, ip, r4
0xf67e159c:  e08f1001      add	r1, pc, r1
0xf67e15a0:  e084c08c      add	ip, r4, ip, lsl #1
0xf67e15a4:  e081c10c      add	ip, r1, ip, lsl #2
0xf67e15a8:  e59ce004      ldr	lr, [ip, #4]
0xf67e15ac:  e59124f8      ldr	r2, [r1, #1272]
0xf67e15b0:  e59134fc      ldr	r3, [r1, #1276]
0xf67e15b4:  e2924001      adds	r4, r2, #1	; 0x1
0xf67e15b8:  e2a35000      adc	r5, r3, #0	; 0x0
0xf67e15bc:  e28ee001      add	lr, lr, #1	; 0x1
0xf67e15c0:  e2810e4d      add	r0, r1, #1232	; 0x4d0
0xf67e15c4:  e58ce004      str	lr, [ip, #4]
0xf67e15c8:  e280000c      add	r0, r0, #12	; 0xc
0xf67e15cc:  e5862250      str	r2, [r6, #592]
0xf67e15d0:  e5863254      str	r3, [r6, #596]
0xf67e15d4:  e58144f8      str	r4, [r1, #1272]
0xf67e15d8:  e58154fc      str	r5, [r1, #1276]
0xf67e15dc:  e8bd4070      pop	{r4, r5, r6, lr}
0xf67e15e0:  e59137f4      ldr	r3, [r1, #2036]
0xf67e15e4:  e12fff13      bx	r3

----------------
IN: 
0xf67d6de0:  e5903004      ldr	r3, [r0, #4]
0xf67d6de4:  e2433001      sub	r3, r3, #1	; 0x1
0xf67d6de8:  e5803004      str	r3, [r0, #4]
0xf67d6dec:  e12fff1e      bx	lr

----------------
IN: 
0xf67d7b38:  e59f3664      ldr	r3, [pc, #1636]	; 0xf67d81a4
0xf67d7b3c:  e08f3003      add	r3, pc, r3
0xf67d7b40:  e5933000      ldr	r3, [r3]
0xf67d7b44:  e153000a      cmp	r3, sl
0xf67d7b48:  1a000b3a      bne	0xf67da838

----------------
IN: 
0xf67d7b4c:  e3a02000      mov	r2, #0	; 0x0
0xf67d7b50:  e3e03000      mvn	r3, #0	; 0x0
0xf67d7b54:  e51b4054      ldr	r4, [fp, #-84]
0xf67d7b58:  e51b605c      ldr	r6, [fp, #-92]
0xf67d7b5c:  e59a1190      ldr	r1, [sl, #400]
0xf67d7b60:  e0847286      add	r7, r4, r6, lsl #5
0xf67d7b64:  e2811001      add	r1, r1, #1	; 0x1
0xf67d7b68:  e1540007      cmp	r4, r7
0xf67d7b6c:  e58a1190      str	r1, [sl, #400]
0xf67d7b70:  e58a21b0      str	r2, [sl, #432]
0xf67d7b74:  e58a21b4      str	r2, [sl, #436]
0xf67d7b78:  e58a31ac      str	r3, [sl, #428]
0xf67d7b7c:  2a000b22      bcs	0xf67da80c

----------------
IN: 
0xf67d7b80:  e59f0620      ldr	r0, [pc, #1568]	; 0xf67d81a8
0xf67d7b84:  e59f8620      ldr	r8, [pc, #1568]	; 0xf67d81ac
0xf67d7b88:  e08f0000      add	r0, pc, r0
0xf67d7b8c:  e590c010      ldr	ip, [r0, #16]
0xf67d7b90:  e59f0618      ldr	r0, [pc, #1560]	; 0xf67d81b0
0xf67d7b94:  e59fe618      ldr	lr, [pc, #1560]	; 0xf67d81b4
0xf67d7b98:  e59f6618      ldr	r6, [pc, #1560]	; 0xf67d81b8
0xf67d7b9c:  e08f8008      add	r8, pc, r8
0xf67d7ba0:  e26cc000      rsb	ip, ip, #0	; 0x0
0xf67d7ba4:  e08f0000      add	r0, pc, r0
0xf67d7ba8:  e59f960c      ldr	r9, [pc, #1548]	; 0xf67d81bc
0xf67d7bac:  e50b8058      str	r8, [fp, #-88]
0xf67d7bb0:  e08fe00e      add	lr, pc, lr
0xf67d7bb4:  e08f6006      add	r6, pc, r6
0xf67d7bb8:  e50bc05c      str	ip, [fp, #-92]
0xf67d7bbc:  e288800c      add	r8, r8, #12	; 0xc
0xf67d7bc0:  e280c018      add	ip, r0, #24	; 0x18
0xf67d7bc4:  e1a04002      mov	r4, r2
0xf67d7bc8:  e51b3054      ldr	r3, [fp, #-84]
0xf67d7bcc:  e1a01002      mov	r1, r2
0xf67d7bd0:  e50be064      str	lr, [fp, #-100]
0xf67d7bd4:  e50b606c      str	r6, [fp, #-108]
0xf67d7bd8:  e08f9009      add	r9, pc, r9
0xf67d7bdc:  e50b8070      str	r8, [fp, #-112]
0xf67d7be0:  e50bc074      str	ip, [fp, #-116]
0xf67d7be4:  ea000008      b	0xf67d7c0c

----------------
IN: 
0xf67d7c0c:  e593c000      ldr	ip, [r3]
0xf67d7c10:  e35c0006      cmp	ip, #6	; 0x6
0xf67d7c14:  0a0002dd      beq	0xf67d8790

----------------
IN: 
0xf67d7c18:  9afffff2      bls	0xf67d7be8

----------------
IN: 
0xf67d7c1c:  e59fe59c      ldr	lr, [pc, #1436]	; 0xf67d81c0
0xf67d7c20:  e15c000e      cmp	ip, lr
0xf67d7c24:  0a0002e3      beq	0xf67d87b8

----------------
IN: 
0xf67d7c28:  e59f6688      ldr	r6, [pc, #1672]	; 0xf67d82b8
0xf67d7c2c:  e15c0006      cmp	ip, r6
0xf67d7c30:  0a0002db      beq	0xf67d87a4

----------------
IN: 
0xf67d7c34:  e35c0007      cmp	ip, #7	; 0x7
0xf67d7c38:  1afffff0      bne	0xf67d7c00

----------------
IN: 
0xf67d7c00:  e2833020      add	r3, r3, #32	; 0x20
0xf67d7c04:  e1530007      cmp	r3, r7
0xf67d7c08:  2a000023      bcs	0xf67d7c9c

----------------
IN: 
0xf67d8790:  e593c008      ldr	ip, [r3, #8]
0xf67d8794:  e51b8054      ldr	r8, [fp, #-84]
0xf67d8798:  e06cc008      rsb	ip, ip, r8
0xf67d879c:  e58ac000      str	ip, [sl]
0xf67d87a0:  eafffd16      b	0xf67d7c00

----------------
IN: 
0xf67d7be8:  e35c0002      cmp	ip, #2	; 0x2
0xf67d7bec:  0a000337      beq	0xf67d88d0

----------------
IN: 
0xf67d7bf0:  e35c0003      cmp	ip, #3	; 0x3
0xf67d7bf4:  0a00031a      beq	0xf67d8864

----------------
IN: 
0xf67d8864:  e5934008      ldr	r4, [r3, #8]
0xf67d8868:  e59ae000      ldr	lr, [sl]
0xf67d886c:  e599c520      ldr	ip, [r9, #1312]
0xf67d8870:  e084e00e      add	lr, r4, lr
0xf67d8874:  e51b6070      ldr	r6, [fp, #-112]
0xf67d8878:  e51b4058      ldr	r4, [fp, #-88]
0xf67d887c:  e35c0000      cmp	ip, #0	; 0x0
0xf67d8880:  e584e00c      str	lr, [r4, #12]
0xf67d8884:  e5896534      str	r6, [r9, #1332]
0xf67d8888:  0a000001      beq	0xf67d8894

----------------
IN: 
0xf67d888c:  e3a04001      mov	r4, #1	; 0x1
0xf67d8890:  eafffcda      b	0xf67d7c00

----------------
IN: 
0xf67d7bf8:  e35c0001      cmp	ip, #1	; 0x1
0xf67d7bfc:  0a000303      beq	0xf67d8810

----------------
IN: 
0xf67d8810:  e593e008      ldr	lr, [r3, #8]
0xf67d8814:  e51b805c      ldr	r8, [fp, #-92]
0xf67d8818:  e59ac000      ldr	ip, [sl]
0xf67d881c:  e008800e      and	r8, r8, lr
0xf67d8820:  e088600c      add	r6, r8, ip
0xf67d8824:  e59a81ac      ldr	r8, [sl, #428]
0xf67d8828:  e1560008      cmp	r6, r8
0xf67d882c:  358a61ac      strcc	r6, [sl, #428]
0xf67d8830:  e5936014      ldr	r6, [r3, #20]
0xf67d8834:  e08ee006      add	lr, lr, r6
0xf67d8838:  e08ec00c      add	ip, lr, ip
0xf67d883c:  e593e018      ldr	lr, [r3, #24]
0xf67d8840:  e15c0001      cmp	ip, r1
0xf67d8844:  81a0100c      movhi	r1, ip
0xf67d8848:  858ac1b0      strhi	ip, [sl, #432]
0xf67d884c:  e31e0001      tst	lr, #1	; 0x1
0xf67d8850:  0afffcea      beq	0xf67d7c00

----------------
IN: 
0xf67d8854:  e15c0002      cmp	ip, r2
0xf67d8858:  858ac1b4      strhi	ip, [sl, #436]
0xf67d885c:  81a0200c      movhi	r2, ip
0xf67d8860:  eafffce6      b	0xf67d7c00

----------------
IN: 
0xf67d88d0:  e593e008      ldr	lr, [r3, #8]
0xf67d88d4:  e59ac000      ldr	ip, [sl]
0xf67d88d8:  e08ec00c      add	ip, lr, ip
0xf67d88dc:  e58ac008      str	ip, [sl, #8]
0xf67d88e0:  eafffcc6      b	0xf67d7c00

----------------
IN: 
0xf67d87b8:  e593c018      ldr	ip, [r3, #24]
0xf67d87bc:  e51b6064      ldr	r6, [fp, #-100]
0xf67d87c0:  e586c7fc      str	ip, [r6, #2044]
0xf67d87c4:  eafffd0d      b	0xf67d7c00

----------------
IN: 
0xf67d87a4:  e593e008      ldr	lr, [r3, #8]
0xf67d87a8:  e593c014      ldr	ip, [r3, #20]
0xf67d87ac:  e58ae248      str	lr, [sl, #584]
0xf67d87b0:  e58ac24c      str	ip, [sl, #588]
0xf67d87b4:  eafffd11      b	0xf67d7c00

----------------
IN: 
0xf67d7c9c:  e59a3228      ldr	r3, [sl, #552]
0xf67d7ca0:  e3530000      cmp	r3, #0	; 0x0
0xf67d7ca4:  159a0000      ldrne	r0, [sl]
0xf67d7ca8:  10833000      addne	r3, r3, r0
0xf67d7cac:  158a3228      strne	r3, [sl, #552]
0xf67d7cb0:  e3510000      cmp	r1, #0	; 0x0
0xf67d7cb4:  03e03000      mvneq	r3, #0	; 0x0
0xf67d7cb8:  058a31b0      streq	r3, [sl, #432]
0xf67d7cbc:  e3520000      cmp	r2, #0	; 0x0
0xf67d7cc0:  03e03000      mvneq	r3, #0	; 0x0
0xf67d7cc4:  058a31b4      streq	r3, [sl, #436]
0xf67d7cc8:  e59f34f4      ldr	r3, [pc, #1268]	; 0xf67d81c4
0xf67d7ccc:  e08f3003      add	r3, pc, r3
0xf67d7cd0:  e5932534      ldr	r2, [r3, #1332]
0xf67d7cd4:  e3520000      cmp	r2, #0	; 0x0
0xf67d7cd8:  0a000ac3      beq	0xf67da7ec

----------------
IN: 
0xf67d7cdc:  e59f34e4      ldr	r3, [pc, #1252]	; 0xf67d81c8
0xf67d7ce0:  e08f3003      add	r3, pc, r3
0xf67d7ce4:  e5932570      ldr	r2, [r3, #1392]
0xf67d7ce8:  e3520000      cmp	r2, #0	; 0x0
0xf67d7cec:  0a000015      beq	0xf67d7d48

----------------
IN: 
0xf67d7cf0:  e593154c      ldr	r1, [r3, #1356]
0xf67d7cf4:  e5922004      ldr	r2, [r2, #4]
0xf67d7cf8:  e5917004      ldr	r7, [r1, #4]
0xf67d7cfc:  e5936534      ldr	r6, [r3, #1332]
0xf67d7d00:  e0877002      add	r7, r7, r2
0xf67d7d04:  e1a01007      mov	r1, r7
0xf67d7d08:  e5960000      ldr	r0, [r6]
0xf67d7d0c:  eb005e12      bl	0xf67ef55c

----------------
IN: 
0xf67ef55c:  e4d03001      ldrb	r3, [r0], #1
0xf67ef560:  e4d12001      ldrb	r2, [r1], #1
0xf67ef564:  e3530000      cmp	r3, #0	; 0x0
0xf67ef568:  0a000003      beq	0xf67ef57c

----------------
IN: 
0xf67ef56c:  e1530002      cmp	r3, r2
0xf67ef570:  0afffff9      beq	0xf67ef55c

----------------
IN: 
0xf67ef574:  e0620003      rsb	r0, r2, r3
0xf67ef578:  e12fff1e      bx	lr

----------------
IN: 
0xf67d7d10:  e3500000      cmp	r0, #0	; 0x0
0xf67d7d14:  0a00000b      beq	0xf67d7d48

----------------
IN: 
0xf67d7d18:  e3a01000      mov	r1, #0	; 0x0
0xf67d7d1c:  e3a02001      mov	r2, #1	; 0x1
0xf67d7d20:  e59f34a4      ldr	r3, [pc, #1188]	; 0xf67d81cc
0xf67d7d24:  e08f3003      add	r3, pc, r3
0xf67d7d28:  e5831028      str	r1, [r3, #40]
0xf67d7d2c:  e5961004      ldr	r1, [r6, #4]
0xf67d7d30:  e5837024      str	r7, [r3, #36]
0xf67d7d34:  e3510000      cmp	r1, #0	; 0x0
0xf67d7d38:  e583202c      str	r2, [r3, #44]
0xf67d7d3c:  02833024      addeq	r3, r3, #36	; 0x24
0xf67d7d40:  05863004      streq	r3, [r6, #4]
0xf67d7d44:  1a000aa0      bne	0xf67da7cc

----------------
IN: 
0xf67d7d48:  e59f3480      ldr	r3, [pc, #1152]	; 0xf67d81d0
0xf67d7d4c:  e08f3003      add	r3, pc, r3
0xf67d7d50:  e5d336ac      ldrb	r3, [r3, #1708]
0xf67d7d54:  e3130004      tst	r3, #4	; 0x4
0xf67d7d58:  0a000a93      beq	0xf67da7ac

----------------
IN: 
0xf67d7d5c:  e3550000      cmp	r5, #0	; 0x0
0xf67d7d60:  1a000082      bne	0xf67d7f70

----------------
IN: 
0xf67d7d64:  e59a2008      ldr	r2, [sl, #8]
0xf67d7d68:  e3520000      cmp	r2, #0	; 0x0
0xf67d7d6c:  0a00007d      beq	0xf67d7f68

----------------
IN: 
0xf67d7d70:  e5923000      ldr	r3, [r2]
0xf67d7d74:  e28a1020      add	r1, sl, #32	; 0x20
0xf67d7d78:  e3530000      cmp	r3, #0	; 0x0
0xf67d7d7c:  1a000006      bne	0xf67d7d9c

----------------
IN: 
0xf67d7d9c:  e3530021      cmp	r3, #33	; 0x21
0xf67d7da0:  9afffff9      bls	0xf67d7d8c

----------------
IN: 
0xf67d7d8c:  e7812103      str	r2, [r1, r3, lsl #2]
0xf67d7d90:  e5b23008      ldr	r3, [r2, #8]!
0xf67d7d94:  e3530000      cmp	r3, #0	; 0x0
0xf67d7d98:  0a000011      beq	0xf67d7de4

----------------
IN: 
0xf67d7da4:  e3e00209      mvn	r0, #-1879048192	; 0x90000000
0xf67d7da8:  e0630000      rsb	r0, r3, r0
0xf67d7dac:  e350000f      cmp	r0, #15	; 0xf
0xf67d7db0:  9afffff3      bls	0xf67d7d84

----------------
IN: 
0xf67d7db4:  e1a00083      lsl	r0, r3, #1
0xf67d7db8:  e1a000c0      asr	r0, r0, #1
0xf67d7dbc:  e3700004      cmn	r0, #4	; 0x4
0xf67d7dc0:  9a0002d5      bls	0xf67d891c

----------------
IN: 
0xf67d891c:  e51f06fc      ldr	r0, [pc, #-1788]	; 0xf67d8228
0xf67d8920:  e0630000      rsb	r0, r3, r0
0xf67d8924:  e350000b      cmp	r0, #11	; 0xb
0xf67d8928:  90413103      subls	r3, r1, r3, lsl #2
0xf67d892c:  92833103      addls	r3, r3, #-1073741824	; 0xc0000000
0xf67d8930:  95032730      strls	r2, [r3, #-1840]
0xf67d8934:  9afffd15      bls	0xf67d7d90

----------------
IN: 
0xf67d8938:  e51f0714      ldr	r0, [pc, #-1812]	; 0xf67d822c
0xf67d893c:  e0630000      rsb	r0, r3, r0
0xf67d8940:  e350000a      cmp	r0, #10	; 0xa
0xf67d8944:  90413103      subls	r3, r1, r3, lsl #2
0xf67d8948:  92833103      addls	r3, r3, #-1073741824	; 0xc0000000
0xf67d894c:  95032300      strls	r2, [r3, #-768]
0xf67d8950:  eafffd0e      b	0xf67d7d90

----------------
IN: 
0xf67d7d90:  e5b23008      ldr	r3, [r2, #8]!
0xf67d7d94:  e3530000      cmp	r3, #0	; 0x0
0xf67d7d98:  0a000011      beq	0xf67d7de4

----------------
IN: 
0xf67d7d84:  e2633207      rsb	r3, r3, #1879048192	; 0x70000000
0xf67d7d88:  e2833021      add	r3, r3, #33	; 0x21
0xf67d7d8c:  e7812103      str	r2, [r1, r3, lsl #2]
0xf67d7d90:  e5b23008      ldr	r3, [r2, #8]!
0xf67d7d94:  e3530000      cmp	r3, #0	; 0x0
0xf67d7d98:  0a000011      beq	0xf67d7de4

----------------
IN: 
0xf67d7de4:  e59a3000      ldr	r3, [sl]
0xf67d7de8:  e3530000      cmp	r3, #0	; 0x0
0xf67d7dec:  0a00002c      beq	0xf67d7ea4

----------------
IN: 
0xf67d7ea4:  e59a3070      ldr	r3, [sl, #112]
0xf67d7ea8:  e3530000      cmp	r3, #0	; 0x0
0xf67d7eac:  0a000003      beq	0xf67d7ec0

----------------
IN: 
0xf67d7eb0:  e5933004      ldr	r3, [r3, #4]
0xf67d7eb4:  e3530007      cmp	r3, #7	; 0x7
0xf67d7eb8:  13530011      cmpne	r3, #17	; 0x11
0xf67d7ebc:  1a00033a      bne	0xf67d8bac

----------------
IN: 
0xf67d7ec0:  e59a303c      ldr	r3, [sl, #60]
0xf67d7ec4:  e3530000      cmp	r3, #0	; 0x0
0xf67d7ec8:  0a000003      beq	0xf67d7edc

----------------
IN: 
0xf67d7edc:  e59a3064      ldr	r3, [sl, #100]
0xf67d7ee0:  e3530000      cmp	r3, #0	; 0x0
0xf67d7ee4:  0a000003      beq	0xf67d7ef8

----------------
IN: 
0xf67d7ee8:  e59a306c      ldr	r3, [sl, #108]
0xf67d7eec:  e5933004      ldr	r3, [r3, #4]
0xf67d7ef0:  e3530008      cmp	r3, #8	; 0x8
0xf67d7ef4:  1a00031c      bne	0xf67d8b6c

----------------
IN: 
0xf67d7ef8:  e59a3098      ldr	r3, [sl, #152]
0xf67d7efc:  e3530000      cmp	r3, #0	; 0x0
0xf67d7f00:  0a000007      beq	0xf67d7f24

----------------
IN: 
0xf67d7f24:  e59a30b8      ldr	r3, [sl, #184]
0xf67d7f28:  e3530000      cmp	r3, #0	; 0x0
0xf67d7f2c:  0a000009      beq	0xf67d7f58

----------------
IN: 
0xf67d7f58:  e59a3094      ldr	r3, [sl, #148]
0xf67d7f5c:  e3530000      cmp	r3, #0	; 0x0
0xf67d7f60:  13a03000      movne	r3, #0	; 0x0
0xf67d7f64:  158a305c      strne	r3, [sl, #92]
0xf67d7f68:  e1a0000a      mov	r0, sl
0xf67d7f6c:  eb002543      bl	0xf67e1480

----------------
IN: 
0xf67d7f70:  e51b8050      ldr	r8, [fp, #-80]
0xf67d7f74:  e3580002      cmp	r8, #2	; 0x2
0xf67d7f78:  0a000a01      beq	0xf67da784

----------------
IN: 
0xf67d7f7c:  e59f6254      ldr	r6, [pc, #596]	; 0xf67d81d8
0xf67d7f80:  e08f6006      add	r6, pc, r6
0xf67d7f84:  e5963134      ldr	r3, [r6, #308]
0xf67d7f88:  e3530000      cmp	r3, #0	; 0x0
0xf67d7f8c:  0a0009f6      beq	0xf67da76c

----------------
IN: 
0xf67da76c:  e51f324c      ldr	r3, [pc, #-588]	; 0xf67da528
0xf67da770:  e08f3003      add	r3, pc, r3
0xf67da774:  e2833e52      add	r3, r3, #1312	; 0x520
0xf67da778:  e2833004      add	r3, r3, #4	; 0x4
0xf67da77c:  e50b3058      str	r3, [fp, #-88]
0xf67da780:  eafff7ec      b	0xf67d8738

----------------
IN: 
0xf67d8738:  eb0051cc      bl	0xf67ece70

----------------
IN: 
0xf67ece70:  e59f31d8      ldr	r3, [pc, #472]	; 0xf67ed050
0xf67ece74:  e92d4ff0      push	{r4, r5, r6, r7, r8, r9, sl, fp, lr}
0xf67ece78:  e08f3003      add	r3, pc, r3
0xf67ece7c:  e593a138      ldr	sl, [r3, #312]
0xf67ece80:  e24ddf73      sub	sp, sp, #460	; 0x1cc
0xf67ece84:  e35a0000      cmp	sl, #0	; 0x0
0xf67ece88:  0a00002e      beq	0xf67ecf48

----------------
IN: 
0xf67ecf48:  e28d4040      add	r4, sp, #64	; 0x40
0xf67ecf4c:  e1a00004      mov	r0, r4
0xf67ecf50:  eb00086a      bl	0xf67ef100

----------------
IN: 
0xf67ef100:  e52d7004      push	{r7}		; (str r7, [sp, #-4]!)
0xf67ef104:  e3a0707a      mov	r7, #122	; 0x7a
0xf67ef108:  ef000000      svc	0x00000000

----------------
IN: 
0xf67ef10c:  e49d7004      pop	{r7}		; (ldr r7, [sp], #4)
0xf67ef110:  e3700a01      cmn	r0, #4096	; 0x1000
0xf67ef114:  312fff1e      bxcc	lr

----------------
IN: 
0xf67ecf54:  e3500000      cmp	r0, #0	; 0x0
0xf67ecf58:  02841082      addeq	r1, r4, #130	; 0x82
0xf67ecf5c:  1a000022      bne	0xf67ecfec

----------------
IN: 
0xf67ecf60:  e3a0e000      mov	lr, #0	; 0x0
0xf67ecf64:  e1a0000e      mov	r0, lr
0xf67ecf68:  e5d12000      ldrb	r2, [r1]
0xf67ecf6c:  e2422030      sub	r2, r2, #48	; 0x30
0xf67ecf70:  e20230ff      and	r3, r2, #255	; 0xff
0xf67ecf74:  e3530009      cmp	r3, #9	; 0x9
0xf67ecf78:  8a000016      bhi	0xf67ecfd8

----------------
IN: 
0xf67ecf7c:  e5d13001      ldrb	r3, [r1, #1]
0xf67ecf80:  e2811001      add	r1, r1, #1	; 0x1
0xf67ecf84:  e243c030      sub	ip, r3, #48	; 0x30
0xf67ecf88:  e35c0009      cmp	ip, #9	; 0x9
0xf67ecf8c:  8a000006      bhi	0xf67ecfac

----------------
IN: 
0xf67ecfac:  e353002e      cmp	r3, #46	; 0x2e
0xf67ecfb0:  e28ee001      add	lr, lr, #1	; 0x1
0xf67ecfb4:  e1820400      orr	r0, r2, r0, lsl #8
0xf67ecfb8:  e2811001      add	r1, r1, #1	; 0x1
0xf67ecfbc:  1a000003      bne	0xf67ecfd0

----------------
IN: 
0xf67ecfc0:  e35e0003      cmp	lr, #3	; 0x3
0xf67ecfc4:  1affffe7      bne	0xf67ecf68

----------------
IN: 
0xf67ecf68:  e5d12000      ldrb	r2, [r1]
0xf67ecf6c:  e2422030      sub	r2, r2, #48	; 0x30
0xf67ecf70:  e20230ff      and	r3, r2, #255	; 0xff
0xf67ecf74:  e3530009      cmp	r3, #9	; 0x9
0xf67ecf78:  8a000016      bhi	0xf67ecfd8

----------------
IN: 
0xf67ecf90:  e0822102      add	r2, r2, r2, lsl #2
0xf67ecf94:  e0832082      add	r2, r3, r2, lsl #1
0xf67ecf98:  e5f13001      ldrb	r3, [r1, #1]!
0xf67ecf9c:  e2422030      sub	r2, r2, #48	; 0x30
0xf67ecfa0:  e243c030      sub	ip, r3, #48	; 0x30
0xf67ecfa4:  e35c0009      cmp	ip, #9	; 0x9
0xf67ecfa8:  9afffff8      bls	0xf67ecf90

----------------
IN: 
0xf67ecfd0:  e35e0003      cmp	lr, #3	; 0x3
0xf67ecfd4:  0affffd9      beq	0xf67ecf40

----------------
IN: 
0xf67ecf40:  e28ddf73      add	sp, sp, #460	; 0x1cc
0xf67ecf44:  e8bd8ff0      pop	{r4, r5, r6, r7, r8, r9, sl, fp, pc}

----------------
IN: 
0xf67d873c:  e3500000      cmp	r0, #0	; 0x0
0xf67d8740:  ba0001e2      blt	0xf67d8ed0

----------------
IN: 
0xf67d8744:  e51f3534      ldr	r3, [pc, #-1332]	; 0xf67d8218
0xf67d8748:  e08f3003      add	r3, pc, r3
0xf67d874c:  e5933004      ldr	r3, [r3, #4]
0xf67d8750:  e3530000      cmp	r3, #0	; 0x0
0xf67d8754:  1a0001da      bne	0xf67d8ec4

----------------
IN: 
0xf67d8758:  e51f3544      ldr	r3, [pc, #-1348]	; 0xf67d821c
0xf67d875c:  e08f3003      add	r3, pc, r3
0xf67d8760:  e5830004      str	r0, [r3, #4]
0xf67d8764:  e51f354c      ldr	r3, [pc, #-1356]	; 0xf67d8220
0xf67d8768:  e1500003      cmp	r0, r3
0xf67d876c:  ca00011e      bgt	0xf67d8bec

----------------
IN: 
0xf67d8bec:  e51f3950      ldr	r3, [pc, #-2384]	; 0xf67d82a4
0xf67d8bf0:  e51f4950      ldr	r4, [pc, #-2384]	; 0xf67d82a8
0xf67d8bf4:  e08f3003      add	r3, pc, r3
0xf67d8bf8:  e08f4004      add	r4, pc, r4
0xf67d8bfc:  e5930014      ldr	r0, [r3, #20]
0xf67d8c00:  eb0016be      bl	0xf67de700

----------------
IN: 
0xf67de700:  e92d4ff0      push	{r4, r5, r6, r7, r8, r9, sl, fp, lr}
0xf67de704:  e59f3474      ldr	r3, [pc, #1140]	; 0xf67deb80
0xf67de708:  e59f6474      ldr	r6, [pc, #1140]	; 0xf67deb84
0xf67de70c:  e28db020      add	fp, sp, #32	; 0x20
0xf67de710:  e24dd014      sub	sp, sp, #20	; 0x14
0xf67de714:  e08f6006      add	r6, pc, r6
0xf67de718:  e08f3003      add	r3, pc, r3
0xf67de71c:  e593100c      ldr	r1, [r3, #12]
0xf67de720:  e2862008      add	r2, r6, #8	; 0x8
0xf67de724:  e1a07000      mov	r7, r0
0xf67de728:  e5930008      ldr	r0, [r3, #8]
0xf67de72c:  e2863004      add	r3, r6, #4	; 0x4
0xf67de730:  eb0018da      bl	0xf67e4aa0

----------------
IN: 
0xf67e4aa0:  e92d4ff0      push	{r4, r5, r6, r7, r8, r9, sl, fp, lr}
0xf67e4aa4:  e28db020      add	fp, sp, #32	; 0x20
0xf67e4aa8:  e24dd044      sub	sp, sp, #68	; 0x44
0xf67e4aac:  e50b0048      str	r0, [fp, #-72]
0xf67e4ab0:  e51b4048      ldr	r4, [fp, #-72]
0xf67e4ab4:  e59f08a8      ldr	r0, [pc, #2216]	; 0xf67e5364
0xf67e4ab8:  e2944000      adds	r4, r4, #0	; 0x0
0xf67e4abc:  13a04001      movne	r4, #1	; 0x1
0xf67e4ac0:  e08f0000      add	r0, pc, r0
0xf67e4ac4:  e2809048      add	r9, r0, #72	; 0x48
0xf67e4ac8:  e8990300      ldm	r9, {r8, r9}
0xf67e4acc:  e50b8034      str	r8, [fp, #-52]
0xf67e4ad0:  e50b9030      str	r9, [fp, #-48]
0xf67e4ad4:  e2809040      add	r9, r0, #64	; 0x40
0xf67e4ad8:  e8990300      ldm	r9, {r8, r9}
0xf67e4adc:  e50b4044      str	r4, [fp, #-68]
0xf67e4ae0:  e24b5034      sub	r5, fp, #52	; 0x34
0xf67e4ae4:  e8950030      ldm	r5, {r4, r5}
0xf67e4ae8:  e0055009      and	r5, r5, r9
0xf67e4aec:  e0044008      and	r4, r4, r8
0xf67e4af0:  e1a09004      mov	r9, r4
0xf67e4af4:  e1a0a005      mov	sl, r5
0xf67e4af8:  e51b8044      ldr	r8, [fp, #-68]
0xf67e4afc:  e199500a      orrs	r5, r9, sl
0xf67e4b00:  e50b104c      str	r1, [fp, #-76]
0xf67e4b04:  e50b2058      str	r2, [fp, #-88]
0xf67e4b08:  e50b305c      str	r3, [fp, #-92]
0xf67e4b0c:  e50b8040      str	r8, [fp, #-64]
0xf67e4b10:  0a00001f      beq	0xf67e4b94

----------------
IN: 
0xf67e4b14:  e3a03000      mov	r3, #0	; 0x0
0xf67e4b18:  e3a00001      mov	r0, #1	; 0x1
0xf67e4b1c:  e1a01003      mov	r1, r3
0xf67e4b20:  e1a0e003      mov	lr, r3
0xf67e4b24:  e1a0c008      mov	ip, r8
0xf67e4b28:  e1a02004      mov	r2, r4
0xf67e4b2c:  e1a0300a      mov	r3, sl
0xf67e4b30:  e1a04e32      lsr	r4, r2, lr
0xf67e4b34:  e26e6020      rsb	r6, lr, #32	; 0x20
0xf67e4b38:  e1844613      orr	r4, r4, r3, lsl r6
0xf67e4b3c:  e24e6020      sub	r6, lr, #32	; 0x20
0xf67e4b40:  e1844633      orr	r4, r4, r3, lsr r6
0xf67e4b44:  e3a07000      mov	r7, #0	; 0x0
0xf67e4b48:  e2811001      add	r1, r1, #1	; 0x1
0xf67e4b4c:  e2046001      and	r6, r4, #1	; 0x1
0xf67e4b50:  e196e007      orrs	lr, r6, r7
0xf67e4b54:  e241e020      sub	lr, r1, #32	; 0x20
0xf67e4b58:  e1a09e10      lsl	r9, r0, lr
0xf67e4b5c:  e1a08110      lsl	r8, r0, r1
0xf67e4b60:  e261e020      rsb	lr, r1, #32	; 0x20
0xf67e4b64:  e1899e30      orr	r9, r9, r0, lsr lr
0xf67e4b68:  128cc001      addne	ip, ip, #1	; 0x1
0xf67e4b6c:  e2786000      rsbs	r6, r8, #0	; 0x0
0xf67e4b70:  e2e97000      rsc	r7, r9, #0	; 0x0
0xf67e4b74:  e0066002      and	r6, r6, r2
0xf67e4b78:  e0077003      and	r7, r7, r3
0xf67e4b7c:  e196e007      orrs	lr, r6, r7
0xf67e4b80:  e1a0e001      mov	lr, r1
0xf67e4b84:  1affffe9      bne	0xf67e4b30

----------------
IN: 
0xf67e4b30:  e1a04e32      lsr	r4, r2, lr
0xf67e4b34:  e26e6020      rsb	r6, lr, #32	; 0x20
0xf67e4b38:  e1844613      orr	r4, r4, r3, lsl r6
0xf67e4b3c:  e24e6020      sub	r6, lr, #32	; 0x20
0xf67e4b40:  e1844633      orr	r4, r4, r3, lsr r6
0xf67e4b44:  e3a07000      mov	r7, #0	; 0x0
0xf67e4b48:  e2811001      add	r1, r1, #1	; 0x1
0xf67e4b4c:  e2046001      and	r6, r4, #1	; 0x1
0xf67e4b50:  e196e007      orrs	lr, r6, r7
0xf67e4b54:  e241e020      sub	lr, r1, #32	; 0x20
0xf67e4b58:  e1a09e10      lsl	r9, r0, lr
0xf67e4b5c:  e1a08110      lsl	r8, r0, r1
0xf67e4b60:  e261e020      rsb	lr, r1, #32	; 0x20
0xf67e4b64:  e1899e30      orr	r9, r9, r0, lsr lr
0xf67e4b68:  128cc001      addne	ip, ip, #1	; 0x1
0xf67e4b6c:  e2786000      rsbs	r6, r8, #0	; 0x0
0xf67e4b70:  e2e97000      rsc	r7, r9, #0	; 0x0
0xf67e4b74:  e0066002      and	r6, r6, r2
0xf67e4b78:  e0077003      and	r7, r7, r3
0xf67e4b7c:  e196e007      orrs	lr, r6, r7
0xf67e4b80:  e1a0e001      mov	lr, r1
0xf67e4b84:  1affffe9      bne	0xf67e4b30

----------------
IN: 
0xf67e4b88:  e1a09002      mov	r9, r2
0xf67e4b8c:  e1a0a003      mov	sl, r3
0xf67e4b90:  e50bc040      str	ip, [fp, #-64]
0xf67e4b94:  e59f37cc      ldr	r3, [pc, #1996]	; 0xf67e5368
0xf67e4b98:  e08f3003      add	r3, pc, r3
0xf67e4b9c:  e5933138      ldr	r3, [r3, #312]
0xf67e4ba0:  e3530000      cmp	r3, #0	; 0x0
0xf67e4ba4:  e50b3034      str	r3, [fp, #-52]
0xf67e4ba8:  0a000199      beq	0xf67e5214

----------------
IN: 
0xf67e5214:  e51b7034      ldr	r7, [fp, #-52]
0xf67e5218:  e1a04007      mov	r4, r7
0xf67e521c:  eafffea6      b	0xf67e4cbc

----------------
IN: 
0xf67e4cbc:  e59f06ac      ldr	r0, [pc, #1708]	; 0xf67e5370
0xf67e4cc0:  e3a01000      mov	r1, #0	; 0x0
0xf67e4cc4:  e08f0000      add	r0, pc, r0
0xf67e4cc8:  eb00289c      bl	0xf67eef40

----------------
IN: 
0xf67eef40:  e52d7004      push	{r7}		; (str r7, [sp, #-4]!)
0xf67eef44:  e3a07021      mov	r7, #33	; 0x21
0xf67eef48:  ef000000      svc	0x00000000

----------------
IN: 
0xf67eef4c:  e49d7004      pop	{r7}		; (ldr r7, [sp], #4)
0xf67eef50:  e3700a01      cmn	r0, #4096	; 0x1000
0xf67eef54:  312fff1e      bxcc	lr

----------------
IN: 
0xf67eef58:  eaffffff      b	0xf67eef5c

----------------
IN: 
0xf67eef5c:  e2600000      rsb	r0, r0, #0	; 0x0
0xf67eef60:  e59f1008      ldr	r1, [pc, #8]	; 0xf67eef70
0xf67eef64:  e78f0001      str	r0, [pc, r1]
0xf67eef68:  e3e00000      mvn	r0, #0	; 0x0
0xf67eef6c:  e12fff1e      bx	lr

----------------
IN: 
0xf67e4ccc:  e2505000      subs	r5, r0, #0	; 0x0
0xf67e4cd0:  1a000009      bne	0xf67e4cfc

----------------
IN: 
0xf67e4cfc:  e51b8040      ldr	r8, [fp, #-64]
0xf67e4d00:  e3540000      cmp	r4, #0	; 0x0
0xf67e4d04:  e2886001      add	r6, r8, #1	; 0x1
0xf67e4d08:  e1a03186      lsl	r3, r6, #3
0xf67e4d0c:  e2833008      add	r3, r3, #8	; 0x8
0xf67e4d10:  e04dd003      sub	sp, sp, r3
0xf67e4d14:  e1a0c00d      mov	ip, sp
0xf67e4d18:  e1a0c1ac      lsr	ip, ip, #3
0xf67e4d1c:  e1a0318c      lsl	r3, ip, #3
0xf67e4d20:  e50bc040      str	ip, [fp, #-64]
0xf67e4d24:  e50b3034      str	r3, [fp, #-52]
0xf67e4d28:  0a000136      beq	0xf67e5208

----------------
IN: 
0xf67e5208:  e3a03001      mov	r3, #1	; 0x1
0xf67e520c:  e1a0c004      mov	ip, r4
0xf67e5210:  eafffef5      b	0xf67e4dec

----------------
IN: 
0xf67e4dec:  e199e00a      orrs	lr, r9, sl
0xf67e4df0:  0a000142      beq	0xf67e5300

----------------
IN: 
0xf67e4df4:  e3a05000      mov	r5, #0	; 0x0
0xf67e4df8:  e59f4578      ldr	r4, [pc, #1400]	; 0xf67e5378
0xf67e4dfc:  e50b6054      str	r6, [fp, #-84]
0xf67e4e00:  e08f4004      add	r4, pc, r4
0xf67e4e04:  e1a06005      mov	r6, r5
0xf67e4e08:  e50b403c      str	r4, [fp, #-60]
0xf67e4e0c:  e1a0500a      mov	r5, sl
0xf67e4e10:  e3a07001      mov	r7, #1	; 0x1
0xf67e4e14:  e1a04009      mov	r4, r9
0xf67e4e18:  e1a0a00c      mov	sl, ip
0xf67e4e1c:  e1a08634      lsr	r8, r4, r6
0xf67e4e20:  e2660020      rsb	r0, r6, #32	; 0x20
0xf67e4e24:  e1888015      orr	r8, r8, r5, lsl r0
0xf67e4e28:  e246e020      sub	lr, r6, #32	; 0x20
0xf67e4e2c:  e1888e35      orr	r8, r8, r5, lsr lr
0xf67e4e30:  e3a03000      mov	r3, #0	; 0x0
0xf67e4e34:  e2082001      and	r2, r8, #1	; 0x1
0xf67e4e38:  e1921003      orrs	r1, r2, r3
0xf67e4e3c:  0a000013      beq	0xf67e4e90

----------------
IN: 
0xf67e4e90:  e1942005      orrs	r2, r4, r5
0xf67e4e94:  e2866001      add	r6, r6, #1	; 0x1
0xf67e4e98:  1affffdf      bne	0xf67e4e1c

----------------
IN: 
0xf67e4e1c:  e1a08634      lsr	r8, r4, r6
0xf67e4e20:  e2660020      rsb	r0, r6, #32	; 0x20
0xf67e4e24:  e1888015      orr	r8, r8, r5, lsl r0
0xf67e4e28:  e246e020      sub	lr, r6, #32	; 0x20
0xf67e4e2c:  e1888e35      orr	r8, r8, r5, lsr lr
0xf67e4e30:  e3a03000      mov	r3, #0	; 0x0
0xf67e4e34:  e2082001      and	r2, r8, #1	; 0x1
0xf67e4e38:  e1921003      orrs	r1, r2, r3
0xf67e4e3c:  0a000013      beq	0xf67e4e90

----------------
IN: 
0xf67e4e40:  e1a0ee17      lsl	lr, r7, lr
0xf67e4e44:  e18e0037      orr	r0, lr, r7, lsr r0
0xf67e4e48:  e1a0e617      lsl	lr, r7, r6
0xf67e4e4c:  e51b303c      ldr	r3, [fp, #-60]
0xf67e4e50:  e50b0028      str	r0, [fp, #-40]
0xf67e4e54:  e0860106      add	r0, r6, r6, lsl #2
0xf67e4e58:  e0830080      add	r0, r3, r0, lsl #1
0xf67e4e5c:  e51bc034      ldr	ip, [fp, #-52]
0xf67e4e60:  e2800054      add	r0, r0, #84	; 0x54
0xf67e4e64:  e78c018a      str	r0, [ip, sl, lsl #3]
0xf67e4e68:  e50be02c      str	lr, [fp, #-44]
0xf67e4e6c:  eb0029c7      bl	0xf67ef590

----------------
IN: 
0xf67e4e70:  e24b202c      sub	r2, fp, #44	; 0x2c
0xf67e4e74:  e8920006      ldm	r2, {r1, r2}
0xf67e4e78:  e51bc034      ldr	ip, [fp, #-52]
0xf67e4e7c:  e0244001      eor	r4, r4, r1
0xf67e4e80:  e08c318a      add	r3, ip, sl, lsl #3
0xf67e4e84:  e0255002      eor	r5, r5, r2
0xf67e4e88:  e5830004      str	r0, [r3, #4]
0xf67e4e8c:  e28aa001      add	sl, sl, #1	; 0x1
0xf67e4e90:  e1942005      orrs	r2, r4, r5
0xf67e4e94:  e2866001      add	r6, r6, #1	; 0x1
0xf67e4e98:  1affffdf      bne	0xf67e4e1c

----------------
IN: 
0xf67e4e9c:  e1a0c00a      mov	ip, sl
0xf67e4ea0:  e28a3001      add	r3, sl, #1	; 0x1
0xf67e4ea4:  e51b6054      ldr	r6, [fp, #-84]
0xf67e4ea8:  e1a0418a      lsl	r4, sl, #3
0xf67e4eac:  e50b3054      str	r3, [fp, #-84]
0xf67e4eb0:  e51b5044      ldr	r5, [fp, #-68]
0xf67e4eb4:  e3550000      cmp	r5, #0	; 0x0
0xf67e4eb8:  0a000101      beq	0xf67e52c4

----------------
IN: 
0xf67e52c4:  e51b3054      ldr	r3, [fp, #-84]
0xf67e52c8:  e50bc054      str	ip, [fp, #-84]
0xf67e52cc:  eaffff04      b	0xf67e4ee4

----------------
IN: 
0xf67e4ee4:  e3a02003      mov	r2, #3	; 0x3
0xf67e4ee8:  e59f148c      ldr	r1, [pc, #1164]	; 0xf67e537c
0xf67e4eec:  e51b5034      ldr	r5, [fp, #-52]
0xf67e4ef0:  e51b7040      ldr	r7, [fp, #-64]
0xf67e4ef4:  e08f1001      add	r1, pc, r1
0xf67e4ef8:  e1560003      cmp	r6, r3
0xf67e4efc:  e0853004      add	r3, r5, r4
0xf67e4f00:  e7841187      str	r1, [r4, r7, lsl #3]
0xf67e4f04:  e5832004      str	r2, [r3, #4]
0xf67e4f08:  1a00010d      bne	0xf67e5344

----------------
IN: 
0xf67e4f0c:  e3560001      cmp	r6, #1	; 0x1
0xf67e4f10:  0a0000cc      beq	0xf67e5248

----------------
IN: 
0xf67e4f14:  e51bc054      ldr	ip, [fp, #-84]
0xf67e4f18:  e51b1034      ldr	r1, [fp, #-52]
0xf67e4f1c:  e28c4202      add	r4, ip, #536870912	; 0x20000000
0xf67e4f20:  e51b5034      ldr	r5, [fp, #-52]
0xf67e4f24:  e0811184      add	r1, r1, r4, lsl #3
0xf67e4f28:  e5913004      ldr	r3, [r1, #4]
0xf67e4f2c:  e595a004      ldr	sl, [r5, #4]
0xf67e4f30:  e50b1064      str	r1, [fp, #-100]
0xf67e4f34:  e3560002      cmp	r6, #2	; 0x2
0xf67e4f38:  e08a1003      add	r1, sl, r3
0xf67e4f3c:  e50b302c      str	r3, [fp, #-44]
0xf67e4f40:  e2810002      add	r0, r1, #2	; 0x2
0xf67e4f44:  9a000019      bls	0xf67e4fb0

----------------
IN: 
0xf67e4f48:  e3a0c001      mov	ip, #1	; 0x1
0xf67e4f4c:  e3a03002      mov	r3, #2	; 0x2
0xf67e4f50:  e1a01c10      lsl	r1, r0, ip
0xf67e4f54:  e1a0e005      mov	lr, r5
0xf67e4f58:  ea000001      b	0xf67e4f64

----------------
IN: 
0xf67e4f64:  e08e218c      add	r2, lr, ip, lsl #3
0xf67e4f68:  e5920004      ldr	r0, [r2, #4]
0xf67e4f6c:  e2832001      add	r2, r3, #1	; 0x1
0xf67e4f70:  e2800001      add	r0, r0, #1	; 0x1
0xf67e4f74:  e1560002      cmp	r6, r2
0xf67e4f78:  e0811000      add	r1, r1, r0
0xf67e4f7c:  1afffff6      bne	0xf67e4f5c

----------------
IN: 
0xf67e4f80:  e3560003      cmp	r6, #3	; 0x3
0xf67e4f84:  0a000006      beq	0xf67e4fa4

----------------
IN: 
0xf67e4fa4:  e51b8054      ldr	r8, [fp, #-84]
0xf67e4fa8:  e2483002      sub	r3, r8, #2	; 0x2
0xf67e4fac:  e1a00311      lsl	r0, r1, r3
0xf67e4fb0:  e3a05001      mov	r5, #1	; 0x1
0xf67e4fb4:  e1a07615      lsl	r7, r5, r6
0xf67e4fb8:  e50b704c      str	r7, [fp, #-76]
0xf67e4fbc:  e51b804c      ldr	r8, [fp, #-76]
0xf67e4fc0:  e51b9058      ldr	r9, [fp, #-88]
0xf67e4fc4:  e1a07187      lsl	r7, r7, #3
0xf67e4fc8:  e5898000      str	r8, [r9]
0xf67e4fcc:  e0800007      add	r0, r0, r7
0xf67e4fd0:  ebffc5ed      bl	0xf67d678c

----------------
IN: 
0xf67ed168:  e1a01002      mov	r1, r2
0xf67ed16c:  e593c004      ldr	ip, [r3, #4]
0xf67ed170:  e2403001      sub	r3, r0, #1	; 0x1
0xf67ed174:  e083300c      add	r3, r3, ip
0xf67ed178:  e2600000      rsb	r0, r0, #0	; 0x0
0xf67ed17c:  e0000003      and	r0, r0, r3
0xf67ed180:  e59f2100      ldr	r2, [pc, #256]	; 0xf67ed288
0xf67ed184:  e0803004      add	r3, r0, r4
0xf67ed188:  e08f2002      add	r2, pc, r2
0xf67ed18c:  e1530001      cmp	r3, r1
0xf67ed190:  e5820004      str	r0, [r2, #4]
0xf67ed194:  2a000002      bcs	0xf67ed1a4

----------------
IN: 
0xf67e4fd4:  e3500000      cmp	r0, #0	; 0x0
0xf67e4fd8:  e50b003c      str	r0, [fp, #-60]
0xf67e4fdc:  0a0000d2      beq	0xf67e532c

----------------
IN: 
0xf67e4fe0:  e51b903c      ldr	r9, [fp, #-60]
0xf67e4fe4:  e3560002      cmp	r6, #2	; 0x2
0xf67e4fe8:  e0890007      add	r0, r9, r7
0xf67e4fec:  e5890000      str	r0, [r9]
0xf67e4ff0:  e5890008      str	r0, [r9, #8]
0xf67e4ff4:  0a0000b5      beq	0xf67e52d0

----------------
IN: 
0xf67e4ff8:  e51b7054      ldr	r7, [fp, #-84]
0xf67e4ffc:  e51bc034      ldr	ip, [fp, #-52]

----------------
IN: 
0xf67e5000:  e1a08715      lsl	r8, r5, r7
0xf67e5004:  e3a0702f      mov	r7, #47	; 0x2f
0xf67e5008:  e79c4184      ldr	r4, [ip, r4, lsl #3]
0xf67e500c:  e59c3000      ldr	r3, [ip]
0xf67e5010:  e50b4044      str	r4, [fp, #-68]
0xf67e5014:  e51b4054      ldr	r4, [fp, #-84]
0xf67e5018:  e1a09005      mov	r9, r5
0xf67e501c:  e2444001      sub	r4, r4, #1	; 0x1
0xf67e5020:  e1a05008      mov	r5, r8
0xf67e5024:  e51b8064      ldr	r8, [fp, #-100]
0xf67e5028:  e50b3040      str	r3, [fp, #-64]
0xf67e502c:  e50b4048      str	r4, [fp, #-72]
0xf67e5030:  e50b6058      str	r6, [fp, #-88]
0xf67e5034:  e51b1044      ldr	r1, [fp, #-68]
0xf67e5038:  e51b202c      ldr	r2, [fp, #-44]
0xf67e503c:  eb002bdf      bl	0xf67effc0

----------------
IN: 
0xf67effc0:  e92d4010      push	{r4, lr}
0xf67effc4:  e1a04002      mov	r4, r2
0xf67effc8:  eb00000c      bl	0xf67f0000

----------------
IN: 
0xf67effcc:  e0800004      add	r0, r0, r4
0xf67effd0:  e8bd8010      pop	{r4, pc}

----------------
IN: 
0xf67e5040:  e1a06008      mov	r6, r8
0xf67e5044:  e51b4048      ldr	r4, [fp, #-72]
0xf67e5048:  e2455002      sub	r5, r5, #2	; 0x2
0xf67e504c:  e4c07001      strb	r7, [r0], #1
0xf67e5050:  ea000002      b	0xf67e5060

----------------
IN: 
0xf67e5060:  e015c419      ands	ip, r5, r9, lsl r4
0xf67e5064:  0afffffa      beq	0xf67e5054

----------------
IN: 
0xf67e5068:  e9160006      ldmdb	r6, {r1, r2}
0xf67e506c:  eb002bd3      bl	0xf67effc0

----------------
IN: 
0xf67f0064:  e491e004      ldr	lr, [r1], #4
0xf67f0068:  e08ff00c      add	pc, pc, ip

----------------
IN: 
0xf67f008c:  e480e004      str	lr, [r0], #4
0xf67f0090:  e8bd01e0      pop	{r5, r6, r7, r8}
0xf67f0094:  e1b02f82      lsls	r2, r2, #31
0xf67f0098:  14d13001      ldrbne	r3, [r1], #1
0xf67f009c:  24d14001      ldrbcs	r4, [r1], #1
0xf67f00a0:  25d1c000      ldrbcs	ip, [r1]
0xf67f00a4:  14c03001      strbne	r3, [r0], #1
0xf67f00a8:  24c04001      strbcs	r4, [r0], #1
0xf67f00ac:  25c0c000      strbcs	ip, [r0]
0xf67f00b0:  e8bd8011      pop	{r0, r4, pc}

----------------
IN: 
0xf67e5070:  e2544001      subs	r4, r4, #1	; 0x1
0xf67e5074:  e4c07001      strb	r7, [r0], #1
0xf67e5078:  e2466008      sub	r6, r6, #8	; 0x8
0xf67e507c:  1afffff7      bne	0xf67e5060

----------------
IN: 
0xf67e5080:  e51b1040      ldr	r1, [fp, #-64]
0xf67e5084:  e1a0200a      mov	r2, sl
0xf67e5088:  eb002bcc      bl	0xf67effc0

----------------
IN: 
0xf67e508c:  e3550000      cmp	r5, #0	; 0x0
0xf67e5090:  e4c07001      strb	r7, [r0], #1
0xf67e5094:  1affffe6      bne	0xf67e5034

----------------
IN: 
0xf67e5034:  e51b1044      ldr	r1, [fp, #-68]
0xf67e5038:  e51b202c      ldr	r2, [fp, #-44]
0xf67e503c:  eb002bdf      bl	0xf67effc0

----------------
IN: 
0xf67e5054:  e2544001      subs	r4, r4, #1	; 0x1
0xf67e5058:  e2466008      sub	r6, r6, #8	; 0x8
0xf67e505c:  0a000007      beq	0xf67e5080

----------------
IN: 
0xf67e5098:  e51b6058      ldr	r6, [fp, #-88]
0xf67e509c:  e3a03001      mov	r3, #1	; 0x1
0xf67e50a0:  e1b01613      lsls	r1, r3, r6
0xf67e50a4:  0a000008      beq	0xf67e50cc

----------------
IN: 
0xf67e50a8:  e3a03000      mov	r3, #0	; 0x0
0xf67e50ac:  e1a00003      mov	r0, r3
0xf67e50b0:  e51bc03c      ldr	ip, [fp, #-60]
0xf67e50b4:  e1a01181      lsl	r1, r1, #3
0xf67e50b8:  e08c2003      add	r2, ip, r3
0xf67e50bc:  e2833008      add	r3, r3, #8	; 0x8
0xf67e50c0:  e1530001      cmp	r3, r1
0xf67e50c4:  e5820004      str	r0, [r2, #4]
0xf67e50c8:  1afffffa      bne	0xf67e50b8

----------------
IN: 
0xf67e50b8:  e08c2003      add	r2, ip, r3
0xf67e50bc:  e2833008      add	r3, r3, #8	; 0x8
0xf67e50c0:  e1530001      cmp	r3, r1
0xf67e50c4:  e5820004      str	r0, [r2, #4]
0xf67e50c8:  1afffffa      bne	0xf67e50b8

----------------
IN: 
0xf67e50cc:  e3a0e001      mov	lr, #1	; 0x1
0xf67e50d0:  e51b4034      ldr	r4, [fp, #-52]
0xf67e50d4:  e51b703c      ldr	r7, [fp, #-60]
0xf67e50d8:  e51b504c      ldr	r5, [fp, #-76]
0xf67e50dc:  e084c186      add	ip, r4, r6, lsl #3
0xf67e50e0:  e3550000      cmp	r5, #0	; 0x0
0xf67e50e4:  e2466001      sub	r6, r6, #1	; 0x1
0xf67e50e8:  e1a0161e      lsl	r1, lr, r6
0xf67e50ec:  11a03005      movne	r3, r5
0xf67e50f0:  12872008      addne	r2, r7, #8	; 0x8
0xf67e50f4:  0a00000e      beq	0xf67e5134

----------------
IN: 
0xf67e50f8:  e2433001      sub	r3, r3, #1	; 0x1
0xf67e50fc:  e1110003      tst	r1, r3
0xf67e5100:  0a000008      beq	0xf67e5128

----------------
IN: 
0xf67e5104:  e51c0004      ldr	r0, [ip, #-4]
0xf67e5108:  e5124004      ldr	r4, [r2, #-4]
0xf67e510c:  e2800001      add	r0, r0, #1	; 0x1
0xf67e5110:  e2433001      sub	r3, r3, #1	; 0x1
0xf67e5114:  e0840000      add	r0, r4, r0
0xf67e5118:  e1110003      tst	r1, r3
0xf67e511c:  e5020004      str	r0, [r2, #-4]
0xf67e5120:  e2822008      add	r2, r2, #8	; 0x8
0xf67e5124:  1afffff6      bne	0xf67e5104

----------------
IN: 
0xf67e5128:  e3530000      cmp	r3, #0	; 0x0
0xf67e512c:  e2822008      add	r2, r2, #8	; 0x8
0xf67e5130:  1afffff0      bne	0xf67e50f8

----------------
IN: 
0xf67e5134:  e3560000      cmp	r6, #0	; 0x0
0xf67e5138:  e24cc008      sub	ip, ip, #8	; 0x8
0xf67e513c:  1affffe7      bne	0xf67e50e0

----------------
IN: 
0xf67e50e0:  e3550000      cmp	r5, #0	; 0x0
0xf67e50e4:  e2466001      sub	r6, r6, #1	; 0x1
0xf67e50e8:  e1a0161e      lsl	r1, lr, r6
0xf67e50ec:  11a03005      movne	r3, r5
0xf67e50f0:  12872008      addne	r2, r7, #8	; 0x8
0xf67e50f4:  0a00000e      beq	0xf67e5134

----------------
IN: 
0xf67e5140:  e3a0e001      mov	lr, #1	; 0x1
0xf67e5144:  e51b3054      ldr	r3, [fp, #-84]
0xf67e5148:  e51b404c      ldr	r4, [fp, #-76]
0xf67e514c:  e1a0e31e      lsl	lr, lr, r3
0xf67e5150:  e51b503c      ldr	r5, [fp, #-60]
0xf67e5154:  e2443002      sub	r3, r4, #2	; 0x2
0xf67e5158:  e153000e      cmp	r3, lr
0xf67e515c:  e2852010      add	r2, r5, #16	; 0x10
0xf67e5160:  0a000016      beq	0xf67e51c0

----------------
IN: 
0xf67e5164:  e1a06005      mov	r6, r5
0xf67e5168:  e1a00002      mov	r0, r2
0xf67e516c:  e1a04006      mov	r4, r6
0xf67e5170:  e2851018      add	r1, r5, #24	; 0x18
0xf67e5174:  e2855008      add	r5, r5, #8	; 0x8
0xf67e5178:  e2433001      sub	r3, r3, #1	; 0x1
0xf67e517c:  e064c000      rsb	ip, r4, r0
0xf67e5180:  e3130001      tst	r3, #1	; 0x1
0xf67e5184:  108cc006      addne	ip, ip, r6
0xf67e5188:  151c7010      ldrne	r7, [ip, #-16]
0xf67e518c:  008cc005      addeq	ip, ip, r5
0xf67e5190:  151cc00c      ldrne	ip, [ip, #-12]
0xf67e5194:  051cc010      ldreq	ip, [ip, #-16]
0xf67e5198:  1087c00c      addne	ip, r7, ip
0xf67e519c:  e153000e      cmp	r3, lr
0xf67e51a0:  e501c008      str	ip, [r1, #-8]
0xf67e51a4:  e2800008      add	r0, r0, #8	; 0x8
0xf67e51a8:  e2811008      add	r1, r1, #8	; 0x8
0xf67e51ac:  1afffff1      bne	0xf67e5178

----------------
IN: 
0xf67e5178:  e2433001      sub	r3, r3, #1	; 0x1
0xf67e517c:  e064c000      rsb	ip, r4, r0
0xf67e5180:  e3130001      tst	r3, #1	; 0x1
0xf67e5184:  108cc006      addne	ip, ip, r6
0xf67e5188:  151c7010      ldrne	r7, [ip, #-16]
0xf67e518c:  008cc005      addeq	ip, ip, r5
0xf67e5190:  151cc00c      ldrne	ip, [ip, #-12]
0xf67e5194:  051cc010      ldreq	ip, [ip, #-16]
0xf67e5198:  1087c00c      addne	ip, r7, ip
0xf67e519c:  e153000e      cmp	r3, lr
0xf67e51a0:  e501c008      str	ip, [r1, #-8]
0xf67e51a4:  e2800008      add	r0, r0, #8	; 0x8
0xf67e51a8:  e2811008      add	r1, r1, #8	; 0x8
0xf67e51ac:  1afffff1      bne	0xf67e5178

----------------
IN: 
0xf67e51b0:  e51b704c      ldr	r7, [fp, #-76]
0xf67e51b4:  e247122e      sub	r1, r7, #-536870910	; 0xe0000002
0xf67e51b8:  e0631001      rsb	r1, r3, r1
0xf67e51bc:  e0822181      add	r2, r2, r1, lsl #3
0xf67e51c0:  e3e0c007      mvn	ip, #7	; 0x7
0xf67e51c4:  e51b8054      ldr	r8, [fp, #-84]
0xf67e51c8:  e51b902c      ldr	r9, [fp, #-44]
0xf67e51cc:  e1a0c81c      lsl	ip, ip, r8
0xf67e51d0:  e2890001      add	r0, r9, #1	; 0x1
0xf67e51d4:  e792100c      ldr	r1, [r2, ip]
0xf67e51d8:  e2533001      subs	r3, r3, #1	; 0x1
0xf67e51dc:  e0811000      add	r1, r1, r0
0xf67e51e0:  e4821008      str	r1, [r2], #8
0xf67e51e4:  1afffffa      bne	0xf67e51d4

----------------
IN: 
0xf67e51d4:  e792100c      ldr	r1, [r2, ip]
0xf67e51d8:  e2533001      subs	r3, r3, #1	; 0x1
0xf67e51dc:  e0811000      add	r1, r1, r0
0xf67e51e0:  e4821008      str	r1, [r2], #8
0xf67e51e4:  1afffffa      bne	0xf67e51d4

----------------
IN: 
0xf67e51e8:  e51bc03c      ldr	ip, [fp, #-60]
0xf67e51ec:  e51b405c      ldr	r4, [fp, #-92]
0xf67e51f0:  e1a0000c      mov	r0, ip
0xf67e51f4:  e59c3004      ldr	r3, [ip, #4]
0xf67e51f8:  e5843000      str	r3, [r4]
0xf67e51fc:  e24bd020      sub	sp, fp, #32	; 0x20
0xf67e5200:  e8bd8ff0      pop	{r4, r5, r6, r7, r8, r9, sl, fp, pc}

----------------
IN: 
0xf67de734:  e586000c      str	r0, [r6, #12]
0xf67de738:  e3a00014      mov	r0, #20	; 0x14
0xf67de73c:  ebffe012      bl	0xf67d678c

----------------
IN: 
0xf67de740:  e3500000      cmp	r0, #0	; 0x0
0xf67de744:  e1a05000      mov	r5, r0
0xf67de748:  e5860010      str	r0, [r6, #16]
0xf67de74c:  0a0000ef      beq	0xf67deb10

----------------
IN: 
0xf67de750:  e5964008      ldr	r4, [r6, #8]
0xf67de754:  e59f342c      ldr	r3, [pc, #1068]	; 0xf67deb88
0xf67de758:  e1a08104      lsl	r8, r4, #2
0xf67de75c:  e2888027      add	r8, r8, #39	; 0x27
0xf67de760:  e0882893      umull	r2, r8, r3, r8
0xf67de764:  e1a08228      lsr	r8, r8, #4
0xf67de768:  e0888108      add	r8, r8, r8, lsl #2
0xf67de76c:  e0880208      add	r0, r8, r8, lsl #4
0xf67de770:  e1a00200      lsl	r0, r0, #4
0xf67de774:  ebffe004      bl	0xf67d678c

----------------
IN: 
0xf67ed1a4:  e59f30e0      ldr	r3, [pc, #224]	; 0xf67ed28c
0xf67ed1a8:  e08f3003      add	r3, pc, r3
0xf67ed1ac:  e5932010      ldr	r2, [r3, #16]
0xf67ed1b0:  e2421001      sub	r1, r2, #1	; 0x1
0xf67ed1b4:  e0811004      add	r1, r1, r4
0xf67ed1b8:  e2623000      rsb	r3, r2, #0	; 0x0
0xf67ed1bc:  e0115003      ands	r5, r1, r3
0xf67ed1c0:  0a00002a      beq	0xf67ed270

----------------
IN: 
0xf67ed1c4:  e3e03000      mvn	r3, #0	; 0x0
0xf67ed1c8:  e3a00000      mov	r0, #0	; 0x0
0xf67ed1cc:  e58d3000      str	r3, [sp]
0xf67ed1d0:  e58d0004      str	r0, [sp, #4]
0xf67ed1d4:  e3a03022      mov	r3, #34	; 0x22
0xf67ed1d8:  e1a01005      mov	r1, r5
0xf67ed1dc:  e3a02003      mov	r2, #3	; 0x3
0xf67ed1e0:  eb00078e      bl	0xf67ef020

----------------
IN: 
0xf67ef020:  e52d5004      push	{r5}		; (str r5, [sp, #-4]!)
0xf67ef024:  e59d5008      ldr	r5, [sp, #8]
0xf67ef028:  e52d4004      push	{r4}		; (str r4, [sp, #-4]!)
0xf67ef02c:  e59d4008      ldr	r4, [sp, #8]
0xf67ef030:  e1b0ca05      lsls	ip, r5, #20
0xf67ef034:  1a000009      bne	0xf67ef060

----------------
IN: 
0xf67ef038:  e1a05625      lsr	r5, r5, #12
0xf67ef03c:  e52d7004      push	{r7}		; (str r7, [sp, #-4]!)
0xf67ef040:  e3a070c0      mov	r7, #192	; 0xc0
0xf67ef044:  ef000000      svc	0x00000000

----------------
IN: 
0xf67ef048:  e49d7004      pop	{r7}		; (ldr r7, [sp], #4)
0xf67ef04c:  e49d4004      pop	{r4}		; (ldr r4, [sp], #4)
0xf67ef050:  e49d5004      pop	{r5}		; (ldr r5, [sp], #4)
0xf67ef054:  e3700a01      cmn	r0, #4096	; 0x1000
0xf67ef058:  312fff1e      bxcc	lr

----------------
IN: 
0xf67ed1e4:  e3700001      cmn	r0, #1	; 0x1
0xf67ed1e8:  e1a03000      mov	r3, r0
0xf67ed1ec:  0a000022      beq	0xf67ed27c

----------------
IN: 
0xf67ed1f0:  e59f2098      ldr	r2, [pc, #152]	; 0xf67ed290
0xf67ed1f4:  e08f2002      add	r2, pc, r2
0xf67ed1f8:  e5921000      ldr	r1, [r2]
0xf67ed1fc:  e1500001      cmp	r0, r1
0xf67ed200:  11a00003      movne	r0, r3
0xf67ed204:  05920004      ldreq	r0, [r2, #4]
0xf67ed208:  e59f2084      ldr	r2, [pc, #132]	; 0xf67ed294
0xf67ed20c:  e0833005      add	r3, r3, r5
0xf67ed210:  e08f2002      add	r2, pc, r2
0xf67ed214:  e0804004      add	r4, r0, r4
0xf67ed218:  e5823000      str	r3, [r2]
0xf67ed21c:  e59f3074      ldr	r3, [pc, #116]	; 0xf67ed298
0xf67ed220:  e08f3003      add	r3, pc, r3
0xf67ed224:  e5830008      str	r0, [r3, #8]
0xf67ed228:  e5834004      str	r4, [r3, #4]
0xf67ed22c:  e28dd00c      add	sp, sp, #12	; 0xc
0xf67ed230:  e8bd8030      pop	{r4, r5, pc}

----------------
IN: 
0xf67de778:  e3500000      cmp	r0, #0	; 0x0
0xf67de77c:  e1a0c000      mov	ip, r0
0xf67de780:  e5850000      str	r0, [r5]
0xf67de784:  0a0000db      beq	0xf67deaf8

----------------
IN: 
0xf67de788:  e3a02000      mov	r2, #0	; 0x0
0xf67de78c:  e3a0a017      mov	sl, #23	; 0x17
0xf67de790:  e1a03002      mov	r3, r2
0xf67de794:  e59f93f0      ldr	r9, [pc, #1008]	; 0xf67deb8c
0xf67de798:  e59fe3f0      ldr	lr, [pc, #1008]	; 0xf67deb90
0xf67de79c:  e59f03f0      ldr	r0, [pc, #1008]	; 0xf67deb94
0xf67de7a0:  e59f13f0      ldr	r1, [pc, #1008]	; 0xf67deb98
0xf67de7a4:  e08f0000      add	r0, pc, r0
0xf67de7a8:  e08f9009      add	r9, pc, r9
0xf67de7ac:  e08fe00e      add	lr, pc, lr
0xf67de7b0:  e5862014      str	r2, [r6, #20]
0xf67de7b4:  e58ca010      str	sl, [ip, #16]
0xf67de7b8:  e589c510      str	ip, [r9, #1296]
0xf67de7bc:  e58c000c      str	r0, [ip, #12]
0xf67de7c0:  e2809044      add	r9, r0, #68	; 0x44
0xf67de7c4:  e08f1001      add	r1, pc, r1
0xf67de7c8:  e1a08108      lsl	r8, r8, #2
0xf67de7cc:  e58c2008      str	r2, [ip, #8]
0xf67de7d0:  e58ce004      str	lr, [ip, #4]
0xf67de7d4:  e2800018      add	r0, r0, #24	; 0x18
0xf67de7d8:  e2856004      add	r6, r5, #4	; 0x4
0xf67de7dc:  e285a010      add	sl, r5, #16	; 0x10
0xf67de7e0:  e3540000      cmp	r4, #0	; 0x0
0xf67de7e4:  11a0e00c      movne	lr, ip
0xf67de7e8:  13a02000      movne	r2, #0	; 0x0
0xf67de7ec:  0a000004      beq	0xf67de804

----------------
IN: 
0xf67de7f0:  e2822001      add	r2, r2, #1	; 0x1
0xf67de7f4:  e1520004      cmp	r2, r4
0xf67de7f8:  e58e3014      str	r3, [lr, #20]
0xf67de7fc:  e28ee004      add	lr, lr, #4	; 0x4
0xf67de800:  1afffffa      bne	0xf67de7f0

----------------
IN: 
0xf67de804:  e156000a      cmp	r6, sl
0xf67de808:  0a000010      beq	0xf67de850

----------------
IN: 
0xf67de80c:  e1a0e006      mov	lr, r6
0xf67de810:  e08c2008      add	r2, ip, r8
0xf67de814:  e5b95004      ldr	r5, [r9, #4]!
0xf67de818:  e58c2000      str	r2, [ip]
0xf67de81c:  e48e2004      str	r2, [lr], #4
0xf67de820:  e982000a      stmib	r2, {r1, r3}
0xf67de824:  e582000c      str	r0, [r2, #12]
0xf67de828:  e5825010      str	r5, [r2, #16]
0xf67de82c:  e5d0c000      ldrb	ip, [r0]
0xf67de830:  e2855001      add	r5, r5, #1	; 0x1
0xf67de834:  e35c002f      cmp	ip, #47	; 0x2f
0xf67de838:  e0800005      add	r0, r0, r5
0xf67de83c:  1a0000a5      bne	0xf67dead8

----------------
IN: 
0xf67de840:  e1a05006      mov	r5, r6
0xf67de844:  e1a0c002      mov	ip, r2
0xf67de848:  e1a0600e      mov	r6, lr
0xf67de84c:  eaffffe3      b	0xf67de7e0

----------------
IN: 
0xf67de7e0:  e3540000      cmp	r4, #0	; 0x0
0xf67de7e4:  11a0e00c      movne	lr, ip
0xf67de7e8:  13a02000      movne	r2, #0	; 0x0
0xf67de7ec:  0a000004      beq	0xf67de804

----------------
IN: 
0xf67de850:  e3a06000      mov	r6, #0	; 0x0
0xf67de854:  e3a0201b      mov	r2, #27	; 0x1b
0xf67de858:  e59f133c      ldr	r1, [pc, #828]	; 0xf67deb9c
0xf67de85c:  e59f333c      ldr	r3, [pc, #828]	; 0xf67deba0
0xf67de860:  e08f1001      add	r1, pc, r1
0xf67de864:  e5914000      ldr	r4, [r1]
0xf67de868:  e08f3003      add	r3, pc, r3
0xf67de86c:  e1540006      cmp	r4, r6
0xf67de870:  e58c6000      str	r6, [ip]
0xf67de874:  e5832000      str	r2, [r3]
0xf67de878:  e5856004      str	r6, [r5, #4]
0xf67de87c:  0a000012      beq	0xf67de8cc

----------------
IN: 
0xf67de880:  e5d43194      ldrb	r3, [r4, #404]
0xf67de884:  e2033003      and	r3, r3, #3	; 0x3
0xf67de888:  e3530002      cmp	r3, #2	; 0x2
0xf67de88c:  0a000089      beq	0xf67deab8

----------------
IN: 
0xf67de890:  e5945094      ldr	r5, [r4, #148]
0xf67de894:  e3550000      cmp	r5, #0	; 0x0
0xf67de898:  0a00004e      beq	0xf67de9d8

----------------
IN: 
0xf67de9d8:  e3e02000      mvn	r2, #0	; 0x0
0xf67de9dc:  e594305c      ldr	r3, [r4, #92]
0xf67de9e0:  e58421e8      str	r2, [r4, #488]
0xf67de9e4:  e3530000      cmp	r3, #0	; 0x0
0xf67de9e8:  05842198      streq	r2, [r4, #408]
0xf67de9ec:  0affffb6      beq	0xf67de8cc

----------------
IN: 
0xf67de8cc:  e3570000      cmp	r7, #0	; 0x0
0xf67de8d0:  0a00003a      beq	0xf67de9c0

----------------
IN: 
0xf67de9c0:  e3e02000      mvn	r2, #0	; 0x0
0xf67de9c4:  e59f31f0      ldr	r3, [pc, #496]	; 0xf67debbc
0xf67de9c8:  e08f3003      add	r3, pc, r3
0xf67de9cc:  e5832018      str	r2, [r3, #24]
0xf67de9d0:  e24bd020      sub	sp, fp, #32	; 0x20
0xf67de9d4:  e8bd8ff0      pop	{r4, r5, r6, r7, r8, r9, sl, fp, pc}

----------------
IN: 
0xf67d8c04:  e5940518      ldr	r0, [r4, #1304]
0xf67d8c08:  e3a01000      mov	r1, #0	; 0x0
0xf67d8c0c:  eb00378f      bl	0xf67e6a50

----------------
IN: 
0xf67e6a50:  e59f30a0      ldr	r3, [pc, #160]	; 0xf67e6af8
0xf67e6a54:  e3510000      cmp	r1, #0	; 0x0
0xf67e6a58:  e1a02000      mov	r2, r0
0xf67e6a5c:  e08f3003      add	r3, pc, r3
0xf67e6a60:  0a000017      beq	0xf67e6ac4

----------------
IN: 
0xf67e6ac4:  e59f003c      ldr	r0, [pc, #60]	; 0xf67e6b08
0xf67e6ac8:  e7930000      ldr	r0, [r3, r0]
0xf67e6acc:  e590c004      ldr	ip, [r0, #4]
0xf67e6ad0:  e35c0000      cmp	ip, #0	; 0x0
0xf67e6ad4:  1affffec      bne	0xf67e6a8c

----------------
IN: 
0xf67e6ad8:  e3a0c001      mov	ip, #1	; 0x1
0xf67e6adc:  e3520000      cmp	r2, #0	; 0x0
0xf67e6ae0:  e580c000      str	ip, [r0]
0xf67e6ae4:  059f201c      ldreq	r2, [pc, #28]	; 0xf67e6b08
0xf67e6ae8:  07933002      ldreq	r3, [r3, r2]
0xf67e6aec:  05932010      ldreq	r2, [r3, #16]
0xf67e6af0:  eaffffe9      b	0xf67e6a9c

----------------
IN: 
0xf67e6a9c:  e59f305c      ldr	r3, [pc, #92]	; 0xf67e6b00
0xf67e6aa0:  e081c181      add	ip, r1, r1, lsl #3
0xf67e6aa4:  e08f3003      add	r3, pc, r3
0xf67e6aa8:  e081108c      add	r1, r1, ip, lsl #1
0xf67e6aac:  e7931101      ldr	r1, [r3, r1, lsl #2]
0xf67e6ab0:  e59f304c      ldr	r3, [pc, #76]	; 0xf67e6b04
0xf67e6ab4:  e5802010      str	r2, [r0, #16]
0xf67e6ab8:  e08f3003      add	r3, pc, r3
0xf67e6abc:  e980000a      stmib	r0, {r1, r3}
0xf67e6ac0:  e12fff1e      bx	lr

----------------
IN: 
0xf67d8c10:  e3a02000      mov	r2, #0	; 0x0
0xf67d8c14:  e594351c      ldr	r3, [r4, #1308]
0xf67d8c18:  e51f1974      ldr	r1, [pc, #-2420]	; 0xf67d82ac
0xf67d8c1c:  e1530002      cmp	r3, r2
0xf67d8c20:  05943534      ldreq	r3, [r4, #1332]
0xf67d8c24:  e51fc97c      ldr	ip, [pc, #-2428]	; 0xf67d82b0
0xf67d8c28:  05933000      ldreq	r3, [r3]
0xf67d8c2c:  e08f1001      add	r1, pc, r1
0xf67d8c30:  e580200c      str	r2, [r0, #12]
0xf67d8c34:  e08fc00c      add	ip, pc, ip
0xf67d8c38:  0584351c      streq	r3, [r4, #1308]
0xf67d8c3c:  e5d146ac      ldrb	r4, [r1, #1708]
0xf67d8c40:  e591e004      ldr	lr, [r1, #4]
0xf67d8c44:  e59c511c      ldr	r5, [ip, #284]
0xf67d8c48:  e59124f8      ldr	r2, [r1, #1272]
0xf67d8c4c:  e59134fc      ldr	r3, [r1, #1276]
0xf67d8c50:  e50b005c      str	r0, [fp, #-92]
0xf67d8c54:  e2922001      adds	r2, r2, #1	; 0x1
0xf67d8c58:  e3c44002      bic	r4, r4, #2	; 0x2
0xf67d8c5c:  e2810e51      add	r0, r1, #1296	; 0x510
0xf67d8c60:  e2a33000      adc	r3, r3, #0	; 0x0
0xf67d8c64:  e3844001      orr	r4, r4, #1	; 0x1
0xf67d8c68:  e28ee001      add	lr, lr, #1	; 0x1
0xf67d8c6c:  e2800008      add	r0, r0, #8	; 0x8
0xf67d8c70:  e3750002      cmn	r5, #2	; 0x2
0xf67d8c74:  e5c146ac      strb	r4, [r1, #1708]
0xf67d8c78:  e581e004      str	lr, [r1, #4]
0xf67d8c7c:  e58a000c      str	r0, [sl, #12]
0xf67d8c80:  e581a528      str	sl, [r1, #1320]
0xf67d8c84:  e58124f8      str	r2, [r1, #1272]
0xf67d8c88:  e58134fc      str	r3, [r1, #1276]
0xf67d8c8c:  1a000004      bne	0xf67d8ca4

----------------
IN: 
0xf67d8c90:  e59a3000      ldr	r3, [sl]
0xf67d8c94:  e3530000      cmp	r3, #0	; 0x0
0xf67d8c98:  13a03000      movne	r3, #0	; 0x0
0xf67d8c9c:  03e03000      mvneq	r3, #0	; 0x0
0xf67d8ca0:  e58c311c      str	r3, [ip, #284]
0xf67d8ca4:  e3a04e67      mov	r4, #1648	; 0x670
0xf67d8ca8:  e3a00000      mov	r0, #0	; 0x0
0xf67d8cac:  e51f2a00      ldr	r2, [pc, #-2560]	; 0xf67d82b4
0xf67d8cb0:  e51fca00      ldr	ip, [pc, #-2560]	; 0xf67d82b8
0xf67d8cb4:  e08f2002      add	r2, pc, r2
0xf67d8cb8:  e59236c4      ldr	r3, [r2, #1732]
0xf67d8cbc:  e593e01c      ldr	lr, [r3, #28]
0xf67d8cc0:  e1d312bc      ldrh	r1, [r3, #44]
0xf67d8cc4:  e083300e      add	r3, r3, lr
0xf67d8cc8:  e241e37e      sub	lr, r1, #-134217727	; 0xf8000001
0xf67d8ccc:  e5823668      str	r3, [r2, #1640]
0xf67d8cd0:  e18210b4      strh	r1, [r2, r4]
0xf67d8cd4:  e083328e      add	r3, r3, lr, lsl #5
0xf67d8cd8:  e1500001      cmp	r0, r1
0xf67d8cdc:  0a00000a      beq	0xf67d8d0c

----------------
IN: 
0xf67d8ce0:  e1a02003      mov	r2, r3
0xf67d8ce4:  e413e020      ldr	lr, [r3], #-32
0xf67d8ce8:  e2800001      add	r0, r0, #1	; 0x1
0xf67d8cec:  e15e000c      cmp	lr, ip
0xf67d8cf0:  1afffff8      bne	0xf67d8cd8

----------------
IN: 
0xf67d8cf4:  e51f3a40      ldr	r3, [pc, #-2624]	; 0xf67d82bc
0xf67d8cf8:  e5921008      ldr	r1, [r2, #8]
0xf67d8cfc:  e5922014      ldr	r2, [r2, #20]
0xf67d8d00:  e08f3003      add	r3, pc, r3
0xf67d8d04:  e5831760      str	r1, [r3, #1888]
0xf67d8d08:  e5832764      str	r2, [r3, #1892]
0xf67d8d0c:  e51f4a54      ldr	r4, [pc, #-2644]	; 0xf67d82c0
0xf67d8d10:  e08f4004      add	r4, pc, r4
0xf67d8d14:  e5943748      ldr	r3, [r4, #1864]
0xf67d8d18:  e3530000      cmp	r3, #0	; 0x0
0xf67d8d1c:  0a000001      beq	0xf67d8d28

----------------
IN: 
0xf67d8d28:  e51f3a6c      ldr	r3, [pc, #-2668]	; 0xf67d82c4
0xf67d8d2c:  e08f3003      add	r3, pc, r3
0xf67d8d30:  e5933004      ldr	r3, [r3, #4]
0xf67d8d34:  e3530000      cmp	r3, #0	; 0x0
0xf67d8d38:  050b3054      streq	r3, [fp, #-84]
0xf67d8d3c:  1a0004d2      bne	0xf67da08c

----------------
IN: 
0xf67d8d40:  e59a3074      ldr	r3, [sl, #116]
0xf67d8d44:  e51b805c      ldr	r8, [fp, #-92]
0xf67d8d48:  e3530000      cmp	r3, #0	; 0x0
0xf67d8d4c:  151b405c      ldrne	r4, [fp, #-92]
0xf67d8d50:  15834004      strne	r4, [r3, #4]
0xf67d8d54:  e51f3a94      ldr	r3, [pc, #-2708]	; 0xf67d82c8
0xf67d8d58:  e08f3003      add	r3, pc, r3
0xf67d8d5c:  e593358c      ldr	r3, [r3, #1420]
0xf67d8d60:  e3530000      cmp	r3, #0	; 0x0
0xf67d8d64:  151b605c      ldrne	r6, [fp, #-92]
0xf67d8d68:  15836004      strne	r6, [r3, #4]
0xf67d8d6c:  e3a03001      mov	r3, #1	; 0x1
0xf67d8d70:  e588300c      str	r3, [r8, #12]
0xf67d8d74:  eb003734      bl	0xf67e6a4c

----------------
IN: 
0xf67e6a4c:  e12fff1e      bx	lr

----------------
IN: 
0xf67d8d78:  e51f3ab4      ldr	r3, [pc, #-2740]	; 0xf67d82cc
0xf67d8d7c:  e08f3003      add	r3, pc, r3
0xf67d8d80:  e5932174      ldr	r2, [r3, #372]
0xf67d8d84:  e3520000      cmp	r2, #0	; 0x0
0xf67d8d88:  1a0004ae      bne	0xf67da048

----------------
IN: 
0xf67d8d8c:  e51bc058      ldr	ip, [fp, #-88]
0xf67d8d90:  e59c5000      ldr	r5, [ip]
0xf67d8d94:  e3550000      cmp	r5, #0	; 0x0
0xf67d8d98:  1a00049d      bne	0xf67da014

----------------
IN: 
0xf67d8d9c:  e51f3ad4      ldr	r3, [pc, #-2772]	; 0xf67d82d0
0xf67d8da0:  e08f3003      add	r3, pc, r3
0xf67d8da4:  e5934010      ldr	r4, [r3, #16]
0xf67d8da8:  e3540000      cmp	r4, #0	; 0x0
0xf67d8dac:  01a05004      moveq	r5, r4
0xf67d8db0:  1a000475      bne	0xf67d9f8c

----------------
IN: 
0xf67d8db4:  e51f4ae8      ldr	r4, [pc, #-2792]	; 0xf67d82d4
0xf67d8db8:  e3a01004      mov	r1, #4	; 0x4
0xf67d8dbc:  e08f4004      add	r4, pc, r4
0xf67d8dc0:  e1a00004      mov	r0, r4
0xf67d8dc4:  eb00585d      bl	0xf67eef40

----------------
IN: 
0xf67d8dc8:  e3500000      cmp	r0, #0	; 0x0
0xf67d8dcc:  0a000065      beq	0xf67d8f68

----------------
IN: 
0xf67d8dd0:  e51b4058      ldr	r4, [fp, #-88]
0xf67d8dd4:  e5943000      ldr	r3, [r4]
0xf67d8dd8:  e3530000      cmp	r3, #0	; 0x0
0xf67d8ddc:  01a01003      moveq	r1, r3
0xf67d8de0:  1a00004a      bne	0xf67d8f10

----------------
IN: 
0xf67d8de4:  e51b8050      ldr	r8, [fp, #-80]
0xf67d8de8:  e3a03000      mov	r3, #0	; 0x0
0xf67d8dec:  e2486003      sub	r6, r8, #3	; 0x3
0xf67d8df0:  e16f6f16      clz	r6, r6
0xf67d8df4:  e1a062a6      lsr	r6, r6, #5
0xf67d8df8:  e58d3000      str	r3, [sp]
0xf67d8dfc:  e1a02005      mov	r2, r5
0xf67d8e00:  e1a03006      mov	r3, r6
0xf67d8e04:  e1a0000a      mov	r0, sl
0xf67d8e08:  eb002acc      bl	0xf67e3940

----------------
IN: 
0xf67e3940:  e92d4ff0      push	{r4, r5, r6, r7, r8, r9, sl, fp, lr}
0xf67e3944:  e3a05000      mov	r5, #0	; 0x0
0xf67e3948:  e28db020      add	fp, sp, #32	; 0x20
0xf67e394c:  e24dd07c      sub	sp, sp, #124	; 0x7c
0xf67e3950:  e50b0064      str	r0, [fp, #-100]
0xf67e3954:  e51b4064      ldr	r4, [fp, #-100]
0xf67e3958:  e082e082      add	lr, r2, r2, lsl #1
0xf67e395c:  e1a0e10e      lsl	lr, lr, #2
0xf67e3960:  e5d4c194      ldrb	ip, [r4, #404]
0xf67e3964:  e28e0026      add	r0, lr, #38	; 0x26
0xf67e3968:  e3c00007      bic	r0, r0, #7	; 0x7
0xf67e396c:  e04dd000      sub	sp, sp, r0
0xf67e3970:  e3ccc040      bic	ip, ip, #64	; 0x40
0xf67e3974:  e51b0064      ldr	r0, [fp, #-100]
0xf67e3978:  e28d9008      add	r9, sp, #8	; 0x8
0xf67e397c:  e28d4014      add	r4, sp, #20	; 0x14
0xf67e3980:  e38cc020      orr	ip, ip, #32	; 0x20
0xf67e3984:  e1520005      cmp	r2, r5
0xf67e3988:  e58d000c      str	r0, [sp, #12]
0xf67e398c:  e58d4010      str	r4, [sp, #16]
0xf67e3990:  e58d5008      str	r5, [sp, #8]
0xf67e3994:  e50b906c      str	r9, [fp, #-108]
0xf67e3998:  e50b3070      str	r3, [fp, #-112]
0xf67e399c:  e5c0c194      strb	ip, [r0, #404]
0xf67e39a0:  0a0002ac      beq	0xf67e4458

----------------
IN: 
0xf67e4458:  e3a09001      mov	r9, #1	; 0x1
0xf67e445c:  e1a0e002      mov	lr, r2
0xf67e4460:  e51ba064      ldr	sl, [fp, #-100]
0xf67e4464:  e50b9058      str	r9, [fp, #-88]
0xf67e4468:  eafffd5e      b	0xf67e39e8

----------------
IN: 
0xf67e39e8:  e3a03000      mov	r3, #0	; 0x0
0xf67e39ec:  e59f2fcc      ldr	r2, [pc, #4044]	; 0xf67e49c0
0xf67e39f0:  e51b406c      ldr	r4, [fp, #-108]
0xf67e39f4:  e08f2002      add	r2, pc, r2
0xf67e39f8:  e5929000      ldr	r9, [r2]
0xf67e39fc:  e59f0fc0      ldr	r0, [pc, #4032]	; 0xf67e49c4
0xf67e3a00:  e59f1fc0      ldr	r1, [pc, #4032]	; 0xf67e49c8
0xf67e3a04:  e50b9084      str	r9, [fp, #-132]
0xf67e3a08:  e51b906c      ldr	r9, [fp, #-108]
0xf67e3a0c:  e084e00e      add	lr, r4, lr
0xf67e3a10:  e08f0000      add	r0, pc, r0
0xf67e3a14:  e08f1001      add	r1, pc, r1
0xf67e3a18:  e50b905c      str	r9, [fp, #-92]
0xf67e3a1c:  e59f4fa8      ldr	r4, [pc, #4008]	; 0xf67e49cc
0xf67e3a20:  e59f9fa8      ldr	r9, [pc, #4008]	; 0xf67e49d0
0xf67e3a24:  e2800e51      add	r0, r0, #1296	; 0x510
0xf67e3a28:  e2811e51      add	r1, r1, #1296	; 0x510
0xf67e3a2c:  e2800008      add	r0, r0, #8	; 0x8
0xf67e3a30:  e2811008      add	r1, r1, #8	; 0x8
0xf67e3a34:  e08f4004      add	r4, pc, r4
0xf67e3a38:  e08f9009      add	r9, pc, r9
0xf67e3a3c:  e50b3078      str	r3, [fp, #-120]
0xf67e3a40:  e50be054      str	lr, [fp, #-84]
0xf67e3a44:  e58e3008      str	r3, [lr, #8]
0xf67e3a48:  e50b3044      str	r3, [fp, #-68]
0xf67e3a4c:  e50b307c      str	r3, [fp, #-124]
0xf67e3a50:  e5823000      str	r3, [r2]
0xf67e3a54:  e50b0080      str	r0, [fp, #-128]
0xf67e3a58:  e50b1060      str	r1, [fp, #-96]
0xf67e3a5c:  e50b4088      str	r4, [fp, #-136]
0xf67e3a60:  e50b908c      str	r9, [fp, #-140]
0xf67e3a64:  e3a02001      mov	r2, #1	; 0x1
0xf67e3a68:  e59a315c      ldr	r3, [sl, #348]
0xf67e3a6c:  e51b905c      ldr	r9, [fp, #-92]
0xf67e3a70:  e3530000      cmp	r3, #0	; 0x0
0xf67e3a74:  e5892000      str	r2, [r9]
0xf67e3a78:  13a07000      movne	r7, #0	; 0x0
0xf67e3a7c:  0a000079      beq	0xf67e3c68

----------------
IN: 
0xf67e3c68:  e59a71f0      ldr	r7, [sl, #496]
0xf67e3c6c:  e3570000      cmp	r7, #0	; 0x0
0xf67e3c70:  11a07003      movne	r7, r3
0xf67e3c74:  1affff81      bne	0xf67e3a80

----------------
IN: 
0xf67e3c78:  e51b4064      ldr	r4, [fp, #-100]
0xf67e3c7c:  e154000a      cmp	r4, sl
0xf67e3c80:  0affff7e      beq	0xf67e3a80

----------------
IN: 
0xf67e3a80:  e59a3024      ldr	r3, [sl, #36]
0xf67e3a84:  e3530000      cmp	r3, #0	; 0x0
0xf67e3a88:  0a00006f      beq	0xf67e3c4c

----------------
IN: 
0xf67e3a8c:  e59a5008      ldr	r5, [sl, #8]
0xf67e3a90:  e59a2034      ldr	r2, [sl, #52]
0xf67e3a94:  e5953000      ldr	r3, [r5]
0xf67e3a98:  e5928004      ldr	r8, [r2, #4]
0xf67e3a9c:  e51b9070      ldr	r9, [fp, #-112]
0xf67e3aa0:  e59b4004      ldr	r4, [fp, #4]
0xf67e3aa4:  e3530000      cmp	r3, #0	; 0x0
0xf67e3aa8:  e50ba03c      str	sl, [fp, #-60]
0xf67e3aac:  e50b8030      str	r8, [fp, #-48]
0xf67e3ab0:  e50b9038      str	r9, [fp, #-56]
0xf67e3ab4:  e50b4034      str	r4, [fp, #-52]
0xf67e3ab8:  0a000033      beq	0xf67e3b8c

----------------
IN: 
0xf67e3abc:  e51b905c      ldr	r9, [fp, #-92]
0xf67e3ac0:  e3a06000      mov	r6, #0	; 0x0
0xf67e3ac4:  e50b9068      str	r9, [fp, #-104]
0xf67e3ac8:  e2855008      add	r5, r5, #8	; 0x8
0xf67e3acc:  ea000005      b	0xf67e3ae8

----------------
IN: 
0xf67e3ae8:  e3530001      cmp	r3, #1	; 0x1
0xf67e3aec:  1a0001b9      bne	0xf67e41d8

----------------
IN: 
0xf67e3af0:  e5154004      ldr	r4, [r5, #-4]
0xf67e3af4:  e3a01024      mov	r1, #36	; 0x24
0xf67e3af8:  e0884004      add	r4, r8, r4
0xf67e3afc:  e1a00004      mov	r0, r4
0xf67e3b00:  eb002e4e      bl	0xf67ef440

----------------
IN: 
0xf67ef440:  e3100003      tst	r0, #3	; 0x3
0xf67ef444:  e92d41f0      push	{r4, r5, r6, r7, r8, lr}
0xf67ef448:  e20110ff      and	r1, r1, #255	; 0xff
0xf67ef44c:  0a00000e      beq	0xf67ef48c

----------------
IN: 
0xf67ef450:  e5d02000      ldrb	r2, [r0]
0xf67ef454:  e1520001      cmp	r2, r1
0xf67ef458:  08bd81f0      popeq	{r4, r5, r6, r7, r8, pc}

----------------
IN: 
0xf67ef45c:  e3520000      cmp	r2, #0	; 0x0
0xf67ef460:  0a000033      beq	0xf67ef534

----------------
IN: 
0xf67ef464:  e2803001      add	r3, r0, #1	; 0x1
0xf67ef468:  ea000004      b	0xf67ef480

----------------
IN: 
0xf67ef480:  e3130003      tst	r3, #3	; 0x3
0xf67ef484:  e1a00003      mov	r0, r3
0xf67ef488:  1afffff7      bne	0xf67ef46c

----------------
IN: 
0xf67ef46c:  e4d32001      ldrb	r2, [r3], #1
0xf67ef470:  e1520001      cmp	r2, r1
0xf67ef474:  08bd81f0      popeq	{r4, r5, r6, r7, r8, pc}

----------------
IN: 
0xf67ef478:  e3520000      cmp	r2, #0	; 0x0
0xf67ef47c:  0a00002c      beq	0xf67ef534

----------------
IN: 
0xf67ef48c:  e1816401      orr	r6, r1, r1, lsl #8
0xf67ef490:  e1866806      orr	r6, r6, r6, lsl #16
0xf67ef494:  e240c004      sub	ip, r0, #4	; 0x4
0xf67ef498:  ea00000f      b	0xf67ef4dc

----------------
IN: 
0xf67ef4dc:  e1a03000      mov	r3, r0
0xf67ef4e0:  e59fe06c      ldr	lr, [pc, #108]	; 0xf67ef554
0xf67ef4e4:  e4934004      ldr	r4, [r3], #4
0xf67ef4e8:  e1a0200e      mov	r2, lr
0xf67ef4ec:  e0245006      eor	r5, r4, r6
0xf67ef4f0:  e1e08005      mvn	r8, r5
0xf67ef4f4:  e1e07004      mvn	r7, r4
0xf67ef4f8:  e0842002      add	r2, r4, r2
0xf67ef4fc:  e085e00e      add	lr, r5, lr
0xf67ef500:  e0274002      eor	r4, r7, r2
0xf67ef504:  e02ee008      eor	lr, lr, r8
0xf67ef508:  e59f2048      ldr	r2, [pc, #72]	; 0xf67ef558
0xf67ef50c:  e18ee004      orr	lr, lr, r4
0xf67ef510:  e002200e      and	r2, r2, lr
0xf67ef514:  e3520000      cmp	r2, #0	; 0x0
0xf67ef518:  e28cc004      add	ip, ip, #4	; 0x4
0xf67ef51c:  0affffed      beq	0xf67ef4d8

----------------
IN: 
0xf67ef4d8:  e1a00003      mov	r0, r3
0xf67ef4dc:  e1a03000      mov	r3, r0
0xf67ef4e0:  e59fe06c      ldr	lr, [pc, #108]	; 0xf67ef554
0xf67ef4e4:  e4934004      ldr	r4, [r3], #4
0xf67ef4e8:  e1a0200e      mov	r2, lr
0xf67ef4ec:  e0245006      eor	r5, r4, r6
0xf67ef4f0:  e1e08005      mvn	r8, r5
0xf67ef4f4:  e1e07004      mvn	r7, r4
0xf67ef4f8:  e0842002      add	r2, r4, r2
0xf67ef4fc:  e085e00e      add	lr, r5, lr
0xf67ef500:  e0274002      eor	r4, r7, r2
0xf67ef504:  e02ee008      eor	lr, lr, r8
0xf67ef508:  e59f2048      ldr	r2, [pc, #72]	; 0xf67ef558
0xf67ef50c:  e18ee004      orr	lr, lr, r4
0xf67ef510:  e002200e      and	r2, r2, lr
0xf67ef514:  e3520000      cmp	r2, #0	; 0x0
0xf67ef518:  e28cc004      add	ip, ip, #4	; 0x4
0xf67ef51c:  0affffed      beq	0xf67ef4d8

----------------
IN: 
0xf67ef520:  e5532004      ldrb	r2, [r3, #-4]
0xf67ef524:  e1520001      cmp	r2, r1
0xf67ef528:  08bd81f0      popeq	{r4, r5, r6, r7, r8, pc}

----------------
IN: 
0xf67ef52c:  e3520000      cmp	r2, #0	; 0x0
0xf67ef530:  1affffd9      bne	0xf67ef49c

----------------
IN: 
0xf67ef49c:  e5dc2001      ldrb	r2, [ip, #1]
0xf67ef4a0:  e1520001      cmp	r2, r1
0xf67ef4a4:  0a000024      beq	0xf67ef53c

----------------
IN: 
0xf67ef4a8:  e3520000      cmp	r2, #0	; 0x0
0xf67ef4ac:  0a000020      beq	0xf67ef534

----------------
IN: 
0xf67ef4b0:  e5dc2002      ldrb	r2, [ip, #2]
0xf67ef4b4:  e1520001      cmp	r2, r1
0xf67ef4b8:  0a000021      beq	0xf67ef544

----------------
IN: 
0xf67ef4bc:  e3520000      cmp	r2, #0	; 0x0
0xf67ef4c0:  0a00001b      beq	0xf67ef534

----------------
IN: 
0xf67ef534:  e1a00002      mov	r0, r2
0xf67ef538:  e8bd81f0      pop	{r4, r5, r6, r7, r8, pc}

----------------
IN: 
0xf67e3b04:  e3500000      cmp	r0, #0	; 0x0
0xf67e3b08:  1a0001fd      bne	0xf67e4304

----------------
IN: 
0xf67e3b0c:  e24b303c      sub	r3, fp, #60	; 0x3c
0xf67e3b10:  e50b402c      str	r4, [fp, #-44]
0xf67e3b14:  e58d3000      str	r3, [sp]
0xf67e3b18:  e59f3eb4      ldr	r3, [pc, #3764]	; 0xf67e49d4
0xf67e3b1c:  e24b0040      sub	r0, fp, #64	; 0x40
0xf67e3b20:  e24b1044      sub	r1, fp, #68	; 0x44
0xf67e3b24:  e24b2045      sub	r2, fp, #69	; 0x45
0xf67e3b28:  e08f3003      add	r3, pc, r3
0xf67e3b2c:  eb0008fe      bl	0xf67e5f2c

----------------
IN: 
0xf67e5f2c:  e92d4010      push	{r4, lr}
0xf67e5f30:  e24ddf6e      sub	sp, sp, #440	; 0x1b8
0xf67e5f34:  e98d0007      stmib	sp, {r0, r1, r2}
0xf67e5f38:  e58d1024      str	r1, [sp, #36]
0xf67e5f3c:  e59f209c      ldr	r2, [pc, #156]	; 0xf67e5fe0
0xf67e5f40:  e59d100c      ldr	r1, [sp, #12]
0xf67e5f44:  e08f2002      add	r2, pc, r2
0xf67e5f48:  e58d1028      str	r1, [sp, #40]
0xf67e5f4c:  e28d101c      add	r1, sp, #28	; 0x1c
0xf67e5f50:  e5922514      ldr	r2, [r2, #1300]
0xf67e5f54:  e58d102c      str	r1, [sp, #44]
0xf67e5f58:  e58d0020      str	r0, [sp, #32]
0xf67e5f5c:  e58d3014      str	r3, [sp, #20]
0xf67e5f60:  e12fff32      blx	r2

----------------
IN: 
0xf67d6dc0:  e59f0004      ldr	r0, [pc, #4]	; 0xf67d6dcc
0xf67d6dc4:  e08f0000      add	r0, pc, r0
0xf67d6dc8:  e12fff1e      bx	lr

----------------
IN: 
0xf67e5f64:  e58d0000      str	r0, [sp]
0xf67e5f68:  e59d1000      ldr	r1, [sp]
0xf67e5f6c:  e5902000      ldr	r2, [r0]
0xf67e5f70:  e28d3020      add	r3, sp, #32	; 0x20
0xf67e5f74:  e5813000      str	r3, [r1]
0xf67e5f78:  e28d0030      add	r0, sp, #48	; 0x30
0xf67e5f7c:  e3a01000      mov	r1, #0	; 0x0
0xf67e5f80:  e58d2010      str	r2, [sp, #16]
0xf67e5f84:  eb002489      bl	0xf67ef1b0

----------------
IN: 
0xf67ef1b0:  e59fc068      ldr	ip, [pc, #104]	; 0xf67ef220
0xf67ef1b4:  e79f200c      ldr	r2, [pc, ip]
0xf67ef1b8:  e1a0c000      mov	ip, r0
0xf67ef1bc:  e8ac0ff0      stmia	ip!, {r4, r5, r6, r7, r8, r9, sl, fp}
0xf67ef1c0:  e1a0300d      mov	r3, sp
0xf67ef1c4:  e0233002      eor	r3, r3, r2
0xf67ef1c8:  e48c3004      str	r3, [ip], #4
0xf67ef1cc:  e02e3002      eor	r3, lr, r2
0xf67ef1d0:  e48c3004      str	r3, [ip], #4
0xf67ef1d4:  e59f203c      ldr	r2, [pc, #60]	; 0xf67ef218
0xf67ef1d8:  e59f303c      ldr	r3, [pc, #60]	; 0xf67ef21c
0xf67ef1dc:  e08f2002      add	r2, pc, r2
0xf67ef1e0:  e0822003      add	r2, r2, r3
0xf67ef1e4:  e5922040      ldr	r2, [r2, #64]
0xf67ef1e8:  e3120040      tst	r2, #64	; 0x40
0xf67ef1ec:  0a000000      beq	0xf67ef1f4

----------------
IN: 
0xf67ef1f0:  ecac8b10      vstmia	ip!, {d8-d15}
0xf67ef1f4:  e3120c02      tst	r2, #512	; 0x200
0xf67ef1f8:  0a000005      beq	0xf67ef214

----------------
IN: 
0xf67ef214:  eafff844      b	0xf67ed32c

----------------
IN: 
0xf67ed32c:  e3a03000      mov	r3, #0	; 0x0
0xf67ed330:  e5803100      str	r3, [r0, #256]
0xf67ed334:  e1a00003      mov	r0, r3
0xf67ed338:  e12fff1e      bx	lr

----------------
IN: 
0xf67e5f88:  e2504000      subs	r4, r0, #0	; 0x0
0xf67e5f8c:  1a00000e      bne	0xf67e5fcc

----------------
IN: 
0xf67e5f90:  e59d2014      ldr	r2, [sp, #20]
0xf67e5f94:  e59d01c0      ldr	r0, [sp, #448]
0xf67e5f98:  e12fff32      blx	r2

----------------
IN: 
0xf67e38fc:  e92d4010      push	{r4, lr}
0xf67e3900:  e1a04000      mov	r4, r0
0xf67e3904:  e5900000      ldr	r0, [r0]
0xf67e3908:  e5943008      ldr	r3, [r4, #8]
0xf67e390c:  e24dd008      sub	sp, sp, #8	; 0x8
0xf67e3910:  e5d02194      ldrb	r2, [r0, #404]
0xf67e3914:  e58d3000      str	r3, [sp]
0xf67e3918:  e590c018      ldr	ip, [r0, #24]
0xf67e391c:  e2122003      ands	r2, r2, #3	; 0x3
0xf67e3920:  e5941010      ldr	r1, [r4, #16]
0xf67e3924:  e5943004      ldr	r3, [r4, #4]
0xf67e3928:  03a02001      moveq	r2, #1	; 0x1
0xf67e392c:  e58dc004      str	ip, [sp, #4]
0xf67e3930:  ebffecb1      bl	0xf67debfc

----------------
IN: 
0xf67debfc:  e92d4ff0      push	{r4, r5, r6, r7, r8, r9, sl, fp, lr}
0xf67dec00:  e24ddf97      sub	sp, sp, #604	; 0x25c
0xf67dec04:  e59d5284      ldr	r5, [sp, #644]
0xf67dec08:  e58d301c      str	r3, [sp, #28]
0xf67dec0c:  e3550000      cmp	r5, #0	; 0x0
0xf67dec10:  ba0001ef      blt	0xf67df3d4

----------------
IN: 
0xf67dec14:  e59f3a50      ldr	r3, [pc, #2640]	; 0xf67df66c
0xf67dec18:  e1a08002      mov	r8, r2
0xf67dec1c:  e08f3003      add	r3, pc, r3
0xf67dec20:  e59324c0      ldr	r2, [r3, #1216]
0xf67dec24:  e1550002      cmp	r5, r2
0xf67dec28:  2a0001b8      bcs	0xf67df310

----------------
IN: 
0xf67dec2c:  e1a07185      lsl	r7, r5, #3
0xf67dec30:  e0872005      add	r2, r7, r5
0xf67dec34:  e0852082      add	r2, r5, r2, lsl #1
0xf67dec38:  e793b102      ldr	fp, [r3, r2, lsl #2]
0xf67dec3c:  e1a06000      mov	r6, r0
0xf67dec40:  e35b0000      cmp	fp, #0	; 0x0
0xf67dec44:  e1a04001      mov	r4, r1
0xf67dec48:  0a000017      beq	0xf67decac

----------------
IN: 
0xf67dec4c:  e59faa1c      ldr	sl, [pc, #2588]	; 0xf67df670
0xf67dec50:  e59f9a1c      ldr	r9, [pc, #2588]	; 0xf67df674
0xf67dec54:  e08fa00a      add	sl, pc, sl
0xf67dec58:  e08f9009      add	r9, pc, r9
0xf67dec5c:  ea000005      b	0xf67dec78

----------------
IN: 
0xf67dec78:  e5db3195      ldrb	r3, [fp, #405]
0xf67dec7c:  e3130002      tst	r3, #2	; 0x2
0xf67dec80:  1afffff9      bne	0xf67dec6c

----------------
IN: 
0xf67dec84:  e3130020      tst	r3, #32	; 0x20
0xf67dec88:  1afffff7      bne	0xf67dec6c

----------------
IN: 
0xf67dec8c:  e1a00004      mov	r0, r4
0xf67dec90:  e1a0100b      mov	r1, fp
0xf67dec94:  eb0020ec      bl	0xf67e704c

----------------
IN: 
0xf67e704c:  e92d4038      push	{r3, r4, r5, lr}
0xf67e7050:  e1a04001      mov	r4, r1
0xf67e7054:  e5911004      ldr	r1, [r1, #4]
0xf67e7058:  e1a05000      mov	r5, r0
0xf67e705c:  eb00213e      bl	0xf67ef55c

----------------
IN: 
0xf67e7060:  e3500000      cmp	r0, #0	; 0x0
0xf67e7064:  0a00000b      beq	0xf67e7098

----------------
IN: 
0xf67e7068:  e594401c      ldr	r4, [r4, #28]
0xf67e706c:  e3540000      cmp	r4, #0	; 0x0
0xf67e7070:  1a000003      bne	0xf67e7084

----------------
IN: 
0xf67e7084:  e1a00005      mov	r0, r5
0xf67e7088:  e5941000      ldr	r1, [r4]
0xf67e708c:  eb002132      bl	0xf67ef55c

----------------
IN: 
0xf67e7090:  e3500000      cmp	r0, #0	; 0x0
0xf67e7094:  1afffff7      bne	0xf67e7078

----------------
IN: 
0xf67e7078:  e5944004      ldr	r4, [r4, #4]
0xf67e707c:  e3540000      cmp	r4, #0	; 0x0
0xf67e7080:  0a000006      beq	0xf67e70a0

----------------
IN: 
0xf67e70a0:  e1a00004      mov	r0, r4
0xf67e70a4:  e8bd8038      pop	{r3, r4, r5, pc}

----------------
IN: 
0xf67dec98:  e3500000      cmp	r0, #0	; 0x0
0xf67dec9c:  0affffef      beq	0xf67dec60

----------------
IN: 
0xf67dec60:  e5db3195      ldrb	r3, [fp, #405]
0xf67dec64:  e3130001      tst	r3, #1	; 0x1
0xf67dec68:  0a000168      beq	0xf67df210

----------------
IN: 
0xf67df210:  e59b3058      ldr	r3, [fp, #88]
0xf67df214:  e3530000      cmp	r3, #0	; 0x0
0xf67df218:  0afffe93      beq	0xf67dec6c

----------------
IN: 
0xf67dec6c:  e59bb00c      ldr	fp, [fp, #12]
0xf67dec70:  e35b0000      cmp	fp, #0	; 0x0
0xf67dec74:  0a00000c      beq	0xf67decac

----------------
IN: 
0xf67df21c:  e59b2034      ldr	r2, [fp, #52]
0xf67df220:  e5933004      ldr	r3, [r3, #4]
0xf67df224:  e5922004      ldr	r2, [r2, #4]
0xf67df228:  e1a00004      mov	r0, r4
0xf67df22c:  e0823003      add	r3, r2, r3
0xf67df230:  e1a01003      mov	r1, r3
0xf67df234:  e58d3020      str	r3, [sp, #32]
0xf67df238:  eb0040c7      bl	0xf67ef55c

----------------
IN: 
0xf67df23c:  e3500000      cmp	r0, #0	; 0x0
0xf67df240:  0a000009      beq	0xf67df26c

----------------
IN: 
0xf67df244:  e1a00004      mov	r0, r4
0xf67df248:  e1a0100a      mov	r1, sl
0xf67df24c:  eb0040c2      bl	0xf67ef55c

----------------
IN: 
0xf67df250:  e3500000      cmp	r0, #0	; 0x0
0xf67df254:  1afffe84      bne	0xf67dec6c

----------------
IN: 
0xf67decac:  e59f39c4      ldr	r3, [pc, #2500]	; 0xf67df678
0xf67decb0:  e08f3003      add	r3, pc, r3
0xf67decb4:  e5932000      ldr	r2, [r3]
0xf67decb8:  e3120040      tst	r2, #64	; 0x40
0xf67decbc:  1a0001fa      bne	0xf67df4ac

----------------
IN: 
0xf67decc0:  e5933174      ldr	r3, [r3, #372]
0xf67decc4:  e3530000      cmp	r3, #0	; 0x0
0xf67decc8:  1a000198      bne	0xf67df330

----------------
IN: 
0xf67deccc:  e59dc280      ldr	ip, [sp, #640]
0xf67decd0:  e20cb201      and	fp, ip, #268435456	; 0x10000000
0xf67decd4:  e3a03000      mov	r3, #0	; 0x0
0xf67decd8:  e1a00004      mov	r0, r4
0xf67decdc:  e3a0102f      mov	r1, #47	; 0x2f
0xf67dece0:  e5cd304b      strb	r3, [sp, #75]
0xf67dece4:  eb0041d5      bl	0xf67ef440

----------------
IN: 
0xf67dece8:  e3500000      cmp	r0, #0	; 0x0
0xf67decec:  0a00002e      beq	0xf67dedac

----------------
IN: 
0xf67dedac:  e1a00004      mov	r0, r4
0xf67dedb0:  eb0041f6      bl	0xf67ef590

----------------
IN: 
0xf67ef5a4:  e38220ff      orr	r2, r2, #255	; 0xff
0xf67ef5a8:  e2533001      subs	r3, r3, #1	; 0x1
0xf67ef5ac:  c3822cff      orrgt	r2, r2, #65280	; 0xff00
0xf67ef5b0:  e2533001      subs	r3, r3, #1	; 0x1
0xf67ef5b4:  c38228ff      orrgt	r2, r2, #16711680	; 0xff0000
0xf67ef5b8:  e31200ff      tst	r2, #255	; 0xff
0xf67ef5bc:  13120cff      tstne	r2, #65280	; 0xff00
0xf67ef5c0:  131208ff      tstne	r2, #16711680	; 0xff0000
0xf67ef5c4:  131204ff      tstne	r2, #-16777216	; 0xff000000
0xf67ef5c8:  12800004      addne	r0, r0, #4	; 0x4
0xf67ef5cc:  14912004      ldrne	r2, [r1], #4
0xf67ef5d0:  1afffff8      bne	0xf67ef5b8

----------------
IN: 
0xf67dedb4:  e59f38c4      ldr	r3, [pc, #2244]	; 0xf67df680
0xf67dedb8:  e2800001      add	r0, r0, #1	; 0x1
0xf67dedbc:  e08f3003      add	r3, pc, r3
0xf67dedc0:  e5933000      ldr	r3, [r3]
0xf67dedc4:  e58d0028      str	r0, [sp, #40]
0xf67dedc8:  e3130001      tst	r3, #1	; 0x1
0xf67dedcc:  1a0001b0      bne	0xf67df494

----------------
IN: 
0xf67dedd0:  e3560000      cmp	r6, #0	; 0x0
0xf67dedd4:  0a0000a3      beq	0xf67df068

----------------
IN: 
0xf67dedd8:  e5963094      ldr	r3, [r6, #148]
0xf67deddc:  e3530000      cmp	r3, #0	; 0x0
0xf67dede0:  0a0000c7      beq	0xf67df104

----------------
IN: 
0xf67df104:  e59f259c      ldr	r2, [pc, #1436]	; 0xf67df6a8
0xf67df108:  e58d3024      str	r3, [sp, #36]
0xf67df10c:  e08f2002      add	r2, pc, r2
0xf67df110:  e5923000      ldr	r3, [r2]
0xf67df114:  e59f2590      ldr	r2, [pc, #1424]	; 0xf67df6ac
0xf67df118:  e58d3020      str	r3, [sp, #32]
0xf67df11c:  e59d3280      ldr	r3, [sp, #640]
0xf67df120:  e28d104b      add	r1, sp, #75	; 0x4b
0xf67df124:  e2033301      and	r3, r3, #67108864	; 0x4000000
0xf67df128:  e28dc04c      add	ip, sp, #76	; 0x4c
0xf67df12c:  e08f2002      add	r2, pc, r2
0xf67df130:  e58db02c      str	fp, [sp, #44]
0xf67df134:  e58d8030      str	r8, [sp, #48]
0xf67df138:  e58d5034      str	r5, [sp, #52]
0xf67df13c:  e58d7044      str	r7, [sp, #68]
0xf67df140:  e58d1040      str	r1, [sp, #64]
0xf67df144:  e1a09006      mov	r9, r6
0xf67df148:  e58d2038      str	r2, [sp, #56]
0xf67df14c:  e58d303c      str	r3, [sp, #60]
0xf67df150:  e28da054      add	sl, sp, #84	; 0x54
0xf67df154:  e59d5028      ldr	r5, [sp, #40]
0xf67df158:  e1a07003      mov	r7, r3
0xf67df15c:  e1a0800c      mov	r8, ip
0xf67df160:  e1a0b001      mov	fp, r1
0xf67df164:  ea000014      b	0xf67df1bc

----------------
IN: 
0xf67df1bc:  e5993198      ldr	r3, [r9, #408]
0xf67df1c0:  e289cf66      add	ip, r9, #408	; 0x198
0xf67df1c4:  e3730001      cmn	r3, #1	; 0x1
0xf67df1c8:  0afffff8      beq	0xf67df1b0

----------------
IN: 
0xf67df1b0:  e599916c      ldr	r9, [r9, #364]
0xf67df1b4:  e3590000      cmp	r9, #0	; 0x0
0xf67df1b8:  0a000033      beq	0xf67df28c

----------------
IN: 
0xf67df28c:  e59dc024      ldr	ip, [sp, #36]
0xf67df290:  e59db02c      ldr	fp, [sp, #44]
0xf67df294:  e35c0000      cmp	ip, #0	; 0x0
0xf67df298:  e59d8030      ldr	r8, [sp, #48]
0xf67df29c:  e59d5034      ldr	r5, [sp, #52]
0xf67df2a0:  e59d7044      ldr	r7, [sp, #68]
0xf67df2a4:  1afffece      bne	0xf67dede4

----------------
IN: 
0xf67df2a8:  eaffff72      b	0xf67df078

----------------
IN: 
0xf67df078:  e59dc020      ldr	ip, [sp, #32]
0xf67df07c:  e35c0000      cmp	ip, #0	; 0x0
0xf67df080:  0affff57      beq	0xf67dede4

----------------
IN: 
0xf67df084:  e5dc3194      ldrb	r3, [ip, #404]
0xf67df088:  e2033003      and	r3, r3, #3	; 0x3
0xf67df08c:  e3530002      cmp	r3, #2	; 0x2
0xf67df090:  0affff53      beq	0xf67dede4

----------------
IN: 
0xf67df094:  e59c3198      ldr	r3, [ip, #408]
0xf67df098:  e3730001      cmn	r3, #1	; 0x1
0xf67df09c:  0affff50      beq	0xf67dede4

----------------
IN: 
0xf67dede4:  e59f3898      ldr	r3, [pc, #2200]	; 0xf67df684
0xf67dede8:  e08f3003      add	r3, pc, r3
0xf67dedec:  e5931018      ldr	r1, [r3, #24]
0xf67dedf0:  e3710001      cmn	r1, #1	; 0x1
0xf67dedf4:  03a0a001      moveq	sl, #1	; 0x1
0xf67dedf8:  0a000017      beq	0xf67dee5c

----------------
IN: 
0xf67dee5c:  e2969000      adds	r9, r6, #0	; 0x0
0xf67dee60:  13a09001      movne	r9, #1	; 0x1
0xf67dee64:  e01aa009      ands	sl, sl, r9
0xf67dee68:  0a000016      beq	0xf67deec8

----------------
IN: 
0xf67dee6c:  e59631e8      ldr	r3, [r6, #488]
0xf67dee70:  e2869f7a      add	r9, r6, #488	; 0x1e8
0xf67dee74:  e3730001      cmn	r3, #1	; 0x1
0xf67dee78:  0a000034      beq	0xf67def50

----------------
IN: 
0xf67def50:  e1a0900a      mov	r9, sl
0xf67def54:  e59dc280      ldr	ip, [sp, #640]
0xf67def58:  e21cc301      ands	ip, ip, #67108864	; 0x4000000
0xf67def5c:  e58dc02c      str	ip, [sp, #44]
0xf67def60:  1a00017f      bne	0xf67df564

----------------
IN: 
0xf67def64:  e59f3730      ldr	r3, [pc, #1840]	; 0xf67df69c
0xf67def68:  e08f3003      add	r3, pc, r3
0xf67def6c:  e5933014      ldr	r3, [r3, #20]
0xf67def70:  e3530000      cmp	r3, #0	; 0x0
0xf67def74:  1a000020      bne	0xf67deffc

----------------
IN: 
0xf67def78:  e1a00004      mov	r0, r4
0xf67def7c:  eb003473      bl	0xf67ec150

----------------
IN: 
0xf67ec150:  e59f36cc      ldr	r3, [pc, #1740]	; 0xf67ec824
0xf67ec154:  e92d4ff0      push	{r4, r5, r6, r7, r8, r9, sl, fp, lr}
0xf67ec158:  e08f3003      add	r3, pc, r3
0xf67ec15c:  e5933000      ldr	r3, [r3]
0xf67ec160:  e24dd02c      sub	sp, sp, #44	; 0x2c
0xf67ec164:  e3130001      tst	r3, #1	; 0x1
0xf67ec168:  e1a04000      mov	r4, r0
0xf67ec16c:  1a00019f      bne	0xf67ec7f0

----------------
IN: 
0xf67ec170:  e59f56b0      ldr	r5, [pc, #1712]	; 0xf67ec828
0xf67ec174:  e08f5005      add	r5, pc, r5
0xf67ec178:  e5958000      ldr	r8, [r5]
0xf67ec17c:  e3580000      cmp	r8, #0	; 0x0
0xf67ec180:  0a000063      beq	0xf67ec314

----------------
IN: 
0xf67ec314:  e59f0524      ldr	r0, [pc, #1316]	; 0xf67ec840
0xf67ec318:  e2851004      add	r1, r5, #4	; 0x4
0xf67ec31c:  e08f0000      add	r0, pc, r0
0xf67ec320:  e3a02001      mov	r2, #1	; 0x1
0xf67ec324:  ebffeaf8      bl	0xf67e6f0c

----------------
IN: 
0xf67e6f0c:  e92d4070      push	{r4, r5, r6, lr}
0xf67e6f10:  e1a05001      mov	r5, r1
0xf67e6f14:  e24dd070      sub	sp, sp, #112	; 0x70
0xf67e6f18:  e3a01702      mov	r1, #524288	; 0x80000
0xf67e6f1c:  e1a06002      mov	r6, r2
0xf67e6f20:  eb001fc6      bl	0xf67eee40

----------------
IN: 
0xf67eee40:  e52d7004      push	{r7}		; (str r7, [sp, #-4]!)
0xf67eee44:  e3a07005      mov	r7, #5	; 0x5
0xf67eee48:  ef000000      svc	0x00000000

----------------
IN: 
0xf67eee4c:  e49d7004      pop	{r7}		; (ldr r7, [sp], #4)
0xf67eee50:  e3700a01      cmn	r0, #4096	; 0x1000
0xf67eee54:  312fff1e      bxcc	lr

----------------
IN: 
0xf67e6f24:  e2504000      subs	r4, r0, #0	; 0x0
0xf67e6f28:  b3e05000      mvnlt	r5, #0	; 0x0
0xf67e6f2c:  ba00000c      blt	0xf67e6f64

----------------
IN: 
0xf67e6f30:  e3a00003      mov	r0, #3	; 0x3
0xf67e6f34:  e1a01004      mov	r1, r4
0xf67e6f38:  e28d2008      add	r2, sp, #8	; 0x8
0xf67e6f3c:  eb001f9c      bl	0xf67eedb4

----------------
IN: 
0xf67eedb4:  e52d7004      push	{r7}		; (str r7, [sp, #-4]!)
0xf67eedb8:  e1a00001      mov	r0, r1
0xf67eedbc:  e3a070c5      mov	r7, #197	; 0xc5
0xf67eedc0:  e1a01002      mov	r1, r2
0xf67eedc4:  ef000000      svc	0x00000000

----------------
IN: 
0xf67eedc8:  e3700a01      cmn	r0, #4096	; 0x1000
0xf67eedcc:  8a000001      bhi	0xf67eedd8

----------------
IN: 
0xf67eedd0:  e49d7004      pop	{r7}		; (ldr r7, [sp], #4)
0xf67eedd4:  e12fff1e      bx	lr

----------------
IN: 
0xf67e6f40:  e3500000      cmp	r0, #0	; 0x0
0xf67e6f44:  ba000003      blt	0xf67e6f58

----------------
IN: 
0xf67e6f48:  e59d1038      ldr	r1, [sp, #56]
0xf67e6f4c:  e3510000      cmp	r1, #0	; 0x0
0xf67e6f50:  e5851000      str	r1, [r5]
0xf67e6f54:  1a000005      bne	0xf67e6f70

----------------
IN: 
0xf67e6f70:  e3a00000      mov	r0, #0	; 0x0
0xf67e6f74:  e58d4000      str	r4, [sp]
0xf67e6f78:  e1a02006      mov	r2, r6
0xf67e6f7c:  e58d0004      str	r0, [sp, #4]
0xf67e6f80:  e3a03002      mov	r3, #2	; 0x2
0xf67e6f84:  eb002025      bl	0xf67ef020

----------------
IN: 
0xf67e6f88:  e1a05000      mov	r5, r0
0xf67e6f8c:  eafffff2      b	0xf67e6f5c

----------------
IN: 
0xf67e6f5c:  e1a00004      mov	r0, r4
0xf67e6f60:  eb00201e      bl	0xf67eefe0

----------------
IN: 
0xf67eefe0:  e52d7004      push	{r7}		; (str r7, [sp, #-4]!)
0xf67eefe4:  e3a07006      mov	r7, #6	; 0x6
0xf67eefe8:  ef000000      svc	0x00000000

----------------
IN: 
0xf67eefec:  e49d7004      pop	{r7}		; (ldr r7, [sp], #4)
0xf67eeff0:  e3700a01      cmn	r0, #4096	; 0x1000
0xf67eeff4:  312fff1e      bxcc	lr

----------------
IN: 
0xf67e6f64:  e1a00005      mov	r0, r5
0xf67e6f68:  e28dd070      add	sp, sp, #112	; 0x70
0xf67e6f6c:  e8bd8070      pop	{r4, r5, r6, pc}

----------------
IN: 
0xf67ec328:  e3700001      cmn	r0, #1	; 0x1
0xf67ec32c:  e1a08000      mov	r8, r0
0xf67ec330:  0a000021      beq	0xf67ec3bc

----------------
IN: 
0xf67ec334:  e5956004      ldr	r6, [r5, #4]
0xf67ec338:  e3560010      cmp	r6, #16	; 0x10
0xf67ec33c:  9a00001b      bls	0xf67ec3b0

----------------
IN: 
0xf67ec340:  e59f14fc      ldr	r1, [pc, #1276]	; 0xf67ec844
0xf67ec344:  e3a0200b      mov	r2, #11	; 0xb
0xf67ec348:  e08f1001      add	r1, pc, r1
0xf67ec34c:  eb000d3e      bl	0xf67ef84c

----------------
IN: 
0xf67ef84c:  e92d47f0      push	{r4, r5, r6, r7, r8, r9, sl, lr}
0xf67ef850:  e352000f      cmp	r2, #15	; 0xf
0xf67ef854:  e24dd050      sub	sp, sp, #80	; 0x50
0xf67ef858:  e1a0e000      mov	lr, r0
0xf67ef85c:  e1a03001      mov	r3, r1
0xf67ef860:  9a000036      bls	0xf67ef940

----------------
IN: 
0xf67ef940:  e3520000      cmp	r2, #0	; 0x0
0xf67ef944:  0a0000ac      beq	0xf67efbfc

----------------
IN: 
0xf67ef948:  e5de0000      ldrb	r0, [lr]
0xf67ef94c:  e5d31000      ldrb	r1, [r3]
0xf67ef950:  e0501001      subs	r1, r0, r1
0xf67ef954:  02422001      subeq	r2, r2, #1	; 0x1
0xf67ef958:  0082000e      addeq	r0, r2, lr
0xf67ef95c:  0a000004      beq	0xf67ef974

----------------
IN: 
0xf67ef974:  e15e0000      cmp	lr, r0
0xf67ef978:  1afffff9      bne	0xf67ef964

----------------
IN: 
0xf67ef964:  e5fe2001      ldrb	r2, [lr, #1]!
0xf67ef968:  e5f31001      ldrb	r1, [r3, #1]!
0xf67ef96c:  e0521001      subs	r1, r2, r1
0xf67ef970:  1a000004      bne	0xf67ef988

----------------
IN: 
0xf67ef97c:  e3a00000      mov	r0, #0	; 0x0
0xf67ef980:  e28dd050      add	sp, sp, #80	; 0x50
0xf67ef984:  e8bd87f0      pop	{r4, r5, r6, r7, r8, r9, sl, pc}

----------------
IN: 
0xf67ec350:  e3500000      cmp	r0, #0	; 0x0
0xf67ec354:  1a00001d      bne	0xf67ec3d0

----------------
IN: 
0xf67ec358:  e598300c      ldr	r3, [r8, #12]
0xf67ec35c:  e5858000      str	r8, [r5]
0xf67ec360:  e0833083      add	r3, r3, r3, lsl #1
0xf67ec364:  e1a00103      lsl	r0, r3, #2
0xf67ec368:  e2800017      add	r0, r0, #23	; 0x17
0xf67ec36c:  e3c00007      bic	r0, r0, #7	; 0x7
0xf67ec370:  e2803030      add	r3, r0, #48	; 0x30
0xf67ec374:  e1560003      cmp	r6, r3
0xf67ec378:  e0880000      add	r0, r8, r0
0xf67ec37c:  e5850008      str	r0, [r5, #8]
0xf67ec380:  3a000005      bcc	0xf67ec39c

----------------
IN: 
0xf67ec384:  e59f14bc      ldr	r1, [pc, #1212]	; 0xf67ec848
0xf67ec388:  e3a02014      mov	r2, #20	; 0x14
0xf67ec38c:  e08f1001      add	r1, pc, r1
0xf67ec390:  eb000d2d      bl	0xf67ef84c

----------------
IN: 
0xf67ef864:  e3110003      tst	r1, #3	; 0x3
0xf67ef868:  e1a0c001      mov	ip, r1
0xf67ef86c:  0a000010      beq	0xf67ef8b4

----------------
IN: 
0xf67ef8b4:  e21e4003      ands	r4, lr, #3	; 0x3
0xf67ef8b8:  e1a01122      lsr	r1, r2, #2
0xf67ef8bc:  1a000034      bne	0xf67ef994

----------------
IN: 
0xf67ef8c0:  e2010003      and	r0, r1, #3	; 0x3
0xf67ef8c4:  e3500001      cmp	r0, #1	; 0x1
0xf67ef8c8:  0a0000b7      beq	0xf67efbac

----------------
IN: 
0xf67efbac:  e1a0000e      mov	r0, lr
0xf67efbb0:  e4905004      ldr	r5, [r0], #4
0xf67efbb4:  e5934000      ldr	r4, [r3]
0xf67efbb8:  e2411001      sub	r1, r1, #1	; 0x1
0xf67efbbc:  e28c3004      add	r3, ip, #4	; 0x4
0xf67efbc0:  e1550004      cmp	r5, r4
0xf67efbc4:  e5907000      ldr	r7, [r0]
0xf67efbc8:  e5936000      ldr	r6, [r3]
0xf67efbcc:  0affffd1      beq	0xf67efb18

----------------
IN: 
0xf67efb18:  e1570006      cmp	r7, r6
0xf67efb1c:  e5905004      ldr	r5, [r0, #4]
0xf67efb20:  e5934004      ldr	r4, [r3, #4]
0xf67efb24:  0affff70      beq	0xf67ef8ec

----------------
IN: 
0xf67ef8ec:  e1550004      cmp	r5, r4
0xf67ef8f0:  e5907008      ldr	r7, [r0, #8]
0xf67ef8f4:  e5936008      ldr	r6, [r3, #8]
0xf67ef8f8:  0a000047      beq	0xf67efa1c

----------------
IN: 
0xf67efa1c:  e1570006      cmp	r7, r6
0xf67efa20:  e590500c      ldr	r5, [r0, #12]
0xf67efa24:  e593400c      ldr	r4, [r3, #12]
0xf67efa28:  0a000088      beq	0xf67efc50

----------------
IN: 
0xf67efc50:  e2511004      subs	r1, r1, #4	; 0x4
0xf67efc54:  12800010      addne	r0, r0, #16	; 0x10
0xf67efc58:  12833010      addne	r3, r3, #16	; 0x10
0xf67efc5c:  1affffd7      bne	0xf67efbc0

----------------
IN: 
0xf67efc60:  e1550004      cmp	r5, r4
0xf67efc64:  0affff31      beq	0xf67ef930

----------------
IN: 
0xf67ef930:  e3c23003      bic	r3, r2, #3	; 0x3
0xf67ef934:  e083e00e      add	lr, r3, lr
0xf67ef938:  e2022003      and	r2, r2, #3	; 0x3
0xf67ef93c:  e083300c      add	r3, r3, ip
0xf67ef940:  e3520000      cmp	r2, #0	; 0x0
0xf67ef944:  0a0000ac      beq	0xf67efbfc

----------------
IN: 
0xf67efbfc:  e1a00002      mov	r0, r2
0xf67efc00:  eaffff61      b	0xf67ef98c

----------------
IN: 
0xf67ef98c:  e28dd050      add	sp, sp, #80	; 0x50
0xf67ef990:  e8bd87f0      pop	{r4, r5, r6, r7, r8, r9, sl, pc}

----------------
IN: 
0xf67ec394:  e3500000      cmp	r0, #0	; 0x0
0xf67ec398:  0affff7b      beq	0xf67ec18c

----------------
IN: 
0xf67ec18c:  e59f6698      ldr	r6, [pc, #1688]	; 0xf67ec82c
0xf67ec190:  e08f6006      add	r6, pc, r6
0xf67ec194:  e5965008      ldr	r5, [r6, #8]
0xf67ec198:  e3750001      cmn	r5, #1	; 0x1
0xf67ec19c:  0a000034      beq	0xf67ec274

----------------
IN: 
0xf67ec1a0:  e59f0688      ldr	r0, [pc, #1672]	; 0xf67ec830
0xf67ec1a4:  e5963004      ldr	r3, [r6, #4]
0xf67ec1a8:  e08f0000      add	r0, pc, r0
0xf67ec1ac:  e3a01000      mov	r1, #0	; 0x0
0xf67ec1b0:  e0888003      add	r8, r8, r3
0xf67ec1b4:  eb000b61      bl	0xf67eef40

----------------
IN: 
0xf67ec1b8:  e5962008      ldr	r2, [r6, #8]
0xf67ec1bc:  e59f3670      ldr	r3, [pc, #1648]	; 0xf67ec834
0xf67ec1c0:  e5929014      ldr	r9, [r2, #20]
0xf67ec1c4:  e08f3003      add	r3, pc, r3
0xf67ec1c8:  e2599001      subs	r9, r9, #1	; 0x1
0xf67ec1cc:  e2837040      add	r7, r3, #64	; 0x40
0xf67ec1d0:  e89700c0      ldm	r7, {r6, r7}
0xf67ec1d4:  e0658008      rsb	r8, r5, r8
0xf67ec1d8:  e58d6010      str	r6, [sp, #16]
0xf67ec1dc:  e58d7014      str	r7, [sp, #20]
0xf67ec1e0:  e2837048      add	r7, r3, #72	; 0x48
0xf67ec1e4:  e89700c0      ldm	r7, {r6, r7}
0xf67ec1e8:  e58d0020      str	r0, [sp, #32]
0xf67ec1ec:  e58d6018      str	r6, [sp, #24]
0xf67ec1f0:  e58d701c      str	r7, [sp, #28]
0xf67ec1f4:  4a00001b      bmi	0xf67ec268

----------------
IN: 
0xf67ec1f8:  e1a060c9      asr	r6, r9, #1
0xf67ec1fc:  e0861086      add	r1, r6, r6, lsl #1
0xf67ec200:  e0822181      add	r2, r2, r1, lsl #3
0xf67ec204:  e5921034      ldr	r1, [r2, #52]
0xf67ec208:  e1580001      cmp	r8, r1
0xf67ec20c:  9a000015      bls	0xf67ec268

----------------
IN: 
0xf67ec210:  e59f7620      ldr	r7, [pc, #1568]	; 0xf67ec838
0xf67ec214:  e3a0a000      mov	sl, #0	; 0x0
0xf67ec218:  e08f7007      add	r7, pc, r7
0xf67ec21c:  ea000008      b	0xf67ec244

----------------
IN: 
0xf67ec244:  e0851001      add	r1, r5, r1
0xf67ec248:  e1a00004      mov	r0, r4
0xf67ec24c:  ebffff81      bl	0xf67ec058

----------------
IN: 
0xf67ec058:  e92d4010      push	{r4, lr}
0xf67ec05c:  e5d03000      ldrb	r3, [r0]
0xf67ec060:  e3530000      cmp	r3, #0	; 0x0
0xf67ec064:  0a000030      beq	0xf67ec12c

----------------
IN: 
0xf67ec068:  e2432030      sub	r2, r3, #48	; 0x30
0xf67ec06c:  e202c0ff      and	ip, r2, #255	; 0xff
0xf67ec070:  e35c0009      cmp	ip, #9	; 0x9
0xf67ec074:  8a000021      bhi	0xf67ec100

----------------
IN: 
0xf67ec100:  e5d12000      ldrb	r2, [r1]
0xf67ec104:  e242c030      sub	ip, r2, #48	; 0x30
0xf67ec108:  e35c0009      cmp	ip, #9	; 0x9
0xf67ec10c:  9a000009      bls	0xf67ec138

----------------
IN: 
0xf67ec110:  e1530002      cmp	r3, r2
0xf67ec114:  1a000009      bne	0xf67ec140

----------------
IN: 
0xf67ec118:  e2800001      add	r0, r0, #1	; 0x1
0xf67ec11c:  e5d03000      ldrb	r3, [r0]
0xf67ec120:  e2811001      add	r1, r1, #1	; 0x1
0xf67ec124:  e3530000      cmp	r3, #0	; 0x0
0xf67ec128:  1affffce      bne	0xf67ec068

----------------
IN: 
0xf67ec140:  e0620003      rsb	r0, r2, r3
0xf67ec144:  e8bd8010      pop	{r4, pc}

----------------
IN: 
0xf67ec250:  e3500000      cmp	r0, #0	; 0x0
0xf67ec254:  0a000072      beq	0xf67ec424

----------------
IN: 
0xf67ec258:  b286a001      addlt	sl, r6, #1	; 0x1
0xf67ec25c:  a2469001      subge	r9, r6, #1	; 0x1
0xf67ec260:  e15a0009      cmp	sl, r9
0xf67ec264:  daffffed      ble	0xf67ec220

----------------
IN: 
0xf67ec220:  e08a6009      add	r6, sl, r9
0xf67ec224:  e0866fa6      add	r6, r6, r6, lsr #31
0xf67ec228:  e1a060c6      asr	r6, r6, #1
0xf67ec22c:  e5973008      ldr	r3, [r7, #8]
0xf67ec230:  e0862086      add	r2, r6, r6, lsl #1
0xf67ec234:  e0833182      add	r3, r3, r2, lsl #3
0xf67ec238:  e5931034      ldr	r1, [r3, #52]
0xf67ec23c:  e1580001      cmp	r8, r1
0xf67ec240:  9a000008      bls	0xf67ec268

----------------
IN: 
0xf67ec078:  e5d13000      ldrb	r3, [r1]
0xf67ec07c:  e2433030      sub	r3, r3, #48	; 0x30
0xf67ec080:  e203c0ff      and	ip, r3, #255	; 0xff
0xf67ec084:  e35c0009      cmp	ip, #9	; 0x9
0xf67ec088:  8a00002e      bhi	0xf67ec148

----------------
IN: 
0xf67ec08c:  e5d0c001      ldrb	ip, [r0, #1]
0xf67ec090:  e2814001      add	r4, r1, #1	; 0x1
0xf67ec094:  e24ce030      sub	lr, ip, #48	; 0x30
0xf67ec098:  e35e0009      cmp	lr, #9	; 0x9
0xf67ec09c:  e2800001      add	r0, r0, #1	; 0x1
0xf67ec0a0:  8a000006      bhi	0xf67ec0c0

----------------
IN: 
0xf67ec0c0:  e5d1c001      ldrb	ip, [r1, #1]
0xf67ec0c4:  e24c1030      sub	r1, ip, #48	; 0x30
0xf67ec0c8:  e3510009      cmp	r1, #9	; 0x9
0xf67ec0cc:  e1a01004      mov	r1, r4
0xf67ec0d0:  8a000006      bhi	0xf67ec0f0

----------------
IN: 
0xf67ec0f0:  e1520003      cmp	r2, r3
0xf67ec0f4:  0affffd8      beq	0xf67ec05c

----------------
IN: 
0xf67ec05c:  e5d03000      ldrb	r3, [r0]
0xf67ec060:  e3530000      cmp	r3, #0	; 0x0
0xf67ec064:  0a000030      beq	0xf67ec12c

----------------
IN: 
0xf67ec12c:  e5d10000      ldrb	r0, [r1]
0xf67ec130:  e2600000      rsb	r0, r0, #0	; 0x0
0xf67ec134:  e8bd8010      pop	{r4, pc}

----------------
IN: 
0xf67ec424:  e2567000      subs	r7, r6, #0	; 0x0
0xf67ec428:  e58d7024      str	r7, [sp, #36]
0xf67ec42c:  da0000f7      ble	0xf67ec810

----------------
IN: 
0xf67ec430:  e59f242c      ldr	r2, [pc, #1068]	; 0xf67ec864
0xf67ec434:  e246c001      sub	ip, r6, #1	; 0x1
0xf67ec438:  e08f2002      add	r2, pc, r2
0xf67ec43c:  e5921008      ldr	r1, [r2, #8]
0xf67ec440:  e08c208c      add	r2, ip, ip, lsl #1
0xf67ec444:  e0812182      add	r2, r1, r2, lsl #3
0xf67ec448:  e5922034      ldr	r2, [r2, #52]
0xf67ec44c:  e1580002      cmp	r8, r2
0xf67ec450:  9a0000ec      bls	0xf67ec808

----------------
IN: 
0xf67ec454:  e59fa40c      ldr	sl, [pc, #1036]	; 0xf67ec868
0xf67ec458:  e1a0700c      mov	r7, ip
0xf67ec45c:  e08fa00a      add	sl, pc, sl
0xf67ec460:  ea00000a      b	0xf67ec490

----------------
IN: 
0xf67ec490:  e0851002      add	r1, r5, r2
0xf67ec494:  e1a00004      mov	r0, r4
0xf67ec498:  ebfffeee      bl	0xf67ec058

----------------
IN: 
0xf67ec49c:  e3500000      cmp	r0, #0	; 0x0
0xf67ec4a0:  0affffef      beq	0xf67ec464

----------------
IN: 
0xf67ec4a4:  e1a0c006      mov	ip, r6
0xf67ec4a8:  e59f23bc      ldr	r2, [pc, #956]	; 0xf67ec86c
0xf67ec4ac:  e08f2002      add	r2, pc, r2
0xf67ec4b0:  e5921008      ldr	r1, [r2, #8]
0xf67ec4b4:  e3a02000      mov	r2, #0	; 0x0
0xf67ec4b8:  e28d7010      add	r7, sp, #16	; 0x10
0xf67ec4bc:  e89700c0      ldm	r7, {r6, r7}
0xf67ec4c0:  e58d200c      str	r2, [sp, #12]
0xf67ec4c4:  e28d3018      add	r3, sp, #24	; 0x18
0xf67ec4c8:  e893000c      ldm	r3, {r2, r3}
0xf67ec4cc:  e0033007      and	r3, r3, r7
0xf67ec4d0:  e59f7398      ldr	r7, [pc, #920]	; 0xf67ec870
0xf67ec4d4:  e0022006      and	r2, r2, r6
0xf67ec4d8:  e08f7007      add	r7, pc, r7
0xf67ec4dc:  e3833102      orr	r3, r3, #-2147483648	; 0x80000000
0xf67ec4e0:  e1e06002      mvn	r6, r2
0xf67ec4e4:  e58d7018      str	r7, [sp, #24]
0xf67ec4e8:  e1e07003      mvn	r7, r3
0xf67ec4ec:  e59fa380      ldr	sl, [pc, #896]	; 0xf67ec874
0xf67ec4f0:  e59fb380      ldr	fp, [pc, #896]	; 0xf67ec878
0xf67ec4f4:  e58d6010      str	r6, [sp, #16]
0xf67ec4f8:  e58d7014      str	r7, [sp, #20]
0xf67ec4fc:  e08fa00a      add	sl, pc, sl
0xf67ec500:  e08fb00b      add	fp, pc, fp
0xf67ec504:  e1a0600c      mov	r6, ip
0xf67ec508:  ea000005      b	0xf67ec524

----------------
IN: 
0xf67ec524:  e59d7024      ldr	r7, [sp, #36]
0xf67ec528:  e0863086      add	r3, r6, r6, lsl #1
0xf67ec52c:  e1560007      cmp	r6, r7
0xf67ec530:  e0811183      add	r1, r1, r3, lsl #3
0xf67ec534:  e2817030      add	r7, r1, #48	; 0x30
0xf67ec538:  da000007      ble	0xf67ec55c

----------------
IN: 
0xf67ec55c:  e597c000      ldr	ip, [r7]
0xf67ec560:  e59f3318      ldr	r3, [pc, #792]	; 0xf67ec880
0xf67ec564:  e15c0003      cmp	ip, r3
0xf67ec568:  135c0003      cmpne	ip, #3	; 0x3
0xf67ec56c:  1affffe6      bne	0xf67ec50c

----------------
IN: 
0xf67ec50c:  e2866001      add	r6, r6, #1	; 0x1
0xf67ec510:  e1590006      cmp	r9, r6
0xf67ec514:  ba000037      blt	0xf67ec5f8

----------------
IN: 
0xf67ec518:  e59f335c      ldr	r3, [pc, #860]	; 0xf67ec87c
0xf67ec51c:  e08f3003      add	r3, pc, r3
0xf67ec520:  e5931008      ldr	r1, [r3, #8]
0xf67ec524:  e59d7024      ldr	r7, [sp, #36]
0xf67ec528:  e0863086      add	r3, r6, r6, lsl #1
0xf67ec52c:  e1560007      cmp	r6, r7
0xf67ec530:  e0811183      add	r1, r1, r3, lsl #3
0xf67ec534:  e2817030      add	r7, r1, #48	; 0x30
0xf67ec538:  da000007      ble	0xf67ec55c

----------------
IN: 
0xf67ec53c:  e5971004      ldr	r1, [r7, #4]
0xf67ec540:  e1580001      cmp	r8, r1
0xf67ec544:  9a00002b      bls	0xf67ec5f8

----------------
IN: 
0xf67ec548:  e0851001      add	r1, r5, r1
0xf67ec54c:  e1a00004      mov	r0, r4
0xf67ec550:  ebfffec0      bl	0xf67ec058

----------------
IN: 
0xf67ec554:  e3500000      cmp	r0, #0	; 0x0
0xf67ec558:  1a000026      bne	0xf67ec5f8

----------------
IN: 
0xf67ec5f8:  e59f3284      ldr	r3, [pc, #644]	; 0xf67ec884
0xf67ec5fc:  e08f3003      add	r3, pc, r3
0xf67ec600:  e5933000      ldr	r3, [r3]
0xf67ec604:  e3130001      tst	r3, #1	; 0x1
0xf67ec608:  059d000c      ldreq	r0, [sp, #12]
0xf67ec60c:  0affff16      beq	0xf67ec26c

----------------
IN: 
0xf67ec26c:  e28dd02c      add	sp, sp, #44	; 0x2c
0xf67ec270:  e8bd8ff0      pop	{r4, r5, r6, r7, r8, r9, sl, fp, pc}

----------------
IN: 
0xf67def80:  e250a000      subs	sl, r0, #0	; 0x0
0xf67def84:  0a00001c      beq	0xf67deffc

----------------
IN: 
0xf67deffc:  e3590000      cmp	r9, #0	; 0x0

----------------
IN: 
0xf67df000:  11a02006      movne	r2, r6
0xf67df004:  0a0000b9      beq	0xf67df2f0

----------------
IN: 
0xf67df008:  e5923204      ldr	r3, [r2, #516]
0xf67df00c:  e3130b02      tst	r3, #2048	; 0x800
0xf67df010:  1a000119      bne	0xf67df47c

----------------
IN: 
0xf67df014:  e59f3684      ldr	r3, [pc, #1668]	; 0xf67df6a0
0xf67df018:  e08f3003      add	r3, pc, r3
0xf67df01c:  e5931010      ldr	r1, [r3, #16]
0xf67df020:  e3710001      cmn	r1, #1	; 0x1
0xf67df024:  0affffa9      beq	0xf67deed0

----------------
IN: 
0xf67df028:  e3a0c040      mov	ip, #64	; 0x40
0xf67df02c:  e28d004c      add	r0, sp, #76	; 0x4c
0xf67df030:  e28de04b      add	lr, sp, #75	; 0x4b
0xf67df034:  e58d0000      str	r0, [sp]
0xf67df038:  e28d0054      add	r0, sp, #84	; 0x54
0xf67df03c:  e58d2008      str	r2, [sp, #8]
0xf67df040:  e59d1028      ldr	r1, [sp, #40]
0xf67df044:  e58d0004      str	r0, [sp, #4]
0xf67df048:  e59d202c      ldr	r2, [sp, #44]
0xf67df04c:  e2833010      add	r3, r3, #16	; 0x10
0xf67df050:  e58de010      str	lr, [sp, #16]
0xf67df054:  e58dc00c      str	ip, [sp, #12]
0xf67df058:  e1a00004      mov	r0, r4
0xf67df05c:  ebfff94a      bl	0xf67dd58c

----------------
IN: 
0xf67dd58c:  e92d4ff0      push	{r4, r5, r6, r7, r8, r9, sl, fp, lr}
0xf67dd590:  e28db020      add	fp, sp, #32	; 0x20
0xf67dd594:  e24dd0cc      sub	sp, sp, #204	; 0xcc
0xf67dd598:  e50b30c0      str	r3, [fp, #-192]
0xf67dd59c:  e5933000      ldr	r3, [r3]
0xf67dd5a0:  e50b009c      str	r0, [fp, #-156]
0xf67dd5a4:  e3530000      cmp	r3, #0	; 0x0
0xf67dd5a8:  e50b1098      str	r1, [fp, #-152]
0xf67dd5ac:  e50b20a0      str	r2, [fp, #-160]
0xf67dd5b0:  e59b600c      ldr	r6, [fp, #12]
0xf67dd5b4:  0a000093      beq	0xf67dd808

----------------
IN: 
0xf67dd5b8:  e3a0c000      mov	ip, #0	; 0x0
0xf67dd5bc:  e50b30a4      str	r3, [fp, #-164]
0xf67dd5c0:  e50bc0a8      str	ip, [fp, #-168]
0xf67dd5c4:  e50bc0c4      str	ip, [fp, #-196]
0xf67dd5c8:  e59f25b8      ldr	r2, [pc, #1464]	; 0xf67ddb88
0xf67dd5cc:  e51bc0a4      ldr	ip, [fp, #-164]
0xf67dd5d0:  e59f35b4      ldr	r3, [pc, #1460]	; 0xf67ddb8c
0xf67dd5d4:  e49ca004      ldr	sl, [ip], #4
0xf67dd5d8:  e08f2002      add	r2, pc, r2
0xf67dd5dc:  e08f3003      add	r3, pc, r3
0xf67dd5e0:  e5922004      ldr	r2, [r2, #4]
0xf67dd5e4:  e5933000      ldr	r3, [r3]
0xf67dd5e8:  e50bc0a4      str	ip, [fp, #-164]
0xf67dd5ec:  e51bc098      ldr	ip, [fp, #-152]
0xf67dd5f0:  e0823003      add	r3, r2, r3
0xf67dd5f4:  e083300c      add	r3, r3, ip
0xf67dd5f8:  e59fc590      ldr	ip, [pc, #1424]	; 0xf67ddb90
0xf67dd5fc:  e283300e      add	r3, r3, #14	; 0xe
0xf67dd600:  e08fc00c      add	ip, pc, ip
0xf67dd604:  e50bc0b0      str	ip, [fp, #-176]
0xf67dd608:  e59fc584      ldr	ip, [pc, #1412]	; 0xf67ddb94
0xf67dd60c:  e3c33007      bic	r3, r3, #7	; 0x7
0xf67dd610:  e08fc00c      add	ip, pc, ip
0xf67dd614:  e50bc0c8      str	ip, [fp, #-200]
0xf67dd618:  e59fc578      ldr	ip, [pc, #1400]	; 0xf67ddb98
0xf67dd61c:  e04dd003      sub	sp, sp, r3
0xf67dd620:  e08fc00c      add	ip, pc, ip
0xf67dd624:  e50bc0cc      str	ip, [fp, #-204]
0xf67dd628:  e59fc56c      ldr	ip, [pc, #1388]	; 0xf67ddb9c
0xf67dd62c:  e28d9008      add	r9, sp, #8	; 0x8
0xf67dd630:  e08fc00c      add	ip, pc, ip
0xf67dd634:  e50bc0d0      str	ip, [fp, #-208]
0xf67dd638:  e59fc560      ldr	ip, [pc, #1376]	; 0xf67ddba0
0xf67dd63c:  e08fc00c      add	ip, pc, ip
0xf67dd640:  e50bc0d4      str	ip, [fp, #-212]
0xf67dd644:  e59fc558      ldr	ip, [pc, #1368]	; 0xf67ddba4
0xf67dd648:  e08fc00c      add	ip, pc, ip
0xf67dd64c:  e50bc0d8      str	ip, [fp, #-216]
0xf67dd650:  e51bc0b0      ldr	ip, [fp, #-176]
0xf67dd654:  e59c3000      ldr	r3, [ip]
0xf67dd658:  e3130001      tst	r3, #1	; 0x1
0xf67dd65c:  1a0000b8      bne	0xf67dd944

----------------
IN: 
0xf67dd660:  e1a00009      mov	r0, r9
0xf67dd664:  e59a100c      ldr	r1, [sl, #12]
0xf67dd668:  e59a2010      ldr	r2, [sl, #16]
0xf67dd66c:  eb004a53      bl	0xf67effc0

----------------
IN: 
0xf67f0054:  e4915004      ldr	r5, [r1], #4
0xf67f0058:  e4916004      ldr	r6, [r1], #4
0xf67f005c:  e4917004      ldr	r7, [r1], #4
0xf67f0060:  e4918004      ldr	r8, [r1], #4
0xf67f0064:  e491e004      ldr	lr, [r1], #4
0xf67f0068:  e08ff00c      add	pc, pc, ip

----------------
IN: 
0xf67f007c:  e4805004      str	r5, [r0], #4
0xf67f0080:  e4806004      str	r6, [r0], #4
0xf67f0084:  e4807004      str	r7, [r0], #4
0xf67f0088:  e4808004      str	r8, [r0], #4
0xf67f008c:  e480e004      str	lr, [r0], #4
0xf67f0090:  e8bd01e0      pop	{r5, r6, r7, r8}
0xf67f0094:  e1b02f82      lsls	r2, r2, #31
0xf67f0098:  14d13001      ldrbne	r3, [r1], #1
0xf67f009c:  24d14001      ldrbcs	r4, [r1], #1
0xf67f00a0:  25d1c000      ldrbcs	ip, [r1]
0xf67f00a4:  14c03001      strbne	r3, [r0], #1
0xf67f00a8:  24c04001      strbcs	r4, [r0], #1
0xf67f00ac:  25c0c000      strbcs	ip, [r0]
0xf67f00b0:  e8bd8011      pop	{r0, r4, pc}

----------------
IN: 
0xf67dd670:  e59f3530      ldr	r3, [pc, #1328]	; 0xf67ddba8
0xf67dd674:  e50b0090      str	r0, [fp, #-144]
0xf67dd678:  e08f3003      add	r3, pc, r3
0xf67dd67c:  e5935008      ldr	r5, [r3, #8]
0xf67dd680:  e3550000      cmp	r5, #0	; 0x0
0xf67dd684:  0a000055      beq	0xf67dd7e0

----------------
IN: 
0xf67dd688:  e59f751c      ldr	r7, [pc, #1308]	; 0xf67ddbac
0xf67dd68c:  e3a04000      mov	r4, #0	; 0x0
0xf67dd690:  e08f7007      add	r7, pc, r7
0xf67dd694:  e1a03007      mov	r3, r7
0xf67dd698:  e59fc510      ldr	ip, [pc, #1296]	; 0xf67ddbb0
0xf67dd69c:  e59f8510      ldr	r8, [pc, #1296]	; 0xf67ddbb4
0xf67dd6a0:  e08fc00c      add	ip, pc, ip
0xf67dd6a4:  e50bc0b4      str	ip, [fp, #-180]
0xf67dd6a8:  e59fc508      ldr	ip, [pc, #1288]	; 0xf67ddbb8
0xf67dd6ac:  e1a0700a      mov	r7, sl
0xf67dd6b0:  e08fc00c      add	ip, pc, ip
0xf67dd6b4:  e50bc0b8      str	ip, [fp, #-184]
0xf67dd6b8:  e59fc4fc      ldr	ip, [pc, #1276]	; 0xf67ddbbc
0xf67dd6bc:  e1a05004      mov	r5, r4
0xf67dd6c0:  e08fc00c      add	ip, pc, ip
0xf67dd6c4:  e50bc0ac      str	ip, [fp, #-172]
0xf67dd6c8:  e59fc4f0      ldr	ip, [pc, #1264]	; 0xf67ddbc0
0xf67dd6cc:  e08f8008      add	r8, pc, r8
0xf67dd6d0:  e08fc00c      add	ip, pc, ip
0xf67dd6d4:  e50bc0bc      str	ip, [fp, #-188]
0xf67dd6d8:  e1a0a003      mov	sl, r3
0xf67dd6dc:  ea00002b      b	0xf67dd790

----------------
IN: 
0xf67dd790:  e5973014      ldr	r3, [r7, #20]
0xf67dd794:  e3530001      cmp	r3, #1	; 0x1
0xf67dd798:  1affffd0      bne	0xf67dd6e0

----------------
IN: 
0xf67dd6e0:  e598300c      ldr	r3, [r8, #12]
0xf67dd6e4:  e51b0090      ldr	r0, [fp, #-144]
0xf67dd6e8:  e0832184      add	r2, r3, r4, lsl #3
0xf67dd6ec:  e7931184      ldr	r1, [r3, r4, lsl #3]
0xf67dd6f0:  e5922004      ldr	r2, [r2, #4]
0xf67dd6f4:  eb004a31      bl	0xf67effc0

----------------
IN: 
0xf67f00b4:  e26cc004      rsb	ip, ip, #4	; 0x4
0xf67f00b8:  e35c0002      cmp	ip, #2	; 0x2
0xf67f00bc:  c4d13001      ldrbgt	r3, [r1], #1
0xf67f00c0:  a4d14001      ldrbge	r4, [r1], #1
0xf67f00c4:  e4d1e001      ldrb	lr, [r1], #1
0xf67f00c8:  c4c03001      strbgt	r3, [r0], #1
0xf67f00cc:  a4c04001      strbge	r4, [r0], #1
0xf67f00d0:  e052200c      subs	r2, r2, ip
0xf67f00d4:  e4c0e001      strb	lr, [r0], #1
0xf67f00d8:  baffffed      blt	0xf67f0094

----------------
IN: 
0xf67f00dc:  e211c003      ands	ip, r1, #3	; 0x3
0xf67f00e0:  0affffcd      beq	0xf67f001c

----------------
IN: 
0xf67f00e4:  e3c11003      bic	r1, r1, #3	; 0x3
0xf67f00e8:  e35c0002      cmp	ip, #2	; 0x2
0xf67f00ec:  e491e004      ldr	lr, [r1], #4
0xf67f00f0:  0a000023      beq	0xf67f0184

----------------
IN: 
0xf67f00f4:  ca000045      bgt	0xf67f0210

----------------
IN: 
0xf67f00f8:  e252201c      subs	r2, r2, #28	; 0x1c
0xf67f00fc:  ba000016      blt	0xf67f015c

----------------
IN: 
0xf67f015c:  e212c01c      ands	ip, r2, #28	; 0x1c
0xf67f0160:  0a000005      beq	0xf67f017c

----------------
IN: 
0xf67f0164:  e1a0342e      lsr	r3, lr, #8
0xf67f0168:  e491e004      ldr	lr, [r1], #4
0xf67f016c:  e25cc004      subs	ip, ip, #4	; 0x4
0xf67f0170:  e1833c0e      orr	r3, r3, lr, lsl #24
0xf67f0174:  e4803004      str	r3, [r0], #4
0xf67f0178:  cafffff9      bgt	0xf67f0164

----------------
IN: 
0xf67f017c:  e2411003      sub	r1, r1, #3	; 0x3
0xf67f0180:  eaffffc3      b	0xf67f0094

----------------
IN: 
0xf67dd6f8:  e51b109c      ldr	r1, [fp, #-156]
0xf67dd6fc:  e51b2098      ldr	r2, [fp, #-152]
0xf67dd700:  eb004a2e      bl	0xf67effc0

----------------
IN: 
0xf67dd704:  e59a3000      ldr	r3, [sl]
0xf67dd708:  e0690000      rsb	r0, r9, r0
0xf67dd70c:  e3130001      tst	r3, #1	; 0x1
0xf67dd710:  e50b0094      str	r0, [fp, #-148]
0xf67dd714:  1a000070      bne	0xf67dd8dc

----------------
IN: 
0xf67dd718:  e3a03000      mov	r3, #0	; 0x0
0xf67dd71c:  e59bc014      ldr	ip, [fp, #20]
0xf67dd720:  e58d3004      str	r3, [sp, #4]
0xf67dd724:  e58dc000      str	ip, [sp]
0xf67dd728:  e1a02006      mov	r2, r6
0xf67dd72c:  e59b3010      ldr	r3, [fp, #16]
0xf67dd730:  e1a00009      mov	r0, r9
0xf67dd734:  e59b1008      ldr	r1, [fp, #8]
0xf67dd738:  ebfffddd      bl	0xf67dceb4

----------------
IN: 
0xf67dceb4:  e92d4ff0      push	{r4, r5, r6, r7, r8, r9, sl, fp, lr}
0xf67dceb8:  e59fc650      ldr	ip, [pc, #1616]	; 0xf67dd510
0xf67dcebc:  e28db020      add	fp, sp, #32	; 0x20
0xf67dcec0:  e24dd02c      sub	sp, sp, #44	; 0x2c
0xf67dcec4:  e08fc00c      add	ip, pc, ip
0xf67dcec8:  e50b0034      str	r0, [fp, #-52]
0xf67dcecc:  e59c0174      ldr	r0, [ip, #372]
0xf67dced0:  e1a06001      mov	r6, r1
0xf67dced4:  e3500000      cmp	r0, #0	; 0x0
0xf67dced8:  e5db0008      ldrb	r0, [fp, #8]
0xf67dcedc:  e50b003c      str	r0, [fp, #-60]
0xf67dcee0:  1a0000b5      bne	0xf67dd1bc

----------------
IN: 
0xf67dcee4:  e51b0034      ldr	r0, [fp, #-52]
0xf67dcee8:  e3a01702      mov	r1, #524288	; 0x80000
0xf67dceec:  eb0047d3      bl	0xf67eee40

----------------
IN: 
0xf67eee58:  eaffffff      b	0xf67eee5c

----------------
IN: 
0xf67eee5c:  e2600000      rsb	r0, r0, #0	; 0x0
0xf67eee60:  e59f1008      ldr	r1, [pc, #8]	; 0xf67eee70
0xf67eee64:  e78f0001      str	r0, [pc, r1]
0xf67eee68:  e3e00000      mvn	r0, #0	; 0x0
0xf67eee6c:  e12fff1e      bx	lr

----------------
IN: 
0xf67dcef0:  e3700001      cmn	r0, #1	; 0x1
0xf67dcef4:  e50b0030      str	r0, [fp, #-48]
0xf67dcef8:  0a0000cb      beq	0xf67dd22c

----------------
IN: 
0xf67dd22c:  e3e00000      mvn	r0, #0	; 0x0
0xf67dd230:  e24bd020      sub	sp, fp, #32	; 0x20
0xf67dd234:  e8bd8ff0      pop	{r4, r5, r6, r7, r8, r9, sl, fp, pc}

----------------
IN: 
0xf67dd73c:  e5972014      ldr	r2, [r7, #20]
0xf67dd740:  e1a03000      mov	r3, r0
0xf67dd744:  e3520000      cmp	r2, #0	; 0x0
0xf67dd748:  1a000015      bne	0xf67dd7a4

----------------
IN: 
0xf67dd74c:  e3700001      cmn	r0, #1	; 0x1
0xf67dd750:  0a00002f      beq	0xf67dd814

----------------
IN: 
0xf67dd814:  e3560000      cmp	r6, #0	; 0x0
0xf67dd818:  0a000008      beq	0xf67dd840

----------------
IN: 
0xf67dd81c:  e5963018      ldr	r3, [r6, #24]
0xf67dd820:  e51bc0ac      ldr	ip, [fp, #-172]
0xf67dd824:  e0832183      add	r2, r3, r3, lsl #3
0xf67dd828:  e0833082      add	r3, r3, r2, lsl #1
0xf67dd82c:  e79c3103      ldr	r3, [ip, r3, lsl #2]
0xf67dd830:  e5d33195      ldrb	r3, [r3, #405]
0xf67dd834:  e3130008      tst	r3, #8	; 0x8
0xf67dd838:  13a03001      movne	r3, #1	; 0x1
0xf67dd83c:  1a000012      bne	0xf67dd88c

----------------
IN: 
0xf67dd840:  e51bc098      ldr	ip, [fp, #-152]
0xf67dd844:  e3a02000      mov	r2, #0	; 0x0
0xf67dd848:  e1e0300c      mvn	r3, ip
0xf67dd84c:  e51bc094      ldr	ip, [fp, #-148]
0xf67dd850:  e3a00003      mov	r0, #3	; 0x3
0xf67dd854:  e089100c      add	r1, r9, ip
0xf67dd858:  e7c12003      strb	r2, [r1, r3]
0xf67dd85c:  e1a01009      mov	r1, r9
0xf67dd860:  e24b208c      sub	r2, fp, #140	; 0x8c
0xf67dd864:  eb004542      bl	0xf67eed74

----------------
IN: 
0xf67eed74:  e52d7004      push	{r7}		; (str r7, [sp, #-4]!)
0xf67eed78:  e1a00001      mov	r0, r1
0xf67eed7c:  e3a070c3      mov	r7, #195	; 0xc3
0xf67eed80:  e1a01002      mov	r1, r2
0xf67eed84:  ef000000      svc	0x00000000

----------------
IN: 
0xf67eed88:  e3700a01      cmn	r0, #4096	; 0x1000
0xf67eed8c:  8a000001      bhi	0xf67eed98

----------------
IN: 
0xf67eed98:  e59f3010      ldr	r3, [pc, #16]	; 0xf67eedb0
0xf67eed9c:  e2602000      rsb	r2, r0, #0	; 0x0
0xf67eeda0:  e08f3003      add	r3, pc, r3
0xf67eeda4:  e3e00000      mvn	r0, #0	; 0x0
0xf67eeda8:  e5832000      str	r2, [r3]
0xf67eedac:  eafffff7      b	0xf67eed90

----------------
IN: 
0xf67eed90:  e49d7004      pop	{r7}		; (ldr r7, [sp], #4)
0xf67eed94:  e12fff1e      bx	lr

----------------
IN: 
0xf67dd868:  e3500000      cmp	r0, #0	; 0x0
0xf67dd86c:  1a000003      bne	0xf67dd880

----------------
IN: 
0xf67dd880:  e3a03001      mov	r3, #1	; 0x1
0xf67dd884:  e5873014      str	r3, [r7, #20]
0xf67dd888:  e3a03000      mov	r3, #0	; 0x0
0xf67dd88c:  e1855003      orr	r5, r5, r3
0xf67dd890:  e2844001      add	r4, r4, #1	; 0x1
0xf67dd894:  eaffffb7      b	0xf67dd778

----------------
IN: 
0xf67dd778:  e59f3444      ldr	r3, [pc, #1092]	; 0xf67ddbc4
0xf67dd77c:  e2877004      add	r7, r7, #4	; 0x4
0xf67dd780:  e08f3003      add	r3, pc, r3
0xf67dd784:  e5933008      ldr	r3, [r3, #8]
0xf67dd788:  e1530004      cmp	r3, r4
0xf67dd78c:  9a00000a      bls	0xf67dd7bc

----------------
IN: 
0xf67f0184:  e252201c      subs	r2, r2, #28	; 0x1c
0xf67f0188:  ba000016      blt	0xf67f01e8

----------------
IN: 
0xf67f01e8:  e212c01c      ands	ip, r2, #28	; 0x1c
0xf67f01ec:  0a000005      beq	0xf67f0208

----------------
IN: 
0xf67f01f0:  e1a0382e      lsr	r3, lr, #16
0xf67f01f4:  e491e004      ldr	lr, [r1], #4
0xf67f01f8:  e25cc004      subs	ip, ip, #4	; 0x4
0xf67f01fc:  e183380e      orr	r3, r3, lr, lsl #16
0xf67f0200:  e4803004      str	r3, [r0], #4
0xf67f0204:  cafffff9      bgt	0xf67f01f0

----------------
IN: 
0xf67f0208:  e2411002      sub	r1, r1, #2	; 0x2
0xf67f020c:  eaffffa0      b	0xf67f0094

----------------
IN: 
0xf67dd7bc:  e3550000      cmp	r5, #0	; 0x0
0xf67dd7c0:  0a000006      beq	0xf67dd7e0

----------------
IN: 
0xf67dd7e0:  e51bc0a4      ldr	ip, [fp, #-164]
0xf67dd7e4:  e49ca004      ldr	sl, [ip], #4
0xf67dd7e8:  e50bc0a4      str	ip, [fp, #-164]
0xf67dd7ec:  e51bc0a8      ldr	ip, [fp, #-168]
0xf67dd7f0:  e35a0000      cmp	sl, #0	; 0x0
0xf67dd7f4:  e18cc005      orr	ip, ip, r5
0xf67dd7f8:  e50bc0a8      str	ip, [fp, #-168]
0xf67dd7fc:  1affff93      bne	0xf67dd650

----------------
IN: 
0xf67dd650:  e51bc0b0      ldr	ip, [fp, #-176]
0xf67dd654:  e59c3000      ldr	r3, [ip]
0xf67dd658:  e3130001      tst	r3, #1	; 0x1
0xf67dd65c:  1a0000b8      bne	0xf67dd944

----------------
IN: 
0xf67f0050:  e4914004      ldr	r4, [r1], #4
0xf67f0054:  e4915004      ldr	r5, [r1], #4
0xf67f0058:  e4916004      ldr	r6, [r1], #4
0xf67f005c:  e4917004      ldr	r7, [r1], #4
0xf67f0060:  e4918004      ldr	r8, [r1], #4
0xf67f0064:  e491e004      ldr	lr, [r1], #4
0xf67f0068:  e08ff00c      add	pc, pc, ip

----------------
IN: 
0xf67f0078:  e4804004      str	r4, [r0], #4
0xf67f007c:  e4805004      str	r5, [r0], #4
0xf67f0080:  e4806004      str	r6, [r0], #4
0xf67f0084:  e4807004      str	r7, [r0], #4
0xf67f0088:  e4808004      str	r8, [r0], #4
0xf67f008c:  e480e004      str	lr, [r0], #4
0xf67f0090:  e8bd01e0      pop	{r5, r6, r7, r8}
0xf67f0094:  e1b02f82      lsls	r2, r2, #31
0xf67f0098:  14d13001      ldrbne	r3, [r1], #1
0xf67f009c:  24d14001      ldrbcs	r4, [r1], #1
0xf67f00a0:  25d1c000      ldrbcs	ip, [r1]
0xf67f00a4:  14c03001      strbne	r3, [r0], #1
0xf67f00a8:  24c04001      strbcs	r4, [r0], #1
0xf67f00ac:  25c0c000      strbcs	ip, [r0]
0xf67f00b0:  e8bd8011      pop	{r0, r4, pc}

----------------
IN: 
0xf67f0210:  e252201c      subs	r2, r2, #28	; 0x1c
0xf67f0214:  ba000016      blt	0xf67f0274

----------------
IN: 
0xf67f0274:  e212c01c      ands	ip, r2, #28	; 0x1c
0xf67f0278:  0a000005      beq	0xf67f0294

----------------
IN: 
0xf67f027c:  e1a03c2e      lsr	r3, lr, #24
0xf67f0280:  e491e004      ldr	lr, [r1], #4
0xf67f0284:  e25cc004      subs	ip, ip, #4	; 0x4
0xf67f0288:  e183340e      orr	r3, r3, lr, lsl #8
0xf67f028c:  e4803004      str	r3, [r0], #4
0xf67f0290:  cafffff9      bgt	0xf67f027c

----------------
IN: 
0xf67f0294:  e2411001      sub	r1, r1, #1	; 0x1
0xf67f0298:  eaffff7d      b	0xf67f0094

----------------
IN: 
0xf67dcefc:  e3a03000      mov	r3, #0	; 0x0
0xf67dcf00:  e59f260c      ldr	r2, [pc, #1548]	; 0xf67dd514
0xf67dcf04:  e08f2002      add	r2, pc, r2
0xf67dcf08:  e5823000      str	r3, [r2]
0xf67dcf0c:  e1a02003      mov	r2, r3
0xf67dcf10:  e5863000      str	r3, [r6]
0xf67dcf14:  e0861002      add	r1, r6, r2
0xf67dcf18:  e2811004      add	r1, r1, #4	; 0x4
0xf67dcf1c:  e2622c02      rsb	r2, r2, #512	; 0x200
0xf67dcf20:  e51b0030      ldr	r0, [fp, #-48]
0xf67dcf24:  eb0047d5      bl	0xf67eee80

----------------
IN: 
0xf67eee80:  e52d7004      push	{r7}		; (str r7, [sp, #-4]!)
0xf67eee84:  e3a07003      mov	r7, #3	; 0x3
0xf67eee88:  ef000000      svc	0x00000000

----------------
IN: 
0xf67eee8c:  e49d7004      pop	{r7}		; (ldr r7, [sp], #4)
0xf67eee90:  e3700a01      cmn	r0, #4096	; 0x1000
0xf67eee94:  312fff1e      bxcc	lr

----------------
IN: 
0xf67dcf28:  e3500000      cmp	r0, #0	; 0x0
0xf67dcf2c:  e5964000      ldr	r4, [r6]
0xf67dcf30:  da000004      ble	0xf67dcf48

----------------
IN: 
0xf67dcf34:  e0802004      add	r2, r0, r4
0xf67dcf38:  e3520033      cmp	r2, #51	; 0x33
0xf67dcf3c:  e5862000      str	r2, [r6]
0xf67dcf40:  9afffff3      bls	0xf67dcf14

----------------
IN: 
0xf67dcf44:  e1a04002      mov	r4, r2
0xf67dcf48:  e2863004      add	r3, r6, #4	; 0x4
0xf67dcf4c:  e3540033      cmp	r4, #51	; 0x33
0xf67dcf50:  e50b3038      str	r3, [fp, #-56]
0xf67dcf54:  da000153      ble	0xf67dd4a8

----------------
IN: 
0xf67dcf58:  e59f55b8      ldr	r5, [pc, #1464]	; 0xf67dd518
0xf67dcf5c:  e51b0038      ldr	r0, [fp, #-56]
0xf67dcf60:  e08f5005      add	r5, pc, r5
0xf67dcf64:  e2851054      add	r1, r5, #84	; 0x54
0xf67dcf68:  e3a02008      mov	r2, #8	; 0x8
0xf67dcf6c:  eb004a36      bl	0xf67ef84c

----------------
IN: 
0xf67dcf70:  e3500000      cmp	r0, #0	; 0x0
0xf67dcf74:  1a00013e      bne	0xf67dd474

----------------
IN: 
0xf67dcf78:  e5961028      ldr	r1, [r6, #40]
0xf67dcf7c:  e59f3598      ldr	r3, [pc, #1432]	; 0xf67dd51c
0xf67dcf80:  e59f2598      ldr	r2, [pc, #1432]	; 0xf67dd520
0xf67dcf84:  e0033001      and	r3, r3, r1
0xf67dcf88:  e1530002      cmp	r3, r2
0xf67dcf8c:  0a000077      beq	0xf67dd170

----------------
IN: 
0xf67dcf90:  e5d6300c      ldrb	r3, [r6, #12]
0xf67dcf94:  e3530000      cmp	r3, #0	; 0x0
0xf67dcf98:  1a00006f      bne	0xf67dd15c

----------------
IN: 
0xf67dcf9c:  e59f1580      ldr	r1, [pc, #1408]	; 0xf67dd524
0xf67dcfa0:  e3a02007      mov	r2, #7	; 0x7
0xf67dcfa4:  e08f1001      add	r1, pc, r1
0xf67dcfa8:  e286000d      add	r0, r6, #13	; 0xd
0xf67dcfac:  e281105d      add	r1, r1, #93	; 0x5d
0xf67dcfb0:  eb004a25      bl	0xf67ef84c

----------------
IN: 
0xf67dcfb4:  e2502000      subs	r2, r0, #0	; 0x0
0xf67dcfb8:  1a00006c      bne	0xf67dd170

----------------
IN: 
0xf67dcfbc:  e5963018      ldr	r3, [r6, #24]
0xf67dcfc0:  e3530001      cmp	r3, #1	; 0x1
0xf67dcfc4:  1a00014d      bne	0xf67dd500

----------------
IN: 
0xf67dcfc8:  e1d631b6      ldrh	r3, [r6, #22]
0xf67dcfcc:  e3530028      cmp	r3, #40	; 0x28
0xf67dcfd0:  1a000070      bne	0xf67dd198

----------------
IN: 
0xf67dcfd4:  e1d631b4      ldrh	r3, [r6, #20]
0xf67dcfd8:  e2433002      sub	r3, r3, #2	; 0x2
0xf67dcfdc:  e1a03803      lsl	r3, r3, #16
0xf67dcfe0:  e3530801      cmp	r3, #65536	; 0x10000
0xf67dcfe4:  8a000141      bhi	0xf67dd4f0

----------------
IN: 
0xf67dcfe8:  e1d632be      ldrh	r3, [r6, #46]
0xf67dcfec:  e3530020      cmp	r3, #32	; 0x20
0xf67dcff0:  1a00013a      bne	0xf67dd4e0

----------------
IN: 
0xf67dcff4:  e1d6e3b0      ldrh	lr, [r6, #48]
0xf67dcff8:  e5961020      ldr	r1, [r6, #32]
0xf67dcffc:  e1a0528e      lsl	r5, lr, #5

----------------
IN: 
0xf67dd000:  e0853001      add	r3, r5, r1
0xf67dd004:  e1530004      cmp	r3, r4
0xf67dd008:  8a0000ae      bhi	0xf67dd2c8

----------------
IN: 
0xf67dd00c:  e0861001      add	r1, r6, r1
0xf67dd010:  e2817004      add	r7, r1, #4	; 0x4
0xf67dd014:  e0875005      add	r5, r7, r5
0xf67dd018:  e1570005      cmp	r7, r5
0xf67dd01c:  2a000039      bcs	0xf67dd108

----------------
IN: 
0xf67dd020:  e59f8500      ldr	r8, [pc, #1280]	; 0xf67dd528
0xf67dd024:  e2874020      add	r4, r7, #32	; 0x20
0xf67dd028:  e08f8008      add	r8, pc, r8
0xf67dd02c:  e2888070      add	r8, r8, #112	; 0x70
0xf67dd030:  ea000003      b	0xf67dd044

----------------
IN: 
0xf67dd044:  e5143020      ldr	r3, [r4, #-32]
0xf67dd048:  e1a0a004      mov	sl, r4
0xf67dd04c:  e3530004      cmp	r3, #4	; 0x4
0xf67dd050:  1afffff7      bne	0xf67dd034

----------------
IN: 
0xf67dd034:  e087328e      add	r3, r7, lr, lsl #5
0xf67dd038:  e15a0003      cmp	sl, r3
0xf67dd03c:  e2844020      add	r4, r4, #32	; 0x20
0xf67dd040:  2a000030      bcs	0xf67dd108

----------------
IN: 
0xf67dd054:  e5149010      ldr	r9, [r4, #-16]
0xf67dd058:  e359001f      cmp	r9, #31	; 0x1f
0xf67dd05c:  9afffff4      bls	0xf67dd034

----------------
IN: 
0xf67dd060:  e5143004      ldr	r3, [r4, #-4]
0xf67dd064:  e3530003      cmp	r3, #3	; 0x3
0xf67dd068:  9afffff1      bls	0xf67dd034

----------------
IN: 
0xf67dd06c:  e514101c      ldr	r1, [r4, #-28]
0xf67dd070:  e5963000      ldr	r3, [r6]
0xf67dd074:  e0812009      add	r2, r1, r9
0xf67dd078:  e1520003      cmp	r2, r3
0xf67dd07c:  8a00007e      bhi	0xf67dd27c

----------------
IN: 
0xf67dd080:  e0861001      add	r1, r6, r1
0xf67dd084:  e2815004      add	r5, r1, #4	; 0x4
0xf67dd088:  ea00000b      b	0xf67dd0bc

----------------
IN: 
0xf67dd0bc:  e1a00005      mov	r0, r5
0xf67dd0c0:  e1a01008      mov	r1, r8
0xf67dd0c4:  e3a02010      mov	r2, #16	; 0x10
0xf67dd0c8:  eb0049df      bl	0xf67ef84c

----------------
IN: 
0xf67ef8cc:  3a00008e      bcc	0xf67efb0c

----------------
IN: 
0xf67efb0c:  e1a0000e      mov	r0, lr
0xf67efb10:  e59e7000      ldr	r7, [lr]
0xf67efb14:  e5936000      ldr	r6, [r3]
0xf67efb18:  e1570006      cmp	r7, r6
0xf67efb1c:  e5905004      ldr	r5, [r0, #4]
0xf67efb20:  e5934004      ldr	r4, [r3, #4]
0xf67efb24:  0affff70      beq	0xf67ef8ec

----------------
IN: 
0xf67dd0cc:  e3500000      cmp	r0, #0	; 0x0
0xf67dd0d0:  1affffed      bne	0xf67dd08c

----------------
IN: 
0xf67dd0d4:  e3590000      cmp	r9, #0	; 0x0
0xf67dd0d8:  0a000056      beq	0xf67dd238

----------------
IN: 
0xf67dd0dc:  e5953010      ldr	r3, [r5, #16]
0xf67dd0e0:  e5950014      ldr	r0, [r5, #20]
0xf67dd0e4:  e3530000      cmp	r3, #0	; 0x0
0xf67dd0e8:  e5951018      ldr	r1, [r5, #24]
0xf67dd0ec:  e595201c      ldr	r2, [r5, #28]
0xf67dd0f0:  1a000028      bne	0xf67dd198

----------------
IN: 
0xf67dd0f4:  e59f3430      ldr	r3, [pc, #1072]	; 0xf67dd52c
0xf67dd0f8:  e08f3003      add	r3, pc, r3
0xf67dd0fc:  e5933004      ldr	r3, [r3, #4]
0xf67dd100:  e3530000      cmp	r3, #0	; 0x0
0xf67dd104:  1a0000a9      bne	0xf67dd3b0

----------------
IN: 
0xf67dd3b0:  e20000ff      and	r0, r0, #255	; 0xff
0xf67dd3b4:  e20110ff      and	r1, r1, #255	; 0xff
0xf67dd3b8:  e0811400      add	r1, r1, r0, lsl #8
0xf67dd3bc:  e20220ff      and	r2, r2, #255	; 0xff
0xf67dd3c0:  e0822401      add	r2, r2, r1, lsl #8
0xf67dd3c4:  e1520003      cmp	r2, r3
0xf67dd3c8:  9affff4e      bls	0xf67dd108

----------------
IN: 
0xf67dd108:  e3a04000      mov	r4, #0	; 0x0
0xf67dd10c:  e24b2024      sub	r2, fp, #36	; 0x24
0xf67dd110:  e5624001      strb	r4, [r2, #-1]!
0xf67dd114:  e51b1038      ldr	r1, [fp, #-56]
0xf67dd118:  e51b0030      ldr	r0, [fp, #-48]
0xf67dd11c:  ebfffe98      bl	0xf67dcb84

----------------
IN: 
0xf67dcb84:  e92d4ff0      push	{r4, r5, r6, r7, r8, r9, sl, fp, lr}
0xf67dcb88:  e28db020      add	fp, sp, #32	; 0x20
0xf67dcb8c:  e24dd02c      sub	sp, sp, #44	; 0x2c
0xf67dcb90:  e1d132be      ldrh	r3, [r1, #46]
0xf67dcb94:  e1d143b0      ldrh	r4, [r1, #48]
0xf67dcb98:  e50b1028      str	r1, [fp, #-40]
0xf67dcb9c:  e0040493      mul	r4, r3, r4
0xf67dcba0:  e284300e      add	r3, r4, #14	; 0xe
0xf67dcba4:  e3c33007      bic	r3, r3, #7	; 0x7
0xf67dcba8:  e04dd003      sub	sp, sp, r3
0xf67dcbac:  e50b2038      str	r2, [fp, #-56]
0xf67dcbb0:  e5911020      ldr	r1, [r1, #32]
0xf67dcbb4:  e3a02000      mov	r2, #0	; 0x0
0xf67dcbb8:  e50b002c      str	r0, [fp, #-44]
0xf67dcbbc:  eb0048cf      bl	0xf67eef00

----------------
IN: 
0xf67eef00:  e52d7004      push	{r7}		; (str r7, [sp, #-4]!)
0xf67eef04:  e3a07013      mov	r7, #19	; 0x13
0xf67eef08:  ef000000      svc	0x00000000

----------------
IN: 
0xf67eef0c:  e49d7004      pop	{r7}		; (ldr r7, [sp], #4)
0xf67eef10:  e3700a01      cmn	r0, #4096	; 0x1000
0xf67eef14:  312fff1e      bxcc	lr

----------------
IN: 
0xf67dcbc0:  e51b002c      ldr	r0, [fp, #-44]
0xf67dcbc4:  e1a0100d      mov	r1, sp
0xf67dcbc8:  e1a02004      mov	r2, r4
0xf67dcbcc:  eb0048ab      bl	0xf67eee80

----------------
IN: 
0xf67dcbd0:  e1540000      cmp	r4, r0
0xf67dcbd4:  e1a0600d      mov	r6, sp
0xf67dcbd8:  1a0000ad      bne	0xf67dce94

----------------
IN: 
0xf67dcbdc:  e51b3028      ldr	r3, [fp, #-40]
0xf67dcbe0:  e1d323b0      ldrh	r2, [r3, #48]
0xf67dcbe4:  e3520000      cmp	r2, #0	; 0x0
0xf67dcbe8:  0a00002f      beq	0xf67dccac

----------------
IN: 
0xf67dcbec:  e59f32ac      ldr	r3, [pc, #684]	; 0xf67dcea0
0xf67dcbf0:  e3a07000      mov	r7, #0	; 0x0
0xf67dcbf4:  e08f3003      add	r3, pc, r3
0xf67dcbf8:  e50b303c      str	r3, [fp, #-60]
0xf67dcbfc:  e59f32a0      ldr	r3, [pc, #672]	; 0xf67dcea4
0xf67dcc00:  e08f3003      add	r3, pc, r3
0xf67dcc04:  e50b3034      str	r3, [fp, #-52]
0xf67dcc08:  e59f3298      ldr	r3, [pc, #664]	; 0xf67dcea8
0xf67dcc0c:  e08f3003      add	r3, pc, r3
0xf67dcc10:  e50b3030      str	r3, [fp, #-48]
0xf67dcc14:  e59f3290      ldr	r3, [pc, #656]	; 0xf67dceac
0xf67dcc18:  e08f3003      add	r3, pc, r3
0xf67dcc1c:  e50b3040      str	r3, [fp, #-64]
0xf67dcc20:  e59f3288      ldr	r3, [pc, #648]	; 0xf67dceb0
0xf67dcc24:  e08f3003      add	r3, pc, r3
0xf67dcc28:  e50b3044      str	r3, [fp, #-68]
0xf67dcc2c:  ea000003      b	0xf67dcc40

----------------
IN: 
0xf67dcc40:  e5963004      ldr	r3, [r6, #4]
0xf67dcc44:  e3530237      cmp	r3, #1879048195	; 0x70000003
0xf67dcc48:  1afffff8      bne	0xf67dcc30

----------------
IN: 
0xf67dcc30:  e2877001      add	r7, r7, #1	; 0x1
0xf67dcc34:  e1570002      cmp	r7, r2
0xf67dcc38:  e2866028      add	r6, r6, #40	; 0x28
0xf67dcc3c:  2a00001a      bcs	0xf67dccac

----------------
IN: 
0xf67dcc4c:  e5963014      ldr	r3, [r6, #20]
0xf67dcc50:  e5961010      ldr	r1, [r6, #16]
0xf67dcc54:  e283300e      add	r3, r3, #14	; 0xe
0xf67dcc58:  e3c33007      bic	r3, r3, #7	; 0x7
0xf67dcc5c:  e04dd003      sub	sp, sp, r3
0xf67dcc60:  e3a02000      mov	r2, #0	; 0x0
0xf67dcc64:  e51b002c      ldr	r0, [fp, #-44]
0xf67dcc68:  eb0048a4      bl	0xf67eef00

----------------
IN: 
0xf67dcc6c:  e51b002c      ldr	r0, [fp, #-44]
0xf67dcc70:  e1a0100d      mov	r1, sp
0xf67dcc74:  e5962014      ldr	r2, [r6, #20]
0xf67dcc78:  eb004880      bl	0xf67eee80

----------------
IN: 
0xf67dcc7c:  e5963014      ldr	r3, [r6, #20]
0xf67dcc80:  e1500003      cmp	r0, r3
0xf67dcc84:  1a000082      bne	0xf67dce94

----------------
IN: 
0xf67dcc88:  e5dd3000      ldrb	r3, [sp]
0xf67dcc8c:  e3530041      cmp	r3, #65	; 0x41
0xf67dcc90:  0a000008      beq	0xf67dccb8

----------------
IN: 
0xf67dccb8:  e2509001      subs	r9, r0, #1	; 0x1
0xf67dccbc:  e28d4001      add	r4, sp, #1	; 0x1
0xf67dccc0:  0afffff3      beq	0xf67dcc94

----------------
IN: 
0xf67dccc4:  e51ba040      ldr	sl, [fp, #-64]
0xf67dccc8:  e50b6048      str	r6, [fp, #-72]
0xf67dcccc:  e50b704c      str	r7, [fp, #-76]
0xf67dccd0:  e5d42002      ldrb	r2, [r4, #2]
0xf67dccd4:  e5d41001      ldrb	r1, [r4, #1]
0xf67dccd8:  e1a02802      lsl	r2, r2, #16
0xf67dccdc:  e5d43000      ldrb	r3, [r4]
0xf67dcce0:  e1822401      orr	r2, r2, r1, lsl #8
0xf67dcce4:  e5d48003      ldrb	r8, [r4, #3]
0xf67dcce8:  e1823003      orr	r3, r2, r3
0xf67dccec:  e1838c08      orr	r8, r3, r8, lsl #24
0xf67dccf0:  e1580009      cmp	r8, r9
0xf67dccf4:  8a00005f      bhi	0xf67dce78

----------------
IN: 
0xf67dccf8:  e0689009      rsb	r9, r8, r9
0xf67dccfc:  e2844004      add	r4, r4, #4	; 0x4
0xf67dcd00:  e1a00004      mov	r0, r4
0xf67dcd04:  e51b1034      ldr	r1, [fp, #-52]
0xf67dcd08:  eb004a13      bl	0xf67ef55c

----------------
IN: 
0xf67ef57c:  e2620000      rsb	r0, r2, #0	; 0x0
0xf67ef580:  e12fff1e      bx	lr

----------------
IN: 
0xf67dcd0c:  e3500000      cmp	r0, #0	; 0x0
0xf67dcd10:  e2488004      sub	r8, r8, #4	; 0x4
0xf67dcd14:  1a000050      bne	0xf67dce5c

----------------
IN: 
0xf67dcd18:  e1a00004      mov	r0, r4
0xf67dcd1c:  eb004a1b      bl	0xf67ef590

----------------
IN: 
0xf67dcd20:  e2800001      add	r0, r0, #1	; 0x1
0xf67dcd24:  e0588000      subs	r8, r8, r0
0xf67dcd28:  e0844000      add	r4, r4, r0
0xf67dcd2c:  0a000029      beq	0xf67dcdd8

----------------
IN: 
0xf67dcd30:  e5d42003      ldrb	r2, [r4, #3]
0xf67dcd34:  e5d41002      ldrb	r1, [r4, #2]
0xf67dcd38:  e1a02802      lsl	r2, r2, #16
0xf67dcd3c:  e5d43001      ldrb	r3, [r4, #1]
0xf67dcd40:  e1821401      orr	r1, r2, r1, lsl #8
0xf67dcd44:  e5d42004      ldrb	r2, [r4, #4]
0xf67dcd48:  e1813003      orr	r3, r1, r3
0xf67dcd4c:  e1832c02      orr	r2, r3, r2, lsl #24
0xf67dcd50:  e1520008      cmp	r2, r8
0xf67dcd54:  e5d46000      ldrb	r6, [r4]
0xf67dcd58:  8a000038      bhi	0xf67dce40

----------------
IN: 
0xf67dcd5c:  e0628008      rsb	r8, r2, r8
0xf67dcd60:  e3560001      cmp	r6, #1	; 0x1
0xf67dcd64:  e0847002      add	r7, r4, r2
0xf67dcd68:  1a00002d      bne	0xf67dce24

----------------
IN: 
0xf67dcd6c:  e2844005      add	r4, r4, #5	; 0x5
0xf67dcd70:  e1540007      cmp	r4, r7
0xf67dcd74:  2a000015      bcs	0xf67dcdd0

----------------
IN: 
0xf67dcd78:  e3a06000      mov	r6, #0	; 0x0
0xf67dcd7c:  e1a03006      mov	r3, r6
0xf67dcd80:  e4d42001      ldrb	r2, [r4], #1
0xf67dcd84:  e3120080      tst	r2, #128	; 0x80
0xf67dcd88:  e202207f      and	r2, r2, #127	; 0x7f
0xf67dcd8c:  e1866312      orr	r6, r6, r2, lsl r3
0xf67dcd90:  e2833007      add	r3, r3, #7	; 0x7
0xf67dcd94:  1afffff9      bne	0xf67dcd80

----------------
IN: 
0xf67dcd98:  e2463004      sub	r3, r6, #4	; 0x4
0xf67dcd9c:  e3560043      cmp	r6, #67	; 0x43
0xf67dcda0:  13530001      cmpne	r3, #1	; 0x1
0xf67dcda4:  93a03001      movls	r3, #1	; 0x1
0xf67dcda8:  83a03000      movhi	r3, #0	; 0x0
0xf67dcdac:  8a00000e      bhi	0xf67dcdec

----------------
IN: 
0xf67dcdb0:  e1a00004      mov	r0, r4
0xf67dcdb4:  eb0049f5      bl	0xf67ef590

----------------
IN: 
0xf67dcdb8:  e356001c      cmp	r6, #28	; 0x1c
0xf67dcdbc:  e2800001      add	r0, r0, #1	; 0x1
0xf67dcdc0:  e0844000      add	r4, r4, r0
0xf67dcdc4:  0a000011      beq	0xf67dce10

----------------
IN: 
0xf67dcdc8:  e1570004      cmp	r7, r4
0xf67dcdcc:  8affffe9      bhi	0xf67dcd78

----------------
IN: 
0xf67dcdec:  e1a05003      mov	r5, r3
0xf67dcdf0:  e4d42001      ldrb	r2, [r4], #1
0xf67dcdf4:  e3120080      tst	r2, #128	; 0x80
0xf67dcdf8:  e202207f      and	r2, r2, #127	; 0x7f
0xf67dcdfc:  e1855312      orr	r5, r5, r2, lsl r3
0xf67dce00:  e2833007      add	r3, r3, #7	; 0x7
0xf67dce04:  1afffff9      bne	0xf67dcdf0

----------------
IN: 
0xf67dce08:  e356001c      cmp	r6, #28	; 0x1c
0xf67dce0c:  1affffed      bne	0xf67dcdc8

----------------
IN: 
0xf67dcdd0:  e3580000      cmp	r8, #0	; 0x0
0xf67dcdd4:  1affffd5      bne	0xf67dcd30

----------------
IN: 
0xf67dcdd8:  e3590000      cmp	r9, #0	; 0x0
0xf67dcddc:  1affffbb      bne	0xf67dccd0

----------------
IN: 
0xf67dcde0:  e51b6048      ldr	r6, [fp, #-72]
0xf67dcde4:  e51b704c      ldr	r7, [fp, #-76]
0xf67dcde8:  eaffffa9      b	0xf67dcc94

----------------
IN: 
0xf67dcc94:  e51b3028      ldr	r3, [fp, #-40]
0xf67dcc98:  e2877001      add	r7, r7, #1	; 0x1
0xf67dcc9c:  e1d323b0      ldrh	r2, [r3, #48]
0xf67dcca0:  e2866028      add	r6, r6, #40	; 0x28
0xf67dcca4:  e1570002      cmp	r7, r2
0xf67dcca8:  3affffe4      bcc	0xf67dcc40

----------------
IN: 
0xf67dccac:  e3a00000      mov	r0, #0	; 0x0
0xf67dccb0:  e24bd020      sub	sp, fp, #32	; 0x20
0xf67dccb4:  e8bd8ff0      pop	{r4, r5, r6, r7, r8, r9, sl, fp, pc}

----------------
IN: 
0xf67dd120:  e3500000      cmp	r0, #0	; 0x0
0xf67dd124:  1a000045      bne	0xf67dd240

----------------
IN: 
0xf67dd128:  e55b3025      ldrb	r3, [fp, #-37]
0xf67dd12c:  e3530000      cmp	r3, #0	; 0x0
0xf67dd130:  1a000018      bne	0xf67dd198

----------------
IN: 
0xf67dd134:  e59f13f4      ldr	r1, [pc, #1012]	; 0xf67dd530
0xf67dd138:  e08f1001      add	r1, pc, r1
0xf67dd13c:  e5912000      ldr	r2, [r1]
0xf67dd140:  e3720001      cmn	r2, #1	; 0x1
0xf67dd144:  05813000      streq	r3, [r1]
0xf67dd148:  0a000001      beq	0xf67dd154

----------------
IN: 
0xf67dd154:  e51b0030      ldr	r0, [fp, #-48]
0xf67dd158:  ea000015      b	0xf67dd1b4

----------------
IN: 
0xf67dd1b4:  e24bd020      sub	sp, fp, #32	; 0x20
0xf67dd1b8:  e8bd8ff0      pop	{r4, r5, r6, r7, r8, r9, sl, fp, pc}

----------------
IN: 
0xf67dd754:  e3a02002      mov	r2, #2	; 0x2
0xf67dd758:  e3a05001      mov	r5, #1	; 0x1
0xf67dd75c:  e5872014      str	r2, [r7, #20]
0xf67dd760:  e51bc0a0      ldr	ip, [fp, #-160]
0xf67dd764:  e35c0000      cmp	ip, #0	; 0x0
0xf67dd768:  1a00005f      bne	0xf67dd8ec

----------------
IN: 
0xf67dd76c:  e3730001      cmn	r3, #1	; 0x1
0xf67dd770:  e2844001      add	r4, r4, #1	; 0x1
0xf67dd774:  1a000047      bne	0xf67dd898

----------------
IN: 
0xf67dd898:  e51b0094      ldr	r0, [fp, #-148]
0xf67dd89c:  e1a0a003      mov	sl, r3
0xf67dd8a0:  ebffe3b9      bl	0xf67d678c

----------------
IN: 
0xf67dd8a4:  e59bc004      ldr	ip, [fp, #4]
0xf67dd8a8:  e3500000      cmp	r0, #0	; 0x0
0xf67dd8ac:  e58c0000      str	r0, [ip]
0xf67dd8b0:  0a0000a2      beq	0xf67ddb40

----------------
IN: 
0xf67dd8b4:  e1a01009      mov	r1, r9
0xf67dd8b8:  e51b2094      ldr	r2, [fp, #-148]
0xf67dd8bc:  eb0049cf      bl	0xf67f0000

----------------
IN: 
0xf67f005c:  e4917004      ldr	r7, [r1], #4
0xf67f0060:  e4918004      ldr	r8, [r1], #4
0xf67f0064:  e491e004      ldr	lr, [r1], #4
0xf67f0068:  e08ff00c      add	pc, pc, ip

----------------
IN: 
0xf67f0084:  e4807004      str	r7, [r0], #4
0xf67f0088:  e4808004      str	r8, [r0], #4
0xf67f008c:  e480e004      str	lr, [r0], #4
0xf67f0090:  e8bd01e0      pop	{r5, r6, r7, r8}
0xf67f0094:  e1b02f82      lsls	r2, r2, #31
0xf67f0098:  14d13001      ldrbne	r3, [r1], #1
0xf67f009c:  24d14001      ldrbcs	r4, [r1], #1
0xf67f00a0:  25d1c000      ldrbcs	ip, [r1]
0xf67f00a4:  14c03001      strbne	r3, [r0], #1
0xf67f00a8:  24c04001      strbcs	r4, [r0], #1
0xf67f00ac:  25c0c000      strbcs	ip, [r0]
0xf67f00b0:  e8bd8011      pop	{r0, r4, pc}

----------------
IN: 
0xf67dd8c0:  e1a0000a      mov	r0, sl
0xf67dd8c4:  e24bd020      sub	sp, fp, #32	; 0x20
0xf67dd8c8:  e8bd8ff0      pop	{r4, r5, r6, r7, r8, r9, sl, fp, pc}

----------------
IN: 
0xf67df060:  e1a01000      mov	r1, r0
0xf67df064:  eaffff99      b	0xf67deed0

----------------
IN: 
0xf67deed0:  e59f37b4      ldr	r3, [pc, #1972]	; 0xf67df68c
0xf67deed4:  e08f3003      add	r3, pc, r3
0xf67deed8:  e5933000      ldr	r3, [r3]
0xf67deedc:  e3130001      tst	r3, #1	; 0x1
0xf67deee0:  0affff96      beq	0xf67ded40

----------------
IN: 
0xf67ded40:  e35b0000      cmp	fp, #0	; 0x0
0xf67ded44:  13a06000      movne	r6, #0	; 0x0
0xf67ded48:  e3710001      cmn	r1, #1	; 0x1
0xf67ded4c:  0a00020a      beq	0xf67df57c

----------------
IN: 
0xf67ded50:  e59f2924      ldr	r2, [pc, #2340]	; 0xf67df67c
0xf67ded54:  e59d304c      ldr	r3, [sp, #76]
0xf67ded58:  e08f2002      add	r2, pc, r2
0xf67ded5c:  e592c000      ldr	ip, [r2]
0xf67ded60:  e59d2280      ldr	r2, [sp, #640]
0xf67ded64:  e88d0140      stm	sp, {r6, r8}
0xf67ded68:  e58d2008      str	r2, [sp, #8]
0xf67ded6c:  e28d2050      add	r2, sp, #80	; 0x50
0xf67ded70:  e58d200c      str	r2, [sp, #12]
0xf67ded74:  e58d5010      str	r5, [sp, #16]
0xf67ded78:  e1a00004      mov	r0, r4
0xf67ded7c:  e28d2054      add	r2, sp, #84	; 0x54
0xf67ded80:  e58dc050      str	ip, [sp, #80]
0xf67ded84:  ebfff2e0      bl	0xf67db90c

----------------
IN: 
0xf67db90c:  e92d4ff0      push	{r4, r5, r6, r7, r8, r9, sl, fp, lr}
0xf67db910:  e28db020      add	fp, sp, #32	; 0x20
0xf67db914:  e24dd0dc      sub	sp, sp, #220	; 0xdc
0xf67db918:  e50b10a0      str	r1, [fp, #-160]
0xf67db91c:  e50b00ac      str	r0, [fp, #-172]
0xf67db920:  e59b1014      ldr	r1, [fp, #20]
0xf67db924:  e3a00000      mov	r0, #0	; 0x0
0xf67db928:  e50be0c0      str	lr, [fp, #-192]
0xf67db92c:  e50b209c      str	r2, [fp, #-156]
0xf67db930:  e50b30b0      str	r3, [fp, #-176]
0xf67db934:  eb002c45      bl	0xf67e6a50

----------------
IN: 
0xf67e6a8c:  e3520000      cmp	r2, #0	; 0x0
0xf67e6a90:  13a03001      movne	r3, #1	; 0x1
0xf67e6a94:  15803000      strne	r3, [r0]
0xf67e6a98:  0a000015      beq	0xf67e6af4

----------------
IN: 
0xf67e6af4:  e12fff1e      bx	lr

----------------
IN: 
0xf67db938:  e51b10a0      ldr	r1, [fp, #-160]
0xf67db93c:  e50b00a8      str	r0, [fp, #-168]
0xf67db940:  e24b208c      sub	r2, fp, #140	; 0x8c
0xf67db944:  e3a00003      mov	r0, #3	; 0x3
0xf67db948:  eb004d19      bl	0xf67eedb4

----------------
IN: 
0xf67db94c:  e3500000      cmp	r0, #0	; 0x0
0xf67db950:  ba000328      blt	0xf67dc5f8

----------------
IN: 
0xf67db954:  e59b6014      ldr	r6, [fp, #20]
0xf67db958:  e59f3fe0      ldr	r3, [pc, #4064]	; 0xf67dc940
0xf67db95c:  e1a08186      lsl	r8, r6, #3
0xf67db960:  e0882006      add	r2, r8, r6
0xf67db964:  e08f3003      add	r3, pc, r3
0xf67db968:  e0862082      add	r2, r6, r2, lsl #1
0xf67db96c:  e7939102      ldr	r9, [r3, r2, lsl #2]
0xf67db970:  e3590000      cmp	r9, #0	; 0x0
0xf67db974:  0a00001e      beq	0xf67db9f4

----------------
IN: 
0xf67db978:  e24b502c      sub	r5, fp, #44	; 0x2c
0xf67db97c:  e8950030      ldm	r5, {r4, r5}
0xf67db980:  e24b708c      sub	r7, fp, #140	; 0x8c
0xf67db984:  e89700c0      ldm	r7, {r6, r7}
0xf67db988:  ea000002      b	0xf67db998

----------------
IN: 
0xf67db998:  e5d93195      ldrb	r3, [r9, #405]
0xf67db99c:  e3130020      tst	r3, #32	; 0x20
0xf67db9a0:  1afffff9      bne	0xf67db98c

----------------
IN: 
0xf67db9a4:  e2893e1e      add	r3, r9, #480	; 0x1e0
0xf67db9a8:  e893000c      ldm	r3, {r2, r3}
0xf67db9ac:  e1530005      cmp	r3, r5
0xf67db9b0:  01520004      cmpeq	r2, r4
0xf67db9b4:  1afffff4      bne	0xf67db98c

----------------
IN: 
0xf67db98c:  e599900c      ldr	r9, [r9, #12]
0xf67db990:  e3590000      cmp	r9, #0	; 0x0
0xf67db994:  0a000016      beq	0xf67db9f4

----------------
IN: 
0xf67db9f4:  e59bc014      ldr	ip, [fp, #20]
0xf67db9f8:  e35c0000      cmp	ip, #0	; 0x0
0xf67db9fc:  1a000378      bne	0xf67dc7e4

----------------
IN: 
0xf67dba00:  e59b600c      ldr	r6, [fp, #12]
0xf67dba04:  e3160004      tst	r6, #4	; 0x4
0xf67dba08:  1a000250      bne	0xf67dc350

----------------
IN: 
0xf67dba0c:  e59f3f30      ldr	r3, [pc, #3888]	; 0xf67dc944
0xf67dba10:  e08f3003      add	r3, pc, r3
0xf67dba14:  e5933000      ldr	r3, [r3]
0xf67dba18:  e3130040      tst	r3, #64	; 0x40
0xf67dba1c:  1a0003a2      bne	0xf67dc8ac

----------------
IN: 
0xf67dba20:  e51bc0a8      ldr	ip, [fp, #-168]
0xf67dba24:  e59c300c      ldr	r3, [ip, #12]
0xf67dba28:  e3530000      cmp	r3, #0	; 0x0
0xf67dba2c:  0a00005a      beq	0xf67dbb9c

----------------
IN: 
0xf67dba30:  e3530001      cmp	r3, #1	; 0x1
0xf67dba34:  03a0c000      moveq	ip, #0	; 0x0
0xf67dba38:  050bc0c4      streq	ip, [fp, #-196]
0xf67dba3c:  1a0002f3      bne	0xf67dc610

----------------
IN: 
0xf67dba40:  e59b600c      ldr	r6, [fp, #12]
0xf67dba44:  e58d6000      str	r6, [sp]
0xf67dba48:  e59bc014      ldr	ip, [fp, #20]
0xf67dba4c:  e58dc004      str	ip, [sp, #4]
0xf67dba50:  e51b00b0      ldr	r0, [fp, #-176]
0xf67dba54:  e51b10ac      ldr	r1, [fp, #-172]
0xf67dba58:  e59b2008      ldr	r2, [fp, #8]
0xf67dba5c:  e59b3004      ldr	r3, [fp, #4]
0xf67dba60:  eb0016e2      bl	0xf67e15f0

----------------
IN: 
0xf67e1764:  e595316c      ldr	r3, [r5, #364]
0xf67e1768:  e3530000      cmp	r3, #0	; 0x0
0xf67e176c:  1afffffb      bne	0xf67e1760

----------------
IN: 
0xf67e1818:  e59431b8      ldr	r3, [r4, #440]
0xf67e181c:  e2855f57      add	r5, r5, #348	; 0x15c
0xf67e1820:  e1550003      cmp	r5, r3
0xf67e1824:  0affffd5      beq	0xf67e1780

----------------
IN: 
0xf67e1780:  e2843f57      add	r3, r4, #348	; 0x15c
0xf67e1784:  e3590000      cmp	r9, #0	; 0x0
0xf67e1788:  e58431d0      str	r3, [r4, #464]
0xf67e178c:  0a00001e      beq	0xf67e180c

----------------
IN: 
0xf67e1790:  e1a00008      mov	r0, r8
0xf67e1794:  eb00377d      bl	0xf67ef590

----------------
IN: 
0xf67e1798:  e359002f      cmp	r9, #47	; 0x2f
0xf67e179c:  e1a07000      mov	r7, r0
0xf67e17a0:  e280a001      add	sl, r0, #1	; 0x1
0xf67e17a4:  0a00003c      beq	0xf67e189c

----------------
IN: 
0xf67e189c:  e1a0000a      mov	r0, sl
0xf67e18a0:  ebffd3b9      bl	0xf67d678c

----------------
IN: 
0xf67e18a4:  e2505000      subs	r5, r0, #0	; 0x0
0xf67e18a8:  11a00005      movne	r0, r5
0xf67e18ac:  1affffec      bne	0xf67e1864

----------------
IN: 
0xf67e1864:  e1a01008      mov	r1, r8
0xf67e1868:  e1a0200a      mov	r2, sl
0xf67e186c:  eb0039d3      bl	0xf67effc0

----------------
IN: 
0xf67e1870:  ea000000      b	0xf67e1878

----------------
IN: 
0xf67e1878:  e5502001      ldrb	r2, [r0, #-1]
0xf67e187c:  e2403001      sub	r3, r0, #1	; 0x1
0xf67e1880:  e352002f      cmp	r2, #47	; 0x2f
0xf67e1884:  1afffffa      bne	0xf67e1874

----------------
IN: 
0xf67e1874:  e1a00003      mov	r0, r3
0xf67e1878:  e5502001      ldrb	r2, [r0, #-1]
0xf67e187c:  e2403001      sub	r3, r0, #1	; 0x1
0xf67e1880:  e352002f      cmp	r2, #47	; 0x2f
0xf67e1884:  1afffffa      bne	0xf67e1874

----------------
IN: 
0xf67e1888:  e1550003      cmp	r5, r3
0xf67e188c:  e3a02000      mov	r2, #0	; 0x0
0xf67e1890:  01a03000      moveq	r3, r0
0xf67e1894:  e5c32000      strb	r2, [r3]
0xf67e1898:  eaffffda      b	0xf67e1808

----------------
IN: 
0xf67e1808:  e58451a8      str	r5, [r4, #424]
0xf67e180c:  e1a00004      mov	r0, r4
0xf67e1810:  e28dd00c      add	sp, sp, #12	; 0xc
0xf67e1814:  e8bd8ff0      pop	{r4, r5, r6, r7, r8, r9, sl, fp, pc}

----------------
IN: 
0xf67dba64:  e2505000      subs	r5, r0, #0	; 0x0
0xf67dba68:  0a0002f0      beq	0xf67dc630

----------------
IN: 
0xf67dba6c:  e3a06f56      mov	r6, #344	; 0x158
0xf67dba70:  e51bc09c      ldr	ip, [fp, #-156]
0xf67dba74:  e1dc33b0      ldrh	r3, [ip, #48]
0xf67dba78:  e59c1020      ldr	r1, [ip, #32]
0xf67dba7c:  e59c2000      ldr	r2, [ip]
0xf67dba80:  e1a04283      lsl	r4, r3, #5
0xf67dba84:  e0840001      add	r0, r4, r1
0xf67dba88:  e1500002      cmp	r0, r2
0xf67dba8c:  e59c201c      ldr	r2, [ip, #28]
0xf67dba90:  e1dcc1b4      ldrh	ip, [ip, #20]
0xf67dba94:  e5852154      str	r2, [r5, #340]
0xf67dba98:  e50bc0b8      str	ip, [fp, #-184]
0xf67dba9c:  e18530b6      strh	r3, [r5, r6]
0xf67dbaa0:  8a0001e6      bhi	0xf67dc240

----------------
IN: 
0xf67dbaa4:  e51b609c      ldr	r6, [fp, #-156]
0xf67dbaa8:  e0861001      add	r1, r6, r1
0xf67dbaac:  e281a004      add	sl, r1, #4	; 0x4
0xf67dbab0:  e0833083      add	r3, r3, r3, lsl #1
0xf67dbab4:  e1a03183      lsl	r3, r3, #3
0xf67dbab8:  e2833008      add	r3, r3, #8	; 0x8
0xf67dbabc:  e50bd0bc      str	sp, [fp, #-188]
0xf67dbac0:  e04dd003      sub	sp, sp, r3
0xf67dbac4:  e28d302b      add	r3, sp, #43	; 0x2b
0xf67dbac8:  e1a03123      lsr	r3, r3, #2
0xf67dbacc:  e08a4004      add	r4, sl, r4
0xf67dbad0:  e1a06103      lsl	r6, r3, #2
0xf67dbad4:  e15a0004      cmp	sl, r4
0xf67dbad8:  e50b30b4      str	r3, [fp, #-180]
0xf67dbadc:  e50b6090      str	r6, [fp, #-144]
0xf67dbae0:  2a000231      bcs	0xf67dc3ac

----------------
IN: 
0xf67dbae4:  e3a0c000      mov	ip, #0	; 0x0
0xf67dbae8:  e3a06007      mov	r6, #7	; 0x7
0xf67dbaec:  e50bc094      str	ip, [fp, #-148]
0xf67dbaf0:  e1a0800c      mov	r8, ip
0xf67dbaf4:  e59f1e4c      ldr	r1, [pc, #3660]	; 0xf67dc948
0xf67dbaf8:  e59fce4c      ldr	ip, [pc, #3660]	; 0xf67dc94c
0xf67dbafc:  e59f2e4c      ldr	r2, [pc, #3660]	; 0xf67dc950
0xf67dbb00:  e08fc00c      add	ip, pc, ip
0xf67dbb04:  e08f1001      add	r1, pc, r1
0xf67dbb08:  e08f2002      add	r2, pc, r2
0xf67dbb0c:  e50b6098      str	r6, [fp, #-152]
0xf67dbb10:  e59f9e3c      ldr	r9, [pc, #3644]	; 0xf67dc954
0xf67dbb14:  e50bc0a4      str	ip, [fp, #-164]
0xf67dbb18:  e50b10cc      str	r1, [fp, #-204]
0xf67dbb1c:  e50b20c8      str	r2, [fp, #-200]
0xf67dbb20:  e28a4020      add	r4, sl, #32	; 0x20
0xf67dbb24:  ea00000c      b	0xf67dbb5c

----------------
IN: 
0xf67dbb5c:  e5143020      ldr	r3, [r4, #-32]
0xf67dbb60:  e1a06004      mov	r6, r4
0xf67dbb64:  e3530006      cmp	r3, #6	; 0x6
0xf67dbb68:  0a000019      beq	0xf67dbbd4

----------------
IN: 
0xf67dbb6c:  8affffed      bhi	0xf67dbb28

----------------
IN: 
0xf67dbb28:  e1530009      cmp	r3, r9
0xf67dbb2c:  0a000076      beq	0xf67dbd0c

----------------
IN: 
0xf67dbb30:  e59fce20      ldr	ip, [pc, #3616]	; 0xf67dc958
0xf67dbb34:  e153000c      cmp	r3, ip
0xf67dbb38:  0a00006e      beq	0xf67dbcf8

----------------
IN: 
0xf67dbb3c:  e3530007      cmp	r3, #7	; 0x7
0xf67dbb40:  0a000055      beq	0xf67dbc9c

----------------
IN: 
0xf67dbb44:  e3a03f56      mov	r3, #344	; 0x158
0xf67dbb48:  e19530b3      ldrh	r3, [r5, r3]
0xf67dbb4c:  e2844020      add	r4, r4, #32	; 0x20
0xf67dbb50:  e08a3283      add	r3, sl, r3, lsl #5
0xf67dbb54:  e1560003      cmp	r6, r3
0xf67dbb58:  2a00006e      bcs	0xf67dbd18

----------------
IN: 
0xf67dbbd4:  e5143018      ldr	r3, [r4, #-24]
0xf67dbbd8:  e5853150      str	r3, [r5, #336]
0xf67dbbdc:  eaffffd8      b	0xf67dbb44

----------------
IN: 
0xf67dbb70:  e3530001      cmp	r3, #1	; 0x1
0xf67dbb74:  0a000019      beq	0xf67dbbe0

----------------
IN: 
0xf67dbb78:  e3530002      cmp	r3, #2	; 0x2
0xf67dbb7c:  1afffff0      bne	0xf67dbb44

----------------
IN: 
0xf67dbbe0:  e59f3d7c      ldr	r3, [pc, #3452]	; 0xf67dc964
0xf67dbbe4:  e514e004      ldr	lr, [r4, #-4]
0xf67dbbe8:  e08f3003      add	r3, pc, r3
0xf67dbbec:  e5931010      ldr	r1, [r3, #16]
0xf67dbbf0:  e2412001      sub	r2, r1, #1	; 0x1
0xf67dbbf4:  e01e7002      ands	r7, lr, r2
0xf67dbbf8:  1a0001ff      bne	0xf67dc3fc

----------------
IN: 
0xf67dbbfc:  e5143018      ldr	r3, [r4, #-24]
0xf67dbc00:  e514001c      ldr	r0, [r4, #-28]
0xf67dbc04:  e24ee001      sub	lr, lr, #1	; 0x1
0xf67dbc08:  e060c003      rsb	ip, r0, r3
0xf67dbc0c:  e11e000c      tst	lr, ip
0xf67dbc10:  1a0001fd      bne	0xf67dc40c

----------------
IN: 
0xf67dbc14:  e514c010      ldr	ip, [r4, #-16]
0xf67dbc18:  e2611000      rsb	r1, r1, #0	; 0x0
0xf67dbc1c:  e0000001      and	r0, r0, r1
0xf67dbc20:  e514700c      ldr	r7, [r4, #-12]
0xf67dbc24:  e083c00c      add	ip, r3, ip
0xf67dbc28:  e50b00d0      str	r0, [fp, #-208]
0xf67dbc2c:  e51b0090      ldr	r0, [fp, #-144]
0xf67dbc30:  e088e088      add	lr, r8, r8, lsl #1
0xf67dbc34:  e082200c      add	r2, r2, ip
0xf67dbc38:  e0022001      and	r2, r2, r1
0xf67dbc3c:  e0877003      add	r7, r7, r3
0xf67dbc40:  e0011003      and	r1, r1, r3
0xf67dbc44:  e080318e      add	r3, r0, lr, lsl #3
0xf67dbc48:  e780118e      str	r1, [r0, lr, lsl #3]
0xf67dbc4c:  e2888001      add	r8, r8, #1	; 0x1
0xf67dbc50:  e9831004      stmib	r3, {r2, ip}
0xf67dbc54:  e51b20d0      ldr	r2, [fp, #-208]
0xf67dbc58:  e3580001      cmp	r8, #1	; 0x1
0xf67dbc5c:  e5832010      str	r2, [r3, #16]
0xf67dbc60:  e583700c      str	r7, [r3, #12]
0xf67dbc64:  9a000004      bls	0xf67dbc7c

----------------
IN: 
0xf67dbc7c:  e5142008      ldr	r2, [r4, #-8]
0xf67dbc80:  e59f0ce0      ldr	r0, [pc, #3296]	; 0xf67dc968
0xf67dbc84:  e2022007      and	r2, r2, #7	; 0x7
0xf67dbc88:  e1a02102      lsl	r2, r2, #2
0xf67dbc8c:  e1a02250      asr	r2, r0, r2
0xf67dbc90:  e202200f      and	r2, r2, #15	; 0xf
0xf67dbc94:  e5832014      str	r2, [r3, #20]
0xf67dbc98:  eaffffa9      b	0xf67dbb44

----------------
IN: 
0xf67dbc68:  e5132014      ldr	r2, [r3, #-20]
0xf67dbc6c:  e51bc094      ldr	ip, [fp, #-148]
0xf67dbc70:  e1510002      cmp	r1, r2
0xf67dbc74:  13a0c001      movne	ip, #1	; 0x1
0xf67dbc78:  e50bc094      str	ip, [fp, #-148]
0xf67dbc7c:  e5142008      ldr	r2, [r4, #-8]
0xf67dbc80:  e59f0ce0      ldr	r0, [pc, #3296]	; 0xf67dc968
0xf67dbc84:  e2022007      and	r2, r2, #7	; 0x7
0xf67dbc88:  e1a02102      lsl	r2, r2, #2
0xf67dbc8c:  e1a02250      asr	r2, r0, r2
0xf67dbc90:  e202200f      and	r2, r2, #15	; 0xf
0xf67dbc94:  e5832014      str	r2, [r3, #20]
0xf67dbc98:  eaffffa9      b	0xf67dbb44

----------------
IN: 
0xf67dbb80:  e514200c      ldr	r2, [r4, #-12]
0xf67dbb84:  e5141018      ldr	r1, [r4, #-24]
0xf67dbb88:  e59f3dcc      ldr	r3, [pc, #3532]	; 0xf67dc95c
0xf67dbb8c:  e1a021a2      lsr	r2, r2, #3
0xf67dbb90:  e5851008      str	r1, [r5, #8]
0xf67dbb94:  e18520b3      strh	r2, [r5, r3]
0xf67dbb98:  eaffffe9      b	0xf67dbb44

----------------
IN: 
0xf67dbc9c:  e514300c      ldr	r3, [r4, #-12]
0xf67dbca0:  e3530000      cmp	r3, #0	; 0x0
0xf67dbca4:  0affffa6      beq	0xf67dbb44

----------------
IN: 
0xf67dbca8:  e5142004      ldr	r2, [r4, #-4]
0xf67dbcac:  e5853230      str	r3, [r5, #560]
0xf67dbcb0:  e3520000      cmp	r2, #0	; 0x0
0xf67dbcb4:  15143018      ldrne	r3, [r4, #-24]
0xf67dbcb8:  e5852234      str	r2, [r5, #564]
0xf67dbcbc:  e5d51194      ldrb	r1, [r5, #404]
0xf67dbcc0:  12422001      subne	r2, r2, #1	; 0x1
0xf67dbcc4:  10022003      andne	r2, r2, r3
0xf67dbcc8:  05143018      ldreq	r3, [r4, #-24]
0xf67dbccc:  05852238      streq	r2, [r5, #568]
0xf67dbcd0:  15852238      strne	r2, [r5, #568]
0xf67dbcd4:  e2011003      and	r1, r1, #3	; 0x3
0xf67dbcd8:  e5142010      ldr	r2, [r4, #-16]
0xf67dbcdc:  e3510001      cmp	r1, #1	; 0x1
0xf67dbce0:  e585222c      str	r2, [r5, #556]
0xf67dbce4:  e5853228      str	r3, [r5, #552]
0xf67dbce8:  1a000266      bne	0xf67dc688

----------------
IN: 
0xf67dbcec:  eb0032f2      bl	0xf67e88bc

----------------
IN: 
0xf67e88bc:  e59f30f0      ldr	r3, [pc, #240]	; 0xf67e89b4
0xf67e88c0:  e92d4010      push	{r4, lr}
0xf67e88c4:  e08f3003      add	r3, pc, r3
0xf67e88c8:  e5d32800      ldrb	r2, [r3, #2048]
0xf67e88cc:  e3520000      cmp	r2, #0	; 0x0
0xf67e88d0:  1a000005      bne	0xf67e88ec

----------------
IN: 
0xf67e88d4:  e59f30dc      ldr	r3, [pc, #220]	; 0xf67e89b8
0xf67e88d8:  e08f3003      add	r3, pc, r3
0xf67e88dc:  e5930804      ldr	r0, [r3, #2052]
0xf67e88e0:  e2800001      add	r0, r0, #1	; 0x1
0xf67e88e4:  e5830804      str	r0, [r3, #2052]
0xf67e88e8:  e8bd8010      pop	{r4, pc}

----------------
IN: 
0xf67dbcf0:  e5850240      str	r0, [r5, #576]
0xf67dbcf4:  eaffff92      b	0xf67dbb44

----------------
IN: 
0xf67dbd0c:  e514c008      ldr	ip, [r4, #-8]
0xf67dbd10:  e50bc098      str	ip, [fp, #-152]
0xf67dbd14:  eaffff8a      b	0xf67dbb44

----------------
IN: 
0xf67dbcf8:  e5142018      ldr	r2, [r4, #-24]
0xf67dbcfc:  e514300c      ldr	r3, [r4, #-12]
0xf67dbd00:  e5852248      str	r2, [r5, #584]
0xf67dbd04:  e585324c      str	r3, [r5, #588]
0xf67dbd08:  eaffff8d      b	0xf67dbb44

----------------
IN: 
0xf67dbd18:  e3580000      cmp	r8, #0	; 0x0
0xf67dbd1c:  0a0001a2      beq	0xf67dc3ac

----------------
IN: 
0xf67dbd20:  e2484001      sub	r4, r8, #1	; 0x1
0xf67dbd24:  e51b6090      ldr	r6, [fp, #-144]
0xf67dbd28:  e0844084      add	r4, r4, r4, lsl #1
0xf67dbd2c:  e1a04184      lsl	r4, r4, #3
0xf67dbd30:  e0863004      add	r3, r6, r4
0xf67dbd34:  e593200c      ldr	r2, [r3, #12]
0xf67dbd38:  e51bc0b8      ldr	ip, [fp, #-184]
0xf67dbd3c:  e5963000      ldr	r3, [r6]
0xf67dbd40:  e35c0003      cmp	ip, #3	; 0x3
0xf67dbd44:  e0632002      rsb	r2, r3, r2
0xf67dbd48:  e50b20a4      str	r2, [fp, #-164]
0xf67dbd4c:  1a00026d      bne	0xf67dc708

----------------
IN: 
0xf67dbd50:  e59f1c14      ldr	r1, [pc, #3092]	; 0xf67dc96c
0xf67dbd54:  e5962014      ldr	r2, [r6, #20]
0xf67dbd58:  e51b60a0      ldr	r6, [fp, #-160]
0xf67dbd5c:  e08f1001      add	r1, pc, r1
0xf67dbd60:  e591011c      ldr	r0, [r1, #284]
0xf67dbd64:  e58d6000      str	r6, [sp]
0xf67dbd68:  e51bc090      ldr	ip, [fp, #-144]
0xf67dbd6c:  e0000003      and	r0, r0, r3
0xf67dbd70:  e59c1010      ldr	r1, [ip, #16]
0xf67dbd74:  e59f3bf4      ldr	r3, [pc, #3060]	; 0xf67dc970
0xf67dbd78:  e58d1004      str	r1, [sp, #4]
0xf67dbd7c:  e51b10a4      ldr	r1, [fp, #-164]
0xf67dbd80:  eb004ca6      bl	0xf67ef020

----------------
IN: 
0xf67dbd84:  e3700001      cmn	r0, #1	; 0x1
0xf67dbd88:  e58501ac      str	r0, [r5, #428]
0xf67dbd8c:  0a00004a      beq	0xf67dbebc

----------------
IN: 
0xf67dbd90:  e51b6090      ldr	r6, [fp, #-144]
0xf67dbd94:  e51bc094      ldr	ip, [fp, #-148]
0xf67dbd98:  e5963000      ldr	r3, [r6]
0xf67dbd9c:  e51b60a4      ldr	r6, [fp, #-164]
0xf67dbda0:  e0633000      rsb	r3, r3, r0
0xf67dbda4:  e35c0000      cmp	ip, #0	; 0x0
0xf67dbda8:  e0800006      add	r0, r0, r6
0xf67dbdac:  e5853000      str	r3, [r5]
0xf67dbdb0:  e58501b0      str	r0, [r5, #432]
0xf67dbdb4:  1a000043      bne	0xf67dbec8

----------------
IN: 
0xf67dbec8:  e51bc0b4      ldr	ip, [fp, #-180]
0xf67dbecc:  e51b6090      ldr	r6, [fp, #-144]
0xf67dbed0:  e794110c      ldr	r1, [r4, ip, lsl #2]
0xf67dbed4:  e5960004      ldr	r0, [r6, #4]
0xf67dbed8:  e3a02000      mov	r2, #0	; 0x0
0xf67dbedc:  e0601001      rsb	r1, r0, r1
0xf67dbee0:  e0830000      add	r0, r3, r0
0xf67dbee4:  eb004c75      bl	0xf67ef0c0

----------------
IN: 
0xf67ef0c0:  e52d7004      push	{r7}		; (str r7, [sp, #-4]!)
0xf67ef0c4:  e3a0707d      mov	r7, #125	; 0x7d
0xf67ef0c8:  ef000000      svc	0x00000000

----------------
IN: 
0xf67ef0cc:  e49d7004      pop	{r7}		; (ldr r7, [sp], #4)
0xf67ef0d0:  e3700a01      cmn	r0, #4096	; 0x1000
0xf67ef0d4:  312fff1e      bxcc	lr

----------------
IN: 
0xf67dbee8:  eaffffb2      b	0xf67dbdb8

----------------
IN: 
0xf67dbdb8:  e5d53195      ldrb	r3, [r5, #405]
0xf67dbdbc:  e51b4090      ldr	r4, [fp, #-144]
0xf67dbdc0:  e3833040      orr	r3, r3, #64	; 0x40
0xf67dbdc4:  e5c53195      strb	r3, [r5, #405]
0xf67dbdc8:  e5942014      ldr	r2, [r4, #20]
0xf67dbdcc:  e3120004      tst	r2, #4	; 0x4
0xf67dbdd0:  15953000      ldrne	r3, [r5]
0xf67dbdd4:  15941004      ldrne	r1, [r4, #4]
0xf67dbdd8:  10813003      addne	r3, r1, r3
0xf67dbddc:  158531b4      strne	r3, [r5, #436]
0xf67dbde0:  e5953150      ldr	r3, [r5, #336]
0xf67dbde4:  e3530000      cmp	r3, #0	; 0x0
0xf67dbde8:  0a000136      beq	0xf67dc2c8

----------------
IN: 
0xf67dbdec:  e594300c      ldr	r3, [r4, #12]
0xf67dbdf0:  e5947008      ldr	r7, [r4, #8]
0xf67dbdf4:  e1530007      cmp	r3, r7
0xf67dbdf8:  9a000019      bls	0xf67dbe64

----------------
IN: 
0xf67dbe64:  e2844018      add	r4, r4, #24	; 0x18
0xf67dbe68:  e51bc090      ldr	ip, [fp, #-144]
0xf67dbe6c:  e0883088      add	r3, r8, r8, lsl #1
0xf67dbe70:  e08c3183      add	r3, ip, r3, lsl #3
0xf67dbe74:  e1540003      cmp	r4, r3
0xf67dbe78:  2a00001b      bcs	0xf67dbeec

----------------
IN: 
0xf67dbe7c:  e5941004      ldr	r1, [r4, #4]
0xf67dbe80:  e5943000      ldr	r3, [r4]
0xf67dbe84:  e1510003      cmp	r1, r3
0xf67dbe88:  9affffce      bls	0xf67dbdc8

----------------
IN: 
0xf67dbe8c:  e51b60a0      ldr	r6, [fp, #-160]
0xf67dbe90:  e5950000      ldr	r0, [r5]
0xf67dbe94:  e5942014      ldr	r2, [r4, #20]
0xf67dbe98:  e58d6000      str	r6, [sp]
0xf67dbe9c:  e594c010      ldr	ip, [r4, #16]
0xf67dbea0:  e0631001      rsb	r1, r3, r1
0xf67dbea4:  e0830000      add	r0, r3, r0
0xf67dbea8:  e58dc004      str	ip, [sp, #4]
0xf67dbeac:  e59f3ac4      ldr	r3, [pc, #2756]	; 0xf67dc978
0xf67dbeb0:  eb004c5a      bl	0xf67ef020

----------------
IN: 
0xf67dbeb4:  e3700001      cmn	r0, #1	; 0x1
0xf67dbeb8:  1affffc2      bne	0xf67dbdc8

----------------
IN: 
0xf67dbdc8:  e5942014      ldr	r2, [r4, #20]
0xf67dbdcc:  e3120004      tst	r2, #4	; 0x4
0xf67dbdd0:  15953000      ldrne	r3, [r5]
0xf67dbdd4:  15941004      ldrne	r1, [r4, #4]
0xf67dbdd8:  10813003      addne	r3, r1, r3
0xf67dbddc:  158531b4      strne	r3, [r5, #436]
0xf67dbde0:  e5953150      ldr	r3, [r5, #336]
0xf67dbde4:  e3530000      cmp	r3, #0	; 0x0
0xf67dbde8:  0a000136      beq	0xf67dc2c8

----------------
IN: 
0xf67dbdfc:  e59f1b70      ldr	r1, [pc, #2928]	; 0xf67dc974
0xf67dbe00:  e5956000      ldr	r6, [r5]
0xf67dbe04:  e08f1001      add	r1, pc, r1
0xf67dbe08:  e5911010      ldr	r1, [r1, #16]
0xf67dbe0c:  e0867007      add	r7, r6, r7
0xf67dbe10:  e241c001      sub	ip, r1, #1	; 0x1
0xf67dbe14:  e08cc007      add	ip, ip, r7
0xf67dbe18:  e2610000      rsb	r0, r1, #0	; 0x0
0xf67dbe1c:  e0866003      add	r6, r6, r3
0xf67dbe20:  e00cc000      and	ip, ip, r0
0xf67dbe24:  e15c0006      cmp	ip, r6
0xf67dbe28:  31a0900c      movcc	r9, ip
0xf67dbe2c:  21a09006      movcs	r9, r6
0xf67dbe30:  e1570009      cmp	r7, r9
0xf67dbe34:  2a000008      bcs	0xf67dbe5c

----------------
IN: 
0xf67dbe38:  e3120002      tst	r2, #2	; 0x2
0xf67dbe3c:  0a000328      beq	0xf67dcae4

----------------
IN: 
0xf67dbe40:  e0672009      rsb	r2, r7, r9
0xf67dbe44:  e1a00007      mov	r0, r7
0xf67dbe48:  e3a01000      mov	r1, #0	; 0x0
0xf67dbe4c:  eb00503b      bl	0xf67eff40

----------------
IN: 
0xf67eff40:  e1a03000      mov	r3, r0
0xf67eff44:  e3520008      cmp	r2, #8	; 0x8
0xf67eff48:  3a000011      bcc	0xf67eff94

----------------
IN: 
0xf67eff4c:  e3130003      tst	r3, #3	; 0x3
0xf67eff50:  14c31001      strbne	r1, [r3], #1
0xf67eff54:  12422001      subne	r2, r2, #1	; 0x1
0xf67eff58:  1afffffb      bne	0xf67eff4c

----------------
IN: 
0xf67eff5c:  e20110ff      and	r1, r1, #255	; 0xff
0xf67eff60:  e1811401      orr	r1, r1, r1, lsl #8
0xf67eff64:  e1811801      orr	r1, r1, r1, lsl #16
0xf67eff68:  e1a0c001      mov	ip, r1
0xf67eff6c:  e2522008      subs	r2, r2, #8	; 0x8
0xf67eff70:  28a31002      stmiacs	r3!, {r1, ip}
0xf67eff74:  22522008      subscs	r2, r2, #8	; 0x8
0xf67eff78:  28a31002      stmiacs	r3!, {r1, ip}
0xf67eff7c:  22522008      subscs	r2, r2, #8	; 0x8
0xf67eff80:  28a31002      stmiacs	r3!, {r1, ip}
0xf67eff84:  22522008      subscs	r2, r2, #8	; 0x8
0xf67eff88:  28a31002      stmiacs	r3!, {r1, ip}
0xf67eff8c:  2afffff6      bcs	0xf67eff6c

----------------
IN: 
0xf67eff6c:  e2522008      subs	r2, r2, #8	; 0x8
0xf67eff70:  28a31002      stmiacs	r3!, {r1, ip}
0xf67eff74:  22522008      subscs	r2, r2, #8	; 0x8
0xf67eff78:  28a31002      stmiacs	r3!, {r1, ip}
0xf67eff7c:  22522008      subscs	r2, r2, #8	; 0x8
0xf67eff80:  28a31002      stmiacs	r3!, {r1, ip}
0xf67eff84:  22522008      subscs	r2, r2, #8	; 0x8
0xf67eff88:  28a31002      stmiacs	r3!, {r1, ip}
0xf67eff8c:  2afffff6      bcs	0xf67eff6c

----------------
IN: 
0xf67eff90:  e2022007      and	r2, r2, #7	; 0x7
0xf67eff94:  e2522001      subs	r2, r2, #1	; 0x1
0xf67eff98:  24c31001      strbcs	r1, [r3], #1
0xf67eff9c:  22522001      subscs	r2, r2, #1	; 0x1
0xf67effa0:  24c31001      strbcs	r1, [r3], #1
0xf67effa4:  22522001      subscs	r2, r2, #1	; 0x1
0xf67effa8:  24c31001      strbcs	r1, [r3], #1
0xf67effac:  22522001      subscs	r2, r2, #1	; 0x1
0xf67effb0:  24c31001      strbcs	r1, [r3], #1
0xf67effb4:  2afffff6      bcs	0xf67eff94

----------------
IN: 
0xf67eff94:  e2522001      subs	r2, r2, #1	; 0x1
0xf67eff98:  24c31001      strbcs	r1, [r3], #1
0xf67eff9c:  22522001      subscs	r2, r2, #1	; 0x1
0xf67effa0:  24c31001      strbcs	r1, [r3], #1
0xf67effa4:  22522001      subscs	r2, r2, #1	; 0x1
0xf67effa8:  24c31001      strbcs	r1, [r3], #1
0xf67effac:  22522001      subscs	r2, r2, #1	; 0x1
0xf67effb0:  24c31001      strbcs	r1, [r3], #1
0xf67effb4:  2afffff6      bcs	0xf67eff94

----------------
IN: 
0xf67effb8:  e12fff1e      bx	lr

----------------
IN: 
0xf67dbe50:  e5942014      ldr	r2, [r4, #20]
0xf67dbe54:  e3120002      tst	r2, #2	; 0x2
0xf67dbe58:  0a000329      beq	0xf67dcb04

----------------
IN: 
0xf67dbe5c:  e1560009      cmp	r6, r9
0xf67dbe60:  8a000129      bhi	0xf67dc30c

----------------
IN: 
0xf67dc30c:  e3e0c000      mvn	ip, #0	; 0x0
0xf67dc310:  e3a03000      mov	r3, #0	; 0x0
0xf67dc314:  e5942014      ldr	r2, [r4, #20]
0xf67dc318:  e1a00009      mov	r0, r9
0xf67dc31c:  e58d3004      str	r3, [sp, #4]
0xf67dc320:  e0691006      rsb	r1, r9, r6
0xf67dc324:  e58dc000      str	ip, [sp]
0xf67dc328:  e3a03032      mov	r3, #50	; 0x32
0xf67dc32c:  eb004b3b      bl	0xf67ef020

----------------
IN: 
0xf67dc330:  e3700001      cmn	r0, #1	; 0x1
0xf67dc334:  1afffeca      bne	0xf67dbe64

----------------
IN: 
0xf67dbeec:  e5953008      ldr	r3, [r5, #8]
0xf67dbef0:  e51bd0bc      ldr	sp, [fp, #-188]
0xf67dbef4:  e3530000      cmp	r3, #0	; 0x0
0xf67dbef8:  0a00011a      beq	0xf67dc368

----------------
IN: 
0xf67dbefc:  e595c000      ldr	ip, [r5]
0xf67dbf00:  e083200c      add	r2, r3, ip
0xf67dbf04:  e3520000      cmp	r2, #0	; 0x0
0xf67dbf08:  e5852008      str	r2, [r5, #8]
0xf67dbf0c:  0a00010d      beq	0xf67dc348

----------------
IN: 
0xf67dbf10:  e793300c      ldr	r3, [r3, ip]
0xf67dbf14:  e2850020      add	r0, r5, #32	; 0x20
0xf67dbf18:  e3530000      cmp	r3, #0	; 0x0
0xf67dbf1c:  1a0000af      bne	0xf67dc1e0

----------------
IN: 
0xf67dc1e0:  e3530021      cmp	r3, #33	; 0x21
0xf67dc1e4:  9afffff9      bls	0xf67dc1d0

----------------
IN: 
0xf67dc1d0:  e7802103      str	r2, [r0, r3, lsl #2]
0xf67dc1d4:  e5b23008      ldr	r3, [r2, #8]!
0xf67dc1d8:  e3530000      cmp	r3, #0	; 0x0
0xf67dc1dc:  0affff4f      beq	0xf67dbf20

----------------
IN: 
0xf67dc1e8:  e3e01209      mvn	r1, #-1879048192	; 0x90000000
0xf67dc1ec:  e0631001      rsb	r1, r3, r1
0xf67dc1f0:  e351000f      cmp	r1, #15	; 0xf
0xf67dc1f4:  9afffff3      bls	0xf67dc1c8

----------------
IN: 
0xf67dc1f8:  e1a01083      lsl	r1, r3, #1
0xf67dc1fc:  e1a010c1      asr	r1, r1, #1
0xf67dc200:  e3710004      cmn	r1, #4	; 0x4
0xf67dc204:  9a000005      bls	0xf67dc220

----------------
IN: 
0xf67dc220:  e59f176c      ldr	r1, [pc, #1900]	; 0xf67dc994
0xf67dc224:  e0631001      rsb	r1, r3, r1
0xf67dc228:  e351000b      cmp	r1, #11	; 0xb
0xf67dc22c:  8a000015      bhi	0xf67dc288

----------------
IN: 
0xf67dc288:  e59f1708      ldr	r1, [pc, #1800]	; 0xf67dc998
0xf67dc28c:  e0631001      rsb	r1, r3, r1
0xf67dc290:  e351000a      cmp	r1, #10	; 0xa
0xf67dc294:  90403103      subls	r3, r0, r3, lsl #2
0xf67dc298:  92833103      addls	r3, r3, #-1073741824	; 0xc0000000
0xf67dc29c:  95032300      strls	r2, [r3, #-768]
0xf67dc2a0:  eaffffcb      b	0xf67dc1d4

----------------
IN: 
0xf67dc1d4:  e5b23008      ldr	r3, [r2, #8]!
0xf67dc1d8:  e3530000      cmp	r3, #0	; 0x0
0xf67dc1dc:  0affff4f      beq	0xf67dbf20

----------------
IN: 
0xf67dc1c8:  e2633207      rsb	r3, r3, #1879048192	; 0x70000000
0xf67dc1cc:  e2833021      add	r3, r3, #33	; 0x21
0xf67dc1d0:  e7802103      str	r2, [r0, r3, lsl #2]
0xf67dc1d4:  e5b23008      ldr	r3, [r2, #8]!
0xf67dc1d8:  e3530000      cmp	r3, #0	; 0x0
0xf67dc1dc:  0affff4f      beq	0xf67dbf20

----------------
IN: 
0xf67dbf20:  e35c0000      cmp	ip, #0	; 0x0
0xf67dbf24:  0a00002c      beq	0xf67dbfdc

----------------
IN: 
0xf67dbf28:  e5953030      ldr	r3, [r5, #48]
0xf67dbf2c:  e3530000      cmp	r3, #0	; 0x0
0xf67dbf30:  15932004      ldrne	r2, [r3, #4]
0xf67dbf34:  1082200c      addne	r2, r2, ip
0xf67dbf38:  15832004      strne	r2, [r3, #4]
0xf67dbf3c:  e595302c      ldr	r3, [r5, #44]
0xf67dbf40:  e3530000      cmp	r3, #0	; 0x0
0xf67dbf44:  15932004      ldrne	r2, [r3, #4]
0xf67dbf48:  1082200c      addne	r2, r2, ip
0xf67dbf4c:  15832004      strne	r2, [r3, #4]
0xf67dbf50:  e5953034      ldr	r3, [r5, #52]
0xf67dbf54:  e3530000      cmp	r3, #0	; 0x0
0xf67dbf58:  15932004      ldrne	r2, [r3, #4]
0xf67dbf5c:  1082200c      addne	r2, r2, ip
0xf67dbf60:  15832004      strne	r2, [r3, #4]
0xf67dbf64:  e5953038      ldr	r3, [r5, #56]
0xf67dbf68:  e3530000      cmp	r3, #0	; 0x0
0xf67dbf6c:  15932004      ldrne	r2, [r3, #4]
0xf67dbf70:  1082200c      addne	r2, r2, ip
0xf67dbf74:  15832004      strne	r2, [r3, #4]
0xf67dbf78:  e595303c      ldr	r3, [r5, #60]
0xf67dbf7c:  e3530000      cmp	r3, #0	; 0x0
0xf67dbf80:  15932004      ldrne	r2, [r3, #4]
0xf67dbf84:  1082200c      addne	r2, r2, ip
0xf67dbf88:  15832004      strne	r2, [r3, #4]
0xf67dbf8c:  e5953064      ldr	r3, [r5, #100]
0xf67dbf90:  e3530000      cmp	r3, #0	; 0x0
0xf67dbf94:  15932004      ldrne	r2, [r3, #4]
0xf67dbf98:  1082200c      addne	r2, r2, ip
0xf67dbf9c:  15832004      strne	r2, [r3, #4]
0xf67dbfa0:  e595307c      ldr	r3, [r5, #124]
0xf67dbfa4:  e3530000      cmp	r3, #0	; 0x0
0xf67dbfa8:  15932004      ldrne	r2, [r3, #4]
0xf67dbfac:  1082200c      addne	r2, r2, ip
0xf67dbfb0:  15832004      strne	r2, [r3, #4]
0xf67dbfb4:  e59530e4      ldr	r3, [r5, #228]
0xf67dbfb8:  e3530000      cmp	r3, #0	; 0x0
0xf67dbfbc:  15932004      ldrne	r2, [r3, #4]
0xf67dbfc0:  1082200c      addne	r2, r2, ip
0xf67dbfc4:  15832004      strne	r2, [r3, #4]
0xf67dbfc8:  e595314c      ldr	r3, [r5, #332]
0xf67dbfcc:  e3530000      cmp	r3, #0	; 0x0
0xf67dbfd0:  15932004      ldrne	r2, [r3, #4]
0xf67dbfd4:  1082c00c      addne	ip, r2, ip
0xf67dbfd8:  1583c004      strne	ip, [r3, #4]
0xf67dbfdc:  e5953070      ldr	r3, [r5, #112]
0xf67dbfe0:  e3530000      cmp	r3, #0	; 0x0
0xf67dbfe4:  0a000003      beq	0xf67dbff8

----------------
IN: 
0xf67dbfe8:  e5933004      ldr	r3, [r3, #4]
0xf67dbfec:  e3530007      cmp	r3, #7	; 0x7
0xf67dbff0:  13530011      cmpne	r3, #17	; 0x11
0xf67dbff4:  1a000299      bne	0xf67dca60

----------------
IN: 
0xf67dbff8:  e595303c      ldr	r3, [r5, #60]
0xf67dbffc:  e3530000      cmp	r3, #0	; 0x0

----------------
IN: 
0xf67dc000:  0a000003      beq	0xf67dc014

----------------
IN: 
0xf67dc014:  e5953064      ldr	r3, [r5, #100]
0xf67dc018:  e3530000      cmp	r3, #0	; 0x0
0xf67dc01c:  0a000003      beq	0xf67dc030

----------------
IN: 
0xf67dc020:  e595306c      ldr	r3, [r5, #108]
0xf67dc024:  e5933004      ldr	r3, [r3, #4]
0xf67dc028:  e3530008      cmp	r3, #8	; 0x8
0xf67dc02c:  1a00029b      bne	0xf67dcaa0

----------------
IN: 
0xf67dc030:  e5952098      ldr	r2, [r5, #152]
0xf67dc034:  e3520000      cmp	r2, #0	; 0x0
0xf67dc038:  0a000007      beq	0xf67dc05c

----------------
IN: 
0xf67dc05c:  e59530b8      ldr	r3, [r5, #184]
0xf67dc060:  e3530000      cmp	r3, #0	; 0x0
0xf67dc064:  05952204      ldreq	r2, [r5, #516]
0xf67dc068:  0a00000a      beq	0xf67dc098

----------------
IN: 
0xf67dc098:  e5953094      ldr	r3, [r5, #148]
0xf67dc09c:  e3530000      cmp	r3, #0	; 0x0
0xf67dc0a0:  13a03000      movne	r3, #0	; 0x0
0xf67dc0a4:  1585305c      strne	r3, [r5, #92]
0xf67dc0a8:  e3120040      tst	r2, #64	; 0x40
0xf67dc0ac:  1a000162      bne	0xf67dc63c

----------------
IN: 
0xf67dc0b0:  e5953150      ldr	r3, [r5, #336]
0xf67dc0b4:  e3530000      cmp	r3, #0	; 0x0
0xf67dc0b8:  0a0000c0      beq	0xf67dc3c0

----------------
IN: 
0xf67dc0bc:  e5952000      ldr	r2, [r5]
0xf67dc0c0:  e0833002      add	r3, r3, r2
0xf67dc0c4:  e5853150      str	r3, [r5, #336]
0xf67dc0c8:  e59f48b4      ldr	r4, [pc, #2228]	; 0xf67dc984
0xf67dc0cc:  e51bc098      ldr	ip, [fp, #-152]
0xf67dc0d0:  e08f4004      add	r4, pc, r4
0xf67dc0d4:  e59437fc      ldr	r3, [r4, #2044]
0xf67dc0d8:  e1cc3003      bic	r3, ip, r3
0xf67dc0dc:  e3130001      tst	r3, #1	; 0x1
0xf67dc0e0:  1a0000d2      bne	0xf67dc430

----------------
IN: 
0xf67dc0e4:  e5953228      ldr	r3, [r5, #552]
0xf67dc0e8:  e3530000      cmp	r3, #0	; 0x0
0xf67dc0ec:  15952000      ldrne	r2, [r5]
0xf67dc0f0:  10833002      addne	r3, r3, r2
0xf67dc0f4:  15853228      strne	r3, [r5, #552]
0xf67dc0f8:  e51b00a0      ldr	r0, [fp, #-160]
0xf67dc0fc:  eb004bb7      bl	0xf67eefe0

----------------
IN: 
0xf67dc100:  e3500000      cmp	r0, #0	; 0x0
0xf67dc104:  1a0000e4      bne	0xf67dc49c

----------------
IN: 
0xf67dc108:  e5d53194      ldrb	r3, [r5, #404]
0xf67dc10c:  e2032003      and	r2, r3, #3	; 0x3
0xf67dc110:  e3520001      cmp	r2, #1	; 0x1
0xf67dc114:  0a000066      beq	0xf67dc2b4

----------------
IN: 
0xf67dc2b4:  e51b60b8      ldr	r6, [fp, #-184]
0xf67dc2b8:  e3560002      cmp	r6, #2	; 0x2
0xf67dc2bc:  03c33003      biceq	r3, r3, #3	; 0x3
0xf67dc2c0:  05c53194      strbeq	r3, [r5, #404]
0xf67dc2c4:  eaffff93      b	0xf67dc118

----------------
IN: 
0xf67dc118:  e59f3868      ldr	r3, [pc, #2152]	; 0xf67dc988
0xf67dc11c:  e5950000      ldr	r0, [r5]
0xf67dc120:  e08f3003      add	r3, pc, r3
0xf67dc124:  e5932000      ldr	r2, [r3]
0xf67dc128:  e5953154      ldr	r3, [r5, #340]
0xf67dc12c:  e3120040      tst	r2, #64	; 0x40
0xf67dc130:  e0803003      add	r3, r0, r3
0xf67dc134:  e5853154      str	r3, [r5, #340]
0xf67dc138:  1a000194      bne	0xf67dc790

----------------
IN: 
0xf67dc13c:  e1a00005      mov	r0, r5
0xf67dc140:  eb0014ce      bl	0xf67e1480

----------------
IN: 
0xf67dc144:  e59bc00c      ldr	ip, [fp, #12]
0xf67dc148:  e31c0008      tst	ip, #8	; 0x8
0xf67dc14c:  1a000002      bne	0xf67dc15c

----------------
IN: 
0xf67dc150:  e5953060      ldr	r3, [r5, #96]
0xf67dc154:  e3530000      cmp	r3, #0	; 0x0
0xf67dc158:  1a000270      bne	0xf67dcb20

----------------
IN: 
0xf67dc15c:  e5953204      ldr	r3, [r5, #516]
0xf67dc160:  e3130020      tst	r3, #32	; 0x20
0xf67dc164:  1a00004e      bne	0xf67dc2a4

----------------
IN: 
0xf67dc168:  e24b308c      sub	r3, fp, #140	; 0x8c
0xf67dc16c:  e893000c      ldm	r3, {r2, r3}
0xf67dc170:  e59f1814      ldr	r1, [pc, #2068]	; 0xf67dc98c
0xf67dc174:  e58521d8      str	r2, [r5, #472]
0xf67dc178:  e58531dc      str	r3, [r5, #476]
0xf67dc17c:  e24b302c      sub	r3, fp, #44	; 0x2c
0xf67dc180:  e893000c      ldm	r3, {r2, r3}
0xf67dc184:  e08f1001      add	r1, pc, r1
0xf67dc188:  e5911120      ldr	r1, [r1, #288]
0xf67dc18c:  e58521e0      str	r2, [r5, #480]
0xf67dc190:  e58531e4      str	r3, [r5, #484]
0xf67dc194:  e3510000      cmp	r1, #0	; 0x0
0xf67dc198:  1a0000e6      bne	0xf67dc538

----------------
IN: 
0xf67dc19c:  e1a00005      mov	r0, r5
0xf67dc1a0:  e59b1014      ldr	r1, [fp, #20]
0xf67dc1a4:  eb0014e2      bl	0xf67e1534

----------------
IN: 
0xf67e1580:  e592300c      ldr	r3, [r2, #12]
0xf67e1584:  e3530000      cmp	r3, #0	; 0x0
0xf67e1588:  1afffffb      bne	0xf67e157c

----------------
IN: 
0xf67e157c:  e1a02003      mov	r2, r3
0xf67e1580:  e592300c      ldr	r3, [r2, #12]
0xf67e1584:  e3530000      cmp	r3, #0	; 0x0
0xf67e1588:  1afffffb      bne	0xf67e157c

----------------
IN: 
0xf67e158c:  e5862010      str	r2, [r6, #16]
0xf67e1590:  e582600c      str	r6, [r2, #12]
0xf67e1594:  e59f1050      ldr	r1, [pc, #80]	; 0xf67e15ec
0xf67e1598:  e08cc004      add	ip, ip, r4
0xf67e159c:  e08f1001      add	r1, pc, r1
0xf67e15a0:  e084c08c      add	ip, r4, ip, lsl #1
0xf67e15a4:  e081c10c      add	ip, r1, ip, lsl #2
0xf67e15a8:  e59ce004      ldr	lr, [ip, #4]
0xf67e15ac:  e59124f8      ldr	r2, [r1, #1272]
0xf67e15b0:  e59134fc      ldr	r3, [r1, #1276]
0xf67e15b4:  e2924001      adds	r4, r2, #1	; 0x1
0xf67e15b8:  e2a35000      adc	r5, r3, #0	; 0x0
0xf67e15bc:  e28ee001      add	lr, lr, #1	; 0x1
0xf67e15c0:  e2810e4d      add	r0, r1, #1232	; 0x4d0
0xf67e15c4:  e58ce004      str	lr, [ip, #4]
0xf67e15c8:  e280000c      add	r0, r0, #12	; 0xc
0xf67e15cc:  e5862250      str	r2, [r6, #592]
0xf67e15d0:  e5863254      str	r3, [r6, #596]
0xf67e15d4:  e58144f8      str	r4, [r1, #1272]
0xf67e15d8:  e58154fc      str	r5, [r1, #1276]
0xf67e15dc:  e8bd4070      pop	{r4, r5, r6, lr}
0xf67e15e0:  e59137f4      ldr	r3, [r1, #2036]
0xf67e15e4:  e12fff13      bx	r3

----------------
IN: 
0xf67dc1a8:  e59f37e0      ldr	r3, [pc, #2016]	; 0xf67dc990
0xf67dc1ac:  e08f3003      add	r3, pc, r3
0xf67dc1b0:  e5932174      ldr	r2, [r3, #372]
0xf67dc1b4:  e3520000      cmp	r2, #0	; 0x0
0xf67dc1b8:  1a0000e8      bne	0xf67dc560

----------------
IN: 
0xf67dc1bc:  e1a00005      mov	r0, r5
0xf67dc1c0:  e24bd020      sub	sp, fp, #32	; 0x20
0xf67dc1c4:  e8bd8ff0      pop	{r4, r5, r6, r7, r8, r9, sl, fp, pc}

----------------
IN: 
0xf67ded88:  e28ddf97      add	sp, sp, #604	; 0x25c
0xf67ded8c:  e8bd8ff0      pop	{r4, r5, r6, r7, r8, r9, sl, fp, pc}

----------------
IN: 
0xf67e3934:  e5840014      str	r0, [r4, #20]
0xf67e3938:  e28dd008      add	sp, sp, #8	; 0x8
0xf67e393c:  e8bd8010      pop	{r4, pc}

----------------
IN: 
0xf67e5f9c:  e59d3010      ldr	r3, [sp, #16]
0xf67e5fa0:  e59d1000      ldr	r1, [sp]
0xf67e5fa4:  e59d2004      ldr	r2, [sp, #4]
0xf67e5fa8:  e5813000      str	r3, [r1]
0xf67e5fac:  e59d3008      ldr	r3, [sp, #8]
0xf67e5fb0:  e59d100c      ldr	r1, [sp, #12]
0xf67e5fb4:  e5824000      str	r4, [r2]
0xf67e5fb8:  e5834000      str	r4, [r3]
0xf67e5fbc:  e5c14000      strb	r4, [r1]
0xf67e5fc0:  e1a00004      mov	r0, r4
0xf67e5fc4:  e28ddf6e      add	sp, sp, #440	; 0x1b8
0xf67e5fc8:  e8bd8010      pop	{r4, pc}

----------------
IN: 
0xf67e3b30:  e51b9044      ldr	r9, [fp, #-68]
0xf67e3b34:  e3590000      cmp	r9, #0	; 0x0
0xf67e3b38:  1a00006a      bne	0xf67e3ce8

----------------
IN: 
0xf67e3b3c:  e51b3028      ldr	r3, [fp, #-40]
0xf67e3b40:  e5d31194      ldrb	r1, [r3, #404]
0xf67e3b44:  e1a022a1      lsr	r2, r1, #5
0xf67e3b48:  e2122003      ands	r2, r2, #3	; 0x3
0xf67e3b4c:  1affffdf      bne	0xf67e3ad0

----------------
IN: 
0xf67e3b50:  e51b9058      ldr	r9, [fp, #-88]
0xf67e3b54:  e24dd018      sub	sp, sp, #24	; 0x18
0xf67e3b58:  e51b4054      ldr	r4, [fp, #-84]
0xf67e3b5c:  e3c11040      bic	r1, r1, #64	; 0x40
0xf67e3b60:  e28d0008      add	r0, sp, #8	; 0x8
0xf67e3b64:  e3811020      orr	r1, r1, #32	; 0x20
0xf67e3b68:  e2899001      add	r9, r9, #1	; 0x1
0xf67e3b6c:  e58d300c      str	r3, [sp, #12]
0xf67e3b70:  e58d2008      str	r2, [sp, #8]
0xf67e3b74:  e58d2010      str	r2, [sp, #16]
0xf67e3b78:  e50b0054      str	r0, [fp, #-84]
0xf67e3b7c:  e5840008      str	r0, [r4, #8]
0xf67e3b80:  e50b9058      str	r9, [fp, #-88]
0xf67e3b84:  e5c31194      strb	r1, [r3, #404]
0xf67e3b88:  eaffffd0      b	0xf67e3ad0

----------------
IN: 
0xf67e3ad0:  e3570000      cmp	r7, #0	; 0x0
0xf67e3ad4:  17873106      strne	r3, [r7, r6, lsl #2]
0xf67e3ad8:  12866001      addne	r6, r6, #1	; 0x1
0xf67e3adc:  e4953008      ldr	r3, [r5], #8
0xf67e3ae0:  e3530000      cmp	r3, #0	; 0x0
0xf67e3ae4:  0a000029      beq	0xf67e3b90

----------------
IN: 
0xf67e41d8:  e3c33002      bic	r3, r3, #2	; 0x2
0xf67e41dc:  e373010e      cmn	r3, #-2147483645	; 0x80000003
0xf67e41e0:  1afffe3d      bne	0xf67e3adc

----------------
IN: 
0xf67e3adc:  e4953008      ldr	r3, [r5], #8
0xf67e3ae0:  e3530000      cmp	r3, #0	; 0x0
0xf67e3ae4:  0a000029      beq	0xf67e3b90

----------------
IN: 
0xf67e3b90:  e3570000      cmp	r7, #0	; 0x0
0xf67e3b94:  0a000019      beq	0xf67e3c00

----------------
IN: 
0xf67e3c00:  e51b405c      ldr	r4, [fp, #-92]
0xf67e3c04:  e5943000      ldr	r3, [r4]
0xf67e3c08:  e3530000      cmp	r3, #0	; 0x0
0xf67e3c0c:  0a00000b      beq	0xf67e3c40

----------------
IN: 
0xf67e3c10:  e51b305c      ldr	r3, [fp, #-92]
0xf67e3c14:  ea000002      b	0xf67e3c24

----------------
IN: 
0xf67e3c24:  e5933008      ldr	r3, [r3, #8]
0xf67e3c28:  e3530000      cmp	r3, #0	; 0x0
0xf67e3c2c:  1afffff9      bne	0xf67e3c18

----------------
IN: 
0xf67e3c18:  e5932000      ldr	r2, [r3]
0xf67e3c1c:  e3520000      cmp	r2, #0	; 0x0
0xf67e3c20:  0a000005      beq	0xf67e3c3c

----------------
IN: 
0xf67e3c3c:  e50b305c      str	r3, [fp, #-92]
0xf67e3c40:  e51b405c      ldr	r4, [fp, #-92]
0xf67e3c44:  e594a004      ldr	sl, [r4, #4]
0xf67e3c48:  eaffff85      b	0xf67e3a64

----------------
IN: 
0xf67e3a64:  e3a02001      mov	r2, #1	; 0x1
0xf67e3a68:  e59a315c      ldr	r3, [sl, #348]
0xf67e3a6c:  e51b905c      ldr	r9, [fp, #-92]
0xf67e3a70:  e3530000      cmp	r3, #0	; 0x0
0xf67e3a74:  e5892000      str	r2, [r9]
0xf67e3a78:  13a07000      movne	r7, #0	; 0x0
0xf67e3a7c:  0a000079      beq	0xf67e3c68

----------------
IN: 
0xf67e3c84:  e59f3d4c      ldr	r3, [pc, #3404]	; 0xf67e49d8
0xf67e3c88:  e19a70b3      ldrh	r7, [sl, r3]
0xf67e3c8c:  e3570000      cmp	r7, #0	; 0x0
0xf67e3c90:  0affff7a      beq	0xf67e3a80

----------------
IN: 
0xf67e3c94:  e51b9078      ldr	r9, [fp, #-120]
0xf67e3c98:  e1a07107      lsl	r7, r7, #2
0xf67e3c9c:  e1570009      cmp	r7, r9
0xf67e3ca0:  951b707c      ldrls	r7, [fp, #-124]
0xf67e3ca4:  9affff75      bls	0xf67e3a80

----------------
IN: 
0xf67e3ca8:  e1a0c00d      mov	ip, sp
0xf67e3cac:  e287300f      add	r3, r7, #15	; 0xf
0xf67e3cb0:  e3c3300f      bic	r3, r3, #15	; 0xf
0xf67e3cb4:  e283200e      add	r2, r3, #14	; 0xe
0xf67e3cb8:  e1a021a2      lsr	r2, r2, #3
0xf67e3cbc:  e04cc182      sub	ip, ip, r2, lsl #3
0xf67e3cc0:  e1a0d00c      mov	sp, ip
0xf67e3cc4:  e51b407c      ldr	r4, [fp, #-124]
0xf67e3cc8:  e28d7008      add	r7, sp, #8	; 0x8
0xf67e3ccc:  e0872003      add	r2, r7, r3
0xf67e3cd0:  e1540002      cmp	r4, r2
0xf67e3cd4:  00899003      addeq	r9, r9, r3
0xf67e3cd8:  050b9078      streq	r9, [fp, #-120]
0xf67e3cdc:  150b3078      strne	r3, [fp, #-120]
0xf67e3ce0:  e50b707c      str	r7, [fp, #-124]
0xf67e3ce4:  eaffff65      b	0xf67e3a80

----------------
IN: 
0xf67ef4c4:  e5dc2003      ldrb	r2, [ip, #3]
0xf67ef4c8:  e1520001      cmp	r2, r1
0xf67ef4cc:  0a00001e      beq	0xf67ef54c

----------------
IN: 
0xf67ef4d0:  e3520000      cmp	r2, #0	; 0x0
0xf67ef4d4:  0a000016      beq	0xf67ef534

----------------
IN: 
0xf67e7098:  e3a00001      mov	r0, #1	; 0x1
0xf67e709c:  e8bd8038      pop	{r3, r4, r5, pc}

----------------
IN: 
0xf67deca0:  e1a0000b      mov	r0, fp
0xf67deca4:  e28ddf97      add	sp, sp, #604	; 0x25c
0xf67deca8:  e8bd8ff0      pop	{r4, r5, r6, r7, r8, r9, sl, fp, pc}

----------------
IN: 
0xf67e3b98:  e3a03000      mov	r3, #0	; 0x0
0xf67e3b9c:  e1a00186      lsl	r0, r6, #3
0xf67e3ba0:  e7873106      str	r3, [r7, r6, lsl #2]
0xf67e3ba4:  e280000c      add	r0, r0, #12	; 0xc
0xf67e3ba8:  ebffcaf7      bl	0xf67d678c

----------------
IN: 
0xf67e3bac:  e2504000      subs	r4, r0, #0	; 0x0
0xf67e3bb0:  e1a06106      lsl	r6, r6, #2
0xf67e3bb4:  0a00022c      beq	0xf67e446c

----------------
IN: 
0xf67e3bb8:  e1a00004      mov	r0, r4
0xf67e3bbc:  e2865004      add	r5, r6, #4	; 0x4
0xf67e3bc0:  e1a01007      mov	r1, r7
0xf67e3bc4:  e1a02005      mov	r2, r5
0xf67e3bc8:  e480a004      str	sl, [r0], #4
0xf67e3bcc:  eb00310b      bl	0xf67f0000

----------------
IN: 
0xf67f0060:  e4918004      ldr	r8, [r1], #4
0xf67f0064:  e491e004      ldr	lr, [r1], #4
0xf67f0068:  e08ff00c      add	pc, pc, ip

----------------
IN: 
0xf67f0088:  e4808004      str	r8, [r0], #4
0xf67f008c:  e480e004      str	lr, [r0], #4
0xf67f0090:  e8bd01e0      pop	{r5, r6, r7, r8}
0xf67f0094:  e1b02f82      lsls	r2, r2, #31
0xf67f0098:  14d13001      ldrbne	r3, [r1], #1
0xf67f009c:  24d14001      ldrbcs	r4, [r1], #1
0xf67f00a0:  25d1c000      ldrbcs	ip, [r1]
0xf67f00a4:  14c03001      strbne	r3, [r0], #1
0xf67f00a8:  24c04001      strbcs	r4, [r0], #1
0xf67f00ac:  25c0c000      strbcs	ip, [r0]
0xf67f00b0:  e8bd8011      pop	{r0, r4, pc}

----------------
IN: 
0xf67e3bd0:  e2860008      add	r0, r6, #8	; 0x8
0xf67e3bd4:  e1a02005      mov	r2, r5
0xf67e3bd8:  e0840000      add	r0, r4, r0
0xf67e3bdc:  e1a01004      mov	r1, r4
0xf67e3be0:  eb003106      bl	0xf67f0000

----------------
IN: 
0xf67e3be4:  e3e0ca0f      mvn	ip, #61440	; 0xf000
0xf67e3be8:  e1a0e00f      mov	lr, pc
0xf67e3bec:  e24cf05f      sub	pc, ip, #95	; 0x5f

----------------
IN: 

----------------
IN: 
0xf67e3bf0:  e5da3196      ldrb	r3, [sl, #406]
0xf67e3bf4:  e58a41f0      str	r4, [sl, #496]
0xf67e3bf8:  e3833001      orr	r3, r3, #1	; 0x1
0xf67e3bfc:  e5ca3196      strb	r3, [sl, #406]
0xf67e3c00:  e51b405c      ldr	r4, [fp, #-92]
0xf67e3c04:  e5943000      ldr	r3, [r4]
0xf67e3c08:  e3530000      cmp	r3, #0	; 0x0
0xf67e3c0c:  0a00000b      beq	0xf67e3c40

----------------
IN: 
0xf67e3c4c:  e59a30f0      ldr	r3, [sl, #240]
0xf67e3c50:  e3530000      cmp	r3, #0	; 0x0
0xf67e3c54:  1affff8c      bne	0xf67e3a8c

----------------
IN: 
0xf67e3c58:  e59a60e8      ldr	r6, [sl, #232]
0xf67e3c5c:  e3560000      cmp	r6, #0	; 0x0
0xf67e3c60:  1affff89      bne	0xf67e3a8c

----------------
IN: 
0xf67e3c64:  eaffffc9      b	0xf67e3b90

----------------
IN: 
0xf67e3c30:  e50b305c      str	r3, [fp, #-92]
0xf67e3c34:  e1a04003      mov	r4, r3
0xf67e3c38:  ea000046      b	0xf67e3d58

----------------
IN: 
0xf67e3d58:  e59f3c7c      ldr	r3, [pc, #3196]	; 0xf67e49dc
0xf67e3d5c:  e08f3003      add	r3, pc, r3
0xf67e3d60:  e5932000      ldr	r2, [r3]
0xf67e3d64:  e3520000      cmp	r2, #0	; 0x0
0xf67e3d68:  1a000002      bne	0xf67e3d78

----------------
IN: 
0xf67e3d6c:  e51b9084      ldr	r9, [fp, #-132]
0xf67e3d70:  e3590000      cmp	r9, #0	; 0x0
0xf67e3d74:  15839000      strne	r9, [r3]
0xf67e3d78:  e51b3064      ldr	r3, [fp, #-100]
0xf67e3d7c:  e59331f0      ldr	r3, [r3, #496]
0xf67e3d80:  e3530000      cmp	r3, #0	; 0x0
0xf67e3d84:  e50b3068      str	r3, [fp, #-104]
0xf67e3d88:  0a000006      beq	0xf67e3da8

----------------
IN: 
0xf67e3da8:  e51b9058      ldr	r9, [fp, #-88]
0xf67e3dac:  e1a00189      lsl	r0, r9, #3
0xf67e3db0:  e2800004      add	r0, r0, #4	; 0x4
0xf67e3db4:  ebffca74      bl	0xf67d678c

----------------
IN: 
0xf67e3db8:  e2509000      subs	r9, r0, #0	; 0x0
0xf67e3dbc:  0a0002d5      beq	0xf67e4918

----------------
IN: 
0xf67e3dc0:  e51be064      ldr	lr, [fp, #-100]
0xf67e3dc4:  e3a08000      mov	r8, #0	; 0x0
0xf67e3dc8:  e1a0100e      mov	r1, lr
0xf67e3dcc:  e51bc058      ldr	ip, [fp, #-88]
0xf67e3dd0:  e51b206c      ldr	r2, [fp, #-108]
0xf67e3dd4:  e28c3001      add	r3, ip, #1	; 0x1
0xf67e3dd8:  e0893103      add	r3, r9, r3, lsl #2
0xf67e3ddc:  e58ec160      str	ip, [lr, #352]
0xf67e3de0:  e51bc070      ldr	ip, [fp, #-112]
0xf67e3de4:  e58e315c      str	r3, [lr, #348]
0xf67e3de8:  e35c0000      cmp	ip, #0	; 0x0
0xf67e3dec:  e5923004      ldr	r3, [r2, #4]
0xf67e3df0:  1a00029c      bne	0xf67e4868

----------------
IN: 
0xf67e3df4:  e591015c      ldr	r0, [r1, #348]
0xf67e3df8:  e7803108      str	r3, [r0, r8, lsl #2]
0xf67e3dfc:  e5923004      ldr	r3, [r2, #4]
0xf67e3e00:  e2888001      add	r8, r8, #1	; 0x1
0xf67e3e04:  e5922008      ldr	r2, [r2, #8]
0xf67e3e08:  e5d30194      ldrb	r0, [r3, #404]
0xf67e3e0c:  e3520000      cmp	r2, #0	; 0x0
0xf67e3e10:  e3c00060      bic	r0, r0, #96	; 0x60
0xf67e3e14:  e5c30194      strb	r0, [r3, #404]
0xf67e3e18:  1afffff2      bne	0xf67e3de8

----------------
IN: 
0xf67e3de8:  e35c0000      cmp	ip, #0	; 0x0
0xf67e3dec:  e5923004      ldr	r3, [r2, #4]
0xf67e3df0:  1a00029c      bne	0xf67e4868

----------------
IN: 
0xf67e3e1c:  e59f3bbc      ldr	r3, [pc, #3004]	; 0xf67e49e0
0xf67e3e20:  e50b206c      str	r2, [fp, #-108]
0xf67e3e24:  e08f3003      add	r3, pc, r3
0xf67e3e28:  e5933000      ldr	r3, [r3]
0xf67e3e2c:  e3130b02      tst	r3, #2048	; 0x800
0xf67e3e30:  1a000276      bne	0xf67e4810

----------------
IN: 
0xf67e3e34:  e51b0064      ldr	r0, [fp, #-100]
0xf67e3e38:  e590115c      ldr	r1, [r0, #348]
0xf67e3e3c:  e5913000      ldr	r3, [r1]
0xf67e3e40:  e1530000      cmp	r3, r0
0xf67e3e44:  e50b3054      str	r3, [fp, #-84]
0xf67e3e48:  1a000268      bne	0xf67e47f0

----------------
IN: 
0xf67e3e4c:  e51be064      ldr	lr, [fp, #-100]
0xf67e3e50:  e59e61f4      ldr	r6, [lr, #500]
0xf67e3e54:  e3560000      cmp	r6, #0	; 0x0
0xf67e3e58:  0a00025b      beq	0xf67e47cc

----------------
IN: 
0xf67e47cc:  e1a03108      lsl	r3, r8, #2
0xf67e47d0:  e1a02003      mov	r2, r3
0xf67e47d4:  e1a00009      mov	r0, r9
0xf67e47d8:  e50b3058      str	r3, [fp, #-88]
0xf67e47dc:  eb002e07      bl	0xf67f0000

----------------
IN: 
0xf67e47e0:  e3580001      cmp	r8, #1	; 0x1
0xf67e47e4:  e50b605c      str	r6, [fp, #-92]
0xf67e47e8:  9afffe5b      bls	0xf67e415c

----------------
IN: 
0xf67e47ec:  eafffdf7      b	0xf67e3fd0

----------------
IN: 
0xf67e3fd0:  e3a03002      mov	r3, #2	; 0x2
0xf67e3fd4:  e1a02088      lsl	r2, r8, #1
0xf67e3fd8:  e50b3050      str	r3, [fp, #-80]
0xf67e3fdc:  e2823008      add	r3, r2, #8	; 0x8
0xf67e3fe0:  e3c33007      bic	r3, r3, #7	; 0x7
0xf67e3fe4:  e50bd074      str	sp, [fp, #-116]
0xf67e3fe8:  e04dd003      sub	sp, sp, r3
0xf67e3fec:  e28d5008      add	r5, sp, #8	; 0x8
0xf67e3ff0:  e1a00005      mov	r0, r5
0xf67e3ff4:  e3a01000      mov	r1, #0	; 0x0
0xf67e3ff8:  eb002fd0      bl	0xf67eff40

----------------
IN: 
0xf67e3ffc:  e3a03004      mov	r3, #4	; 0x4

----------------
IN: 
0xf67e4000:  e50b3060      str	r3, [fp, #-96]
0xf67e4004:  e2483001      sub	r3, r8, #1	; 0x1
0xf67e4008:  e51bc050      ldr	ip, [fp, #-80]
0xf67e400c:  e50b306c      str	r3, [fp, #-108]
0xf67e4010:  e51b3058      ldr	r3, [fp, #-88]
0xf67e4014:  e50b4078      str	r4, [fp, #-120]
0xf67e4018:  e0893003      add	r3, r9, r3
0xf67e401c:  e50b9064      str	r9, [fp, #-100]
0xf67e4020:  e3a0a001      mov	sl, #1	; 0x1
0xf67e4024:  e1a09008      mov	r9, r8
0xf67e4028:  e1a0400c      mov	r4, ip
0xf67e402c:  e1a08005      mov	r8, r5
0xf67e4030:  e50b3070      str	r3, [fp, #-112]
0xf67e4034:  e51bc050      ldr	ip, [fp, #-80]
0xf67e4038:  e51b306c      ldr	r3, [fp, #-108]
0xf67e403c:  e19820bc      ldrh	r2, [r8, ip]
0xf67e4040:  e51be060      ldr	lr, [fp, #-96]
0xf67e4044:  e15a0003      cmp	sl, r3
0xf67e4048:  e51b3064      ldr	r3, [fp, #-100]
0xf67e404c:  e2822001      add	r2, r2, #1	; 0x1
0xf67e4050:  e18820bc      strh	r2, [r8, ip]
0xf67e4054:  e083000e      add	r0, r3, lr
0xf67e4058:  e088c00c      add	ip, r8, ip
0xf67e405c:  e793500e      ldr	r5, [r3, lr]
0xf67e4060:  2a000011      bcs	0xf67e40ac

----------------
IN: 
0xf67e4064:  e51be070      ldr	lr, [fp, #-112]
0xf67e4068:  e51b606c      ldr	r6, [fp, #-108]
0xf67e406c:  e51e3004      ldr	r3, [lr, #-4]
0xf67e4070:  e24e7004      sub	r7, lr, #4	; 0x4
0xf67e4074:  e59321f0      ldr	r2, [r3, #496]
0xf67e4078:  e1a0e007      mov	lr, r7
0xf67e407c:  e3520000      cmp	r2, #0	; 0x0
0xf67e4080:  12422004      subne	r2, r2, #4	; 0x4
0xf67e4084:  1a000002      bne	0xf67e4094

----------------
IN: 
0xf67e4088:  ea000004      b	0xf67e40a0

----------------
IN: 
0xf67e40a0:  e2466001      sub	r6, r6, #1	; 0x1
0xf67e40a4:  e15a0006      cmp	sl, r6
0xf67e40a8:  3affffef      bcc	0xf67e406c

----------------
IN: 
0xf67e40ac:  e1590004      cmp	r9, r4
0xf67e40b0:  e1a0a004      mov	sl, r4
0xf67e40b4:  0a000025      beq	0xf67e4150

----------------
IN: 
0xf67e40b8:  e1a0c084      lsl	ip, r4, #1
0xf67e40bc:  e0642009      rsb	r2, r4, r9
0xf67e40c0:  e1a02082      lsl	r2, r2, #1
0xf67e40c4:  e088000c      add	r0, r8, ip
0xf67e40c8:  e3a01000      mov	r1, #0	; 0x0
0xf67e40cc:  e50bc050      str	ip, [fp, #-80]
0xf67e40d0:  eb002f9a      bl	0xf67eff40

----------------
IN: 
0xf67e40d4:  e1a03104      lsl	r3, r4, #2
0xf67e40d8:  e50b3060      str	r3, [fp, #-96]
0xf67e40dc:  e2844001      add	r4, r4, #1	; 0x1
0xf67e40e0:  eaffffd3      b	0xf67e4034

----------------
IN: 
0xf67e4034:  e51bc050      ldr	ip, [fp, #-80]
0xf67e4038:  e51b306c      ldr	r3, [fp, #-108]
0xf67e403c:  e19820bc      ldrh	r2, [r8, ip]
0xf67e4040:  e51be060      ldr	lr, [fp, #-96]
0xf67e4044:  e15a0003      cmp	sl, r3
0xf67e4048:  e51b3064      ldr	r3, [fp, #-100]
0xf67e404c:  e2822001      add	r2, r2, #1	; 0x1
0xf67e4050:  e18820bc      strh	r2, [r8, ip]
0xf67e4054:  e083000e      add	r0, r3, lr
0xf67e4058:  e088c00c      add	ip, r8, ip
0xf67e405c:  e793500e      ldr	r5, [r3, lr]
0xf67e4060:  2a000011      bcs	0xf67e40ac

----------------
IN: 
0xf67e4150:  e51b4078      ldr	r4, [fp, #-120]
0xf67e4154:  e51b9064      ldr	r9, [fp, #-100]
0xf67e4158:  e51bd074      ldr	sp, [fp, #-116]
0xf67e415c:  e3a03000      mov	r3, #0	; 0x0
0xf67e4160:  e51bc058      ldr	ip, [fp, #-88]
0xf67e4164:  e789300c      str	r3, [r9, ip]
0xf67e4168:  e3e0ca0f      mvn	ip, #61440	; 0xf000
0xf67e416c:  e1a0e00f      mov	lr, pc
0xf67e4170:  e24cf05f      sub	pc, ip, #95	; 0x5f

----------------
IN: 
0xf67e4174:  e51be054      ldr	lr, [fp, #-84]
0xf67e4178:  e51b005c      ldr	r0, [fp, #-92]
0xf67e417c:  e5de3196      ldrb	r3, [lr, #406]
0xf67e4180:  e3500000      cmp	r0, #0	; 0x0
0xf67e4184:  e3833001      orr	r3, r3, #1	; 0x1
0xf67e4188:  e58e91f0      str	r9, [lr, #496]
0xf67e418c:  e5ce3196      strb	r3, [lr, #406]
0xf67e4190:  0a000007      beq	0xf67e41b4

----------------
IN: 
0xf67e41b4:  e51b3068      ldr	r3, [fp, #-104]
0xf67e41b8:  e3530000      cmp	r3, #0	; 0x0
0xf67e41bc:  0a000001      beq	0xf67e41c8

----------------
IN: 
0xf67e41c8:  e3540000      cmp	r4, #0	; 0x0
0xf67e41cc:  1a00016b      bne	0xf67e4780

----------------
IN: 
0xf67e41d0:  e24bd020      sub	sp, fp, #32	; 0x20
0xf67e41d4:  e8bd8ff0      pop	{r4, r5, r6, r7, r8, r9, sl, fp, pc}

----------------
IN: 
0xf67d8e0c:  e59a3160      ldr	r3, [sl, #352]
0xf67d8e10:  e3530000      cmp	r3, #0	; 0x0
0xf67d8e14:  0a000008      beq	0xf67d8e3c

----------------
IN: 
0xf67d8e18:  e1a02003      mov	r2, r3
0xf67d8e1c:  e59a115c      ldr	r1, [sl, #348]
0xf67d8e20:  e0811103      add	r1, r1, r3, lsl #2
0xf67d8e24:  e5310004      ldr	r0, [r1, #-4]!
0xf67d8e28:  e2522001      subs	r2, r2, #1	; 0x1
0xf67d8e2c:  e5d0c194      ldrb	ip, [r0, #404]
0xf67d8e30:  e38cc010      orr	ip, ip, #16	; 0x10
0xf67d8e34:  e5c0c194      strb	ip, [r0, #404]
0xf67d8e38:  1afffff9      bne	0xf67d8e24

----------------
IN: 
0xf67d8e24:  e5310004      ldr	r0, [r1, #-4]!
0xf67d8e28:  e2522001      subs	r2, r2, #1	; 0x1
0xf67d8e2c:  e5d0c194      ldrb	ip, [r0, #404]
0xf67d8e30:  e38cc010      orr	ip, ip, #16	; 0x10
0xf67d8e34:  e5c0c194      strb	ip, [r0, #404]
0xf67d8e38:  1afffff9      bne	0xf67d8e24

----------------
IN: 
0xf67d8e3c:  e51f2b6c      ldr	r2, [pc, #-2924]	; 0xf67d82d8
0xf67d8e40:  e08f2002      add	r2, pc, r2
0xf67d8e44:  e5921528      ldr	r1, [r2, #1320]
0xf67d8e48:  e5920524      ldr	r0, [r2, #1316]
0xf67d8e4c:  e581000c      str	r0, [r1, #12]
0xf67d8e50:  e5922524      ldr	r2, [r2, #1316]
0xf67d8e54:  e3520000      cmp	r2, #0	; 0x0
0xf67d8e58:  15821010      strne	r1, [r2, #16]
0xf67d8e5c:  e3530001      cmp	r3, #1	; 0x1
0xf67d8e60:  9a00042d      bls	0xf67d9f1c

----------------
IN: 
0xf67d8e64:  e51f2b90      ldr	r2, [pc, #-2960]	; 0xf67d82dc
0xf67d8e68:  e59a015c      ldr	r0, [sl, #348]
0xf67d8e6c:  e08f2002      add	r2, pc, r2
0xf67d8e70:  e2822e51      add	r2, r2, #1296	; 0x510
0xf67d8e74:  e5901004      ldr	r1, [r0, #4]
0xf67d8e78:  e2822008      add	r2, r2, #8	; 0x8
0xf67d8e7c:  e1510002      cmp	r1, r2
0xf67d8e80:  0a000422      beq	0xf67d9f10

----------------
IN: 
0xf67d8e84:  e51f2bac      ldr	r2, [pc, #-2988]	; 0xf67d82e0
0xf67d8e88:  e280c004      add	ip, r0, #4	; 0x4
0xf67d8e8c:  e08f2002      add	r2, pc, r2
0xf67d8e90:  e2822e51      add	r2, r2, #1296	; 0x510
0xf67d8e94:  e2822008      add	r2, r2, #8	; 0x8
0xf67d8e98:  e3a01001      mov	r1, #1	; 0x1
0xf67d8e9c:  ea000002      b	0xf67d8eac

----------------
IN: 
0xf67d8eac:  e2811001      add	r1, r1, #1	; 0x1
0xf67d8eb0:  e1510003      cmp	r1, r3
0xf67d8eb4:  1afffff9      bne	0xf67d8ea0

----------------
IN: 
0xf67d8ea0:  e5bce004      ldr	lr, [ip, #4]!
0xf67d8ea4:  e15e0002      cmp	lr, r2
0xf67d8ea8:  0a000080      beq	0xf67d90b0

----------------
IN: 
0xf67d90b0:  e2412107      sub	r2, r1, #-1073741823	; 0xc0000001
0xf67d90b4:  e1a02102      lsl	r2, r2, #2
0xf67d90b8:  e51fcdb8      ldr	ip, [pc, #-3512]	; 0xf67d8308
0xf67d90bc:  e51b4050      ldr	r4, [fp, #-80]
0xf67d90c0:  e7902002      ldr	r2, [r0, r2]
0xf67d90c4:  e08fc00c      add	ip, pc, ip
0xf67d90c8:  e3540000      cmp	r4, #0	; 0x0
0xf67d90cc:  e58c2528      str	r2, [ip, #1320]
0xf67d90d0:  1a000384      bne	0xf67d9ee8

----------------
IN: 
0xf67d90d4:  e2811001      add	r1, r1, #1	; 0x1
0xf67d90d8:  e1530001      cmp	r3, r1
0xf67d90dc:  e51f3dd8      ldr	r3, [pc, #-3544]	; 0xf67d830c
0xf67d90e0:  e51fcdd8      ldr	ip, [pc, #-3544]	; 0xf67d8310
0xf67d90e4:  e08f3003      add	r3, pc, r3
0xf67d90e8:  87901101      ldrhi	r1, [r0, r1, lsl #2]
0xf67d90ec:  951b1050      ldrls	r1, [fp, #-80]
0xf67d90f0:  e5930138      ldr	r0, [r3, #312]
0xf67d90f4:  e08fc00c      add	ip, pc, ip
0xf67d90f8:  e58c1524      str	r1, [ip, #1316]
0xf67d90fc:  e3500000      cmp	r0, #0	; 0x0
0xf67d9100:  e592300c      ldr	r3, [r2, #12]
0xf67d9104:  0a000001      beq	0xf67d9110

----------------
IN: 
0xf67d9110:  e1510003      cmp	r1, r3
0xf67d9114:  1a0002c5      bne	0xf67d9c30

----------------
IN: 
0xf67d9118:  e51f1e0c      ldr	r1, [pc, #-3596]	; 0xf67d8314
0xf67d911c:  e08f1001      add	r1, pc, r1
0xf67d9120:  e2813e51      add	r3, r1, #1296	; 0x510
0xf67d9124:  e2833008      add	r3, r3, #8	; 0x8
0xf67d9128:  e582300c      str	r3, [r2, #12]
0xf67d912c:  e5911524      ldr	r1, [r1, #1316]
0xf67d9130:  e3510000      cmp	r1, #0	; 0x0
0xf67d9134:  0a0002ba      beq	0xf67d9c24

----------------
IN: 
0xf67d9c24:  e3a0c001      mov	ip, #1	; 0x1
0xf67d9c28:  e50bc068      str	ip, [fp, #-104]
0xf67d9c2c:  eafffd47      b	0xf67d9150

----------------
IN: 
0xf67d9150:  e51b4050      ldr	r4, [fp, #-80]
0xf67d9154:  e51f0e44      ldr	r0, [pc, #-3652]	; 0xf67d8318
0xf67d9158:  e16f3f14      clz	r3, r4
0xf67d915c:  e51f1e48      ldr	r1, [pc, #-3656]	; 0xf67d831c
0xf67d9160:  e24b4034      sub	r4, fp, #52	; 0x34
0xf67d9164:  e1a032a3      lsr	r3, r3, #5
0xf67d9168:  e1a02004      mov	r2, r4
0xf67d916c:  e08f0000      add	r0, pc, r0
0xf67d9170:  e08f1001      add	r1, pc, r1
0xf67d9174:  e50b6030      str	r6, [fp, #-48]
0xf67d9178:  e50b3034      str	r3, [fp, #-52]
0xf67d917c:  eb003398      bl	0xf67e5fe4

----------------
IN: 
0xf67e5fe4:  e59f304c      ldr	r3, [pc, #76]	; 0xf67e6038
0xf67e5fe8:  e92d47f0      push	{r4, r5, r6, r7, r8, r9, sl, lr}
0xf67e5fec:  e08f3003      add	r3, pc, r3
0xf67e5ff0:  e5933514      ldr	r3, [r3, #1300]
0xf67e5ff4:  e1a0a002      mov	sl, r2
0xf67e5ff8:  e1a06000      mov	r6, r0
0xf67e5ffc:  e1a07001      mov	r7, r1

----------------
IN: 
0xf67e6000:  e12fff33      blx	r3

----------------
IN: 
0xf67e6004:  e3a03000      mov	r3, #0	; 0x0
0xf67e6008:  e1a05000      mov	r5, r0
0xf67e600c:  e59f4028      ldr	r4, [pc, #40]	; 0xf67e603c
0xf67e6010:  e5909000      ldr	r9, [r0]
0xf67e6014:  e08f4004      add	r4, pc, r4
0xf67e6018:  e5948000      ldr	r8, [r4]
0xf67e601c:  e1a0000a      mov	r0, sl
0xf67e6020:  e5853000      str	r3, [r5]
0xf67e6024:  e5846000      str	r6, [r4]
0xf67e6028:  e12fff37      blx	r7

----------------
IN: 
0xf67dacbc:  e59f3038      ldr	r3, [pc, #56]	; 0xf67dacfc
0xf67dacc0:  e92d4010      push	{r4, lr}
0xf67dacc4:  e08f3003      add	r3, pc, r3
0xf67dacc8:  e5902004      ldr	r2, [r0, #4]
0xf67daccc:  e1a04000      mov	r4, r0
0xf67dacd0:  e3a01001      mov	r1, #1	; 0x1
0xf67dacd4:  e5930000      ldr	r0, [r3]
0xf67dacd8:  eb003328      bl	0xf67e7980

----------------
IN: 
0xf67e7980:  e92d40f8      push	{r3, r4, r5, r6, r7, lr}
0xf67e7984:  e2504000      subs	r4, r0, #0	; 0x0
0xf67e7988:  0a000017      beq	0xf67e79ec

----------------
IN: 
0xf67e798c:  e1a06001      mov	r6, r1
0xf67e7990:  e1a07002      mov	r7, r2
0xf67e7994:  e3a05000      mov	r5, #0	; 0x0
0xf67e7998:  ea000003      b	0xf67e79ac

----------------
IN: 
0xf67e79ac:  e5d43195      ldrb	r3, [r4, #405]
0xf67e79b0:  e3130002      tst	r3, #2	; 0x2
0xf67e79b4:  13a00000      movne	r0, #0	; 0x0
0xf67e79b8:  1afffff7      bne	0xf67e799c

----------------
IN: 
0xf67e79bc:  e1a00004      mov	r0, r4
0xf67e79c0:  e1a01006      mov	r1, r6
0xf67e79c4:  e1a02007      mov	r2, r7
0xf67e79c8:  ebfffed6      bl	0xf67e7528

----------------
IN: 
0xf67e7528:  e92d4ff0      push	{r4, r5, r6, r7, r8, r9, sl, fp, lr}
0xf67e752c:  e28db020      add	fp, sp, #32	; 0x20
0xf67e7530:  e24dd054      sub	sp, sp, #84	; 0x54
0xf67e7534:  e5903034      ldr	r3, [r0, #52]
0xf67e7538:  e1a05000      mov	r5, r0
0xf67e753c:  e3530000      cmp	r3, #0	; 0x0
0xf67e7540:  e50b2054      str	r2, [fp, #-84]
0xf67e7544:  0a0000cc      beq	0xf67e787c

----------------
IN: 
0xf67e7548:  e59000ac      ldr	r0, [r0, #172]
0xf67e754c:  e59520b4      ldr	r2, [r5, #180]
0xf67e7550:  e3500000      cmp	r0, #0	; 0x0
0xf67e7554:  e50b005c      str	r0, [fp, #-92]
0xf67e7558:  e5938004      ldr	r8, [r3, #4]
0xf67e755c:  e50b2060      str	r2, [fp, #-96]
0xf67e7560:  0a00006d      beq	0xf67e771c

----------------
IN: 
0xf67e7564:  e5902004      ldr	r2, [r0, #4]
0xf67e7568:  e5953000      ldr	r3, [r5]
0xf67e756c:  e1a09001      mov	r9, r1
0xf67e7570:  e19210b3      ldrh	r1, [r2, r3]
0xf67e7574:  e0820003      add	r0, r2, r3
0xf67e7578:  e3510001      cmp	r1, #1	; 0x1
0xf67e757c:  e50b0048      str	r0, [fp, #-72]
0xf67e7580:  1a0000c4      bne	0xf67e7898

----------------
IN: 
0xf67e7584:  e3a06000      mov	r6, #0	; 0x0
0xf67e7588:  e1a07006      mov	r7, r6
0xf67e758c:  e59f23c0      ldr	r2, [pc, #960]	; 0xf67e7954
0xf67e7590:  e59f33c0      ldr	r3, [pc, #960]	; 0xf67e7958
0xf67e7594:  e59f03c0      ldr	r0, [pc, #960]	; 0xf67e795c
0xf67e7598:  e08f2002      add	r2, pc, r2
0xf67e759c:  e08f3003      add	r3, pc, r3
0xf67e75a0:  e08f0000      add	r0, pc, r0
0xf67e75a4:  e50b2058      str	r2, [fp, #-88]
0xf67e75a8:  e50b304c      str	r3, [fp, #-76]
0xf67e75ac:  e50b0050      str	r0, [fp, #-80]
0xf67e75b0:  e5953018      ldr	r3, [r5, #24]
0xf67e75b4:  e51b2048      ldr	r2, [fp, #-72]
0xf67e75b8:  e51b0058      ldr	r0, [fp, #-88]
0xf67e75bc:  e5924004      ldr	r4, [r2, #4]
0xf67e75c0:  e0832183      add	r2, r3, r3, lsl #3
0xf67e75c4:  e0833082      add	r3, r3, r2, lsl #1
0xf67e75c8:  e790a103      ldr	sl, [r0, r3, lsl #2]
0xf67e75cc:  e0884004      add	r4, r8, r4
0xf67e75d0:  e35a0000      cmp	sl, #0	; 0x0
0xf67e75d4:  1a000003      bne	0xf67e75e8

----------------
IN: 
0xf67e75e8:  e1a00004      mov	r0, r4
0xf67e75ec:  e1a0100a      mov	r1, sl
0xf67e75f0:  ebfffe95      bl	0xf67e704c

----------------
IN: 
0xf67e75f4:  e3500000      cmp	r0, #0	; 0x0
0xf67e75f8:  0afffff7      beq	0xf67e75dc

----------------
IN: 
0xf67e75dc:  e59aa00c      ldr	sl, [sl, #12]
0xf67e75e0:  e35a0000      cmp	sl, #0	; 0x0
0xf67e75e4:  0a000030      beq	0xf67e76ac

----------------
IN: 
0xf67e75fc:  e51b2054      ldr	r2, [fp, #-84]
0xf67e7600:  e3520000      cmp	r2, #0	; 0x0
0xf67e7604:  1a00009f      bne	0xf67e7888

----------------
IN: 
0xf67e7608:  e51b3048      ldr	r3, [fp, #-72]
0xf67e760c:  e5934008      ldr	r4, [r3, #8]
0xf67e7610:  e0834004      add	r4, r3, r4
0xf67e7614:  ea000000      b	0xf67e761c

----------------
IN: 
0xf67e761c:  e5950004      ldr	r0, [r5, #4]
0xf67e7620:  e5d03000      ldrb	r3, [r0]
0xf67e7624:  e3530000      cmp	r3, #0	; 0x0
0xf67e7628:  1a000005      bne	0xf67e7644

----------------
IN: 
0xf67e762c:  e51b004c      ldr	r0, [fp, #-76]
0xf67e7630:  e51b2050      ldr	r2, [fp, #-80]
0xf67e7634:  e5903000      ldr	r3, [r0]
0xf67e7638:  e5930000      ldr	r0, [r3]
0xf67e763c:  e3500000      cmp	r0, #0	; 0x0
0xf67e7640:  01a00002      moveq	r0, r2
0xf67e7644:  e59a1014      ldr	r1, [sl, #20]
0xf67e7648:  e5942000      ldr	r2, [r4]
0xf67e764c:  e5943008      ldr	r3, [r4, #8]
0xf67e7650:  e88d0202      stm	sp, {r1, r9}
0xf67e7654:  e1d4e0b4      ldrh	lr, [r4, #4]
0xf67e7658:  e5951018      ldr	r1, [r5, #24]
0xf67e765c:  e20ee002      and	lr, lr, #2	; 0x2
0xf67e7660:  e0883003      add	r3, r8, r3
0xf67e7664:  e58de008      str	lr, [sp, #8]
0xf67e7668:  ebfffeaf      bl	0xf67e712c

----------------
IN: 
0xf67e712c:  e92d4bf0      push	{r4, r5, r6, r7, r8, r9, fp, lr}
0xf67e7130:  e59fc39c      ldr	ip, [pc, #924]	; 0xf67e74d4
0xf67e7134:  e28db01c      add	fp, sp, #28	; 0x1c
0xf67e7138:  e24dd028      sub	sp, sp, #40	; 0x28
0xf67e713c:  e08fc00c      add	ip, pc, ip
0xf67e7140:  e59b6004      ldr	r6, [fp, #4]
0xf67e7144:  e59ce000      ldr	lr, [ip]
0xf67e7148:  e596c034      ldr	ip, [r6, #52]
0xf67e714c:  e31e0010      tst	lr, #16	; 0x10
0xf67e7150:  e1a08000      mov	r8, r0
0xf67e7154:  e1a05002      mov	r5, r2
0xf67e7158:  e1a07003      mov	r7, r3
0xf67e715c:  e59c9004      ldr	r9, [ip, #4]
0xf67e7160:  1a00007f      bne	0xf67e7364

----------------
IN: 
0xf67e7164:  e59630b4      ldr	r3, [r6, #180]
0xf67e7168:  e3530000      cmp	r3, #0	; 0x0
0xf67e716c:  0a000096      beq	0xf67e73cc

----------------
IN: 
0xf67e7170:  e5933004      ldr	r3, [r3, #4]
0xf67e7174:  e3530000      cmp	r3, #0	; 0x0
0xf67e7178:  0a00008b      beq	0xf67e73ac

----------------
IN: 
0xf67e717c:  e5964000      ldr	r4, [r6]
0xf67e7180:  e19320b4      ldrh	r2, [r3, r4]
0xf67e7184:  e0834004      add	r4, r3, r4
0xf67e7188:  e3520001      cmp	r2, #1	; 0x1
0xf67e718c:  1a000008      bne	0xf67e71b4

----------------
IN: 
0xf67e7190:  e594c008      ldr	ip, [r4, #8]
0xf67e7194:  e15c0005      cmp	ip, r5
0xf67e7198:  0a000025      beq	0xf67e7234

----------------
IN: 
0xf67e719c:  e594c010      ldr	ip, [r4, #16]
0xf67e71a0:  e35c0000      cmp	ip, #0	; 0x0
0xf67e71a4:  0a00002b      beq	0xf67e7258

----------------
IN: 
0xf67e71a8:  e1b430bc      ldrh	r3, [r4, ip]!
0xf67e71ac:  e3530001      cmp	r3, #1	; 0x1
0xf67e71b0:  0afffff6      beq	0xf67e7190

----------------
IN: 
0xf67e7234:  e594300c      ldr	r3, [r4, #12]
0xf67e7238:  e1a00007      mov	r0, r7
0xf67e723c:  e7941003      ldr	r1, [r4, r3]
0xf67e7240:  e0891001      add	r1, r9, r1
0xf67e7244:  eb0020c4      bl	0xf67ef55c

----------------
IN: 
0xf67e7248:  e3500000      cmp	r0, #0	; 0x0
0xf67e724c:  1affffd2      bne	0xf67e719c

----------------
IN: 
0xf67e7250:  e24bd01c      sub	sp, fp, #28	; 0x1c
0xf67e7254:  e8bd8bf0      pop	{r4, r5, r6, r7, r8, r9, fp, pc}

----------------
IN: 
0xf67e766c:  e1d430b6      ldrh	r3, [r4, #6]
0xf67e7670:  e594200c      ldr	r2, [r4, #12]
0xf67e7674:  e1a03883      lsl	r3, r3, #17
0xf67e7678:  e1a038a3      lsr	r3, r3, #17
0xf67e767c:  e1560003      cmp	r6, r3
0xf67e7680:  31a06003      movcc	r6, r3
0xf67e7684:  e3520000      cmp	r2, #0	; 0x0
0xf67e7688:  e1877000      orr	r7, r7, r0
0xf67e768c:  1affffe1      bne	0xf67e7618

----------------
IN: 
0xf67e7690:  e51b0048      ldr	r0, [fp, #-72]
0xf67e7694:  e590300c      ldr	r3, [r0, #12]
0xf67e7698:  e3530000      cmp	r3, #0	; 0x0
0xf67e769c:  0a000020      beq	0xf67e7724

----------------
IN: 
0xf67e7724:  e51b2060      ldr	r2, [fp, #-96]
0xf67e7728:  e3520000      cmp	r2, #0	; 0x0
0xf67e772c:  0a00000a      beq	0xf67e775c

----------------
IN: 
0xf67e775c:  e3560000      cmp	r6, #0	; 0x0
0xf67e7760:  1a000002      bne	0xf67e7770

----------------
IN: 
0xf67e7770:  e2866001      add	r6, r6, #1	; 0x1
0xf67e7774:  e1a00006      mov	r0, r6
0xf67e7778:  e3a01010      mov	r1, #16	; 0x10
0xf67e777c:  ebffbc08      bl	0xf67d67a4

----------------
IN: 
0xf67e7780:  e3500000      cmp	r0, #0	; 0x0
0xf67e7784:  e5850170      str	r0, [r5, #368]
0xf67e7788:  0a00005e      beq	0xf67e7908

----------------
IN: 
0xf67e778c:  e59530e4      ldr	r3, [r5, #228]
0xf67e7790:  e5856174      str	r6, [r5, #372]
0xf67e7794:  e51b205c      ldr	r2, [fp, #-92]
0xf67e7798:  e5933004      ldr	r3, [r3, #4]
0xf67e779c:  e3520000      cmp	r2, #0	; 0x0
0xf67e77a0:  e58531a4      str	r3, [r5, #420]
0xf67e77a4:  0a00001c      beq	0xf67e781c

----------------
IN: 
0xf67e77a8:  e592a004      ldr	sl, [r2, #4]
0xf67e77ac:  e5953000      ldr	r3, [r5]
0xf67e77b0:  e08aa003      add	sl, sl, r3
0xf67e77b4:  e59a3008      ldr	r3, [sl, #8]
0xf67e77b8:  e08a3003      add	r3, sl, r3
0xf67e77bc:  ea000000      b	0xf67e77c4

----------------
IN: 
0xf67e77c4:  e1d320b6      ldrh	r2, [r3, #6]
0xf67e77c8:  e1a01882      lsl	r1, r2, #17
0xf67e77cc:  e1a018a1      lsr	r1, r1, #17
0xf67e77d0:  e1560001      cmp	r6, r1
0xf67e77d4:  9a00000a      bls	0xf67e7804

----------------
IN: 
0xf67e77d8:  e5934008      ldr	r4, [r3, #8]
0xf67e77dc:  e59ae004      ldr	lr, [sl, #4]
0xf67e77e0:  e593c000      ldr	ip, [r3]
0xf67e77e4:  e2029902      and	r9, r2, #32768	; 0x8000
0xf67e77e8:  e0884004      add	r4, r8, r4
0xf67e77ec:  e0802201      add	r2, r0, r1, lsl #4
0xf67e77f0:  e088e00e      add	lr, r8, lr
0xf67e77f4:  e5829008      str	r9, [r2, #8]
0xf67e77f8:  e582c004      str	ip, [r2, #4]
0xf67e77fc:  e7804201      str	r4, [r0, r1, lsl #4]
0xf67e7800:  e582e00c      str	lr, [r2, #12]
0xf67e7804:  e593200c      ldr	r2, [r3, #12]
0xf67e7808:  e3520000      cmp	r2, #0	; 0x0
0xf67e780c:  1affffeb      bne	0xf67e77c0

----------------
IN: 
0xf67e7810:  e59a300c      ldr	r3, [sl, #12]
0xf67e7814:  e3530000      cmp	r3, #0	; 0x0
0xf67e7818:  1affffe4      bne	0xf67e77b0

----------------
IN: 
0xf67e781c:  e51b3060      ldr	r3, [fp, #-96]
0xf67e7820:  e3530000      cmp	r3, #0	; 0x0
0xf67e7824:  0affffce      beq	0xf67e7764

----------------
IN: 
0xf67e7764:  e1a00007      mov	r0, r7
0xf67e7768:  e24bd020      sub	sp, fp, #32	; 0x20
0xf67e776c:  e8bd8ff0      pop	{r4, r5, r6, r7, r8, r9, sl, fp, pc}

----------------
IN: 
0xf67e79cc:  e2900000      adds	r0, r0, #0	; 0x0
0xf67e79d0:  13a00001      movne	r0, #1	; 0x1
0xf67e79d4:  e594400c      ldr	r4, [r4, #12]
0xf67e79d8:  e1855000      orr	r5, r5, r0
0xf67e79dc:  e3540000      cmp	r4, #0	; 0x0
0xf67e79e0:  1afffff1      bne	0xf67e79ac

----------------
IN: 
0xf67e7644:  e59a1014      ldr	r1, [sl, #20]
0xf67e7648:  e5942000      ldr	r2, [r4]
0xf67e764c:  e5943008      ldr	r3, [r4, #8]
0xf67e7650:  e88d0202      stm	sp, {r1, r9}
0xf67e7654:  e1d4e0b4      ldrh	lr, [r4, #4]
0xf67e7658:  e5951018      ldr	r1, [r5, #24]
0xf67e765c:  e20ee002      and	lr, lr, #2	; 0x2
0xf67e7660:  e0883003      add	r3, r8, r3
0xf67e7664:  e58de008      str	lr, [sp, #8]
0xf67e7668:  ebfffeaf      bl	0xf67e712c

----------------
IN: 
0xf67e7618:  e0844002      add	r4, r4, r2
0xf67e761c:  e5950004      ldr	r0, [r5, #4]
0xf67e7620:  e5d03000      ldrb	r3, [r0]
0xf67e7624:  e3530000      cmp	r3, #0	; 0x0
0xf67e7628:  1a000005      bne	0xf67e7644

----------------
IN: 
0xf67e7730:  e5922004      ldr	r2, [r2, #4]
0xf67e7734:  e5953000      ldr	r3, [r5]
0xf67e7738:  e0823003      add	r3, r2, r3
0xf67e773c:  e1d310b4      ldrh	r1, [r3, #4]
0xf67e7740:  e5932010      ldr	r2, [r3, #16]
0xf67e7744:  e1a01881      lsl	r1, r1, #17
0xf67e7748:  e1a018a1      lsr	r1, r1, #17
0xf67e774c:  e1560001      cmp	r6, r1
0xf67e7750:  31a06001      movcc	r6, r1
0xf67e7754:  e3520000      cmp	r2, #0	; 0x0
0xf67e7758:  1afffff6      bne	0xf67e7738

----------------
IN: 
0xf67e7738:  e0823003      add	r3, r2, r3
0xf67e773c:  e1d310b4      ldrh	r1, [r3, #4]
0xf67e7740:  e5932010      ldr	r2, [r3, #16]
0xf67e7744:  e1a01881      lsl	r1, r1, #17
0xf67e7748:  e1a018a1      lsr	r1, r1, #17
0xf67e774c:  e1560001      cmp	r6, r1
0xf67e7750:  31a06001      movcc	r6, r1
0xf67e7754:  e3520000      cmp	r2, #0	; 0x0
0xf67e7758:  1afffff6      bne	0xf67e7738

----------------
IN: 
0xf67e77c0:  e0833002      add	r3, r3, r2
0xf67e77c4:  e1d320b6      ldrh	r2, [r3, #6]
0xf67e77c8:  e1a01882      lsl	r1, r2, #17
0xf67e77cc:  e1a018a1      lsr	r1, r1, #17
0xf67e77d0:  e1560001      cmp	r6, r1
0xf67e77d4:  9a00000a      bls	0xf67e7804

----------------
IN: 
0xf67e7828:  e5932004      ldr	r2, [r3, #4]
0xf67e782c:  e5953000      ldr	r3, [r5]
0xf67e7830:  e0823003      add	r3, r2, r3
0xf67e7834:  e1d320b2      ldrh	r2, [r3, #2]
0xf67e7838:  e593100c      ldr	r1, [r3, #12]
0xf67e783c:  e2122001      ands	r2, r2, #1	; 0x1
0xf67e7840:  1a000009      bne	0xf67e786c

----------------
IN: 
0xf67e786c:  e5932010      ldr	r2, [r3, #16]
0xf67e7870:  e3520000      cmp	r2, #0	; 0x0
0xf67e7874:  1affffed      bne	0xf67e7830

----------------
IN: 
0xf67e7830:  e0823003      add	r3, r2, r3
0xf67e7834:  e1d320b2      ldrh	r2, [r3, #2]
0xf67e7838:  e593100c      ldr	r1, [r3, #12]
0xf67e783c:  e2122001      ands	r2, r2, #1	; 0x1
0xf67e7840:  1a000009      bne	0xf67e786c

----------------
IN: 
0xf67e7844:  e1d3c0b4      ldrh	ip, [r3, #4]
0xf67e7848:  e793e001      ldr	lr, [r3, r1]
0xf67e784c:  e1a0c88c      lsl	ip, ip, #17
0xf67e7850:  e5934008      ldr	r4, [r3, #8]
0xf67e7854:  e1a0c8ac      lsr	ip, ip, #17
0xf67e7858:  e080120c      add	r1, r0, ip, lsl #4
0xf67e785c:  e088e00e      add	lr, r8, lr
0xf67e7860:  e5814004      str	r4, [r1, #4]
0xf67e7864:  e780e20c      str	lr, [r0, ip, lsl #4]
0xf67e7868:  e581200c      str	r2, [r1, #12]
0xf67e786c:  e5932010      ldr	r2, [r3, #16]
0xf67e7870:  e3520000      cmp	r2, #0	; 0x0
0xf67e7874:  1affffed      bne	0xf67e7830

----------------
IN: 
0xf67e7878:  eaffffb9      b	0xf67e7764

----------------
IN: 
0xf67e771c:  e51b605c      ldr	r6, [fp, #-92]
0xf67e7720:  e1a07006      mov	r7, r6
0xf67e7724:  e51b2060      ldr	r2, [fp, #-96]
0xf67e7728:  e3520000      cmp	r2, #0	; 0x0
0xf67e772c:  0a00000a      beq	0xf67e775c

----------------
IN: 
0xf67e79e4:  e1a00005      mov	r0, r5
0xf67e79e8:  e8bd80f8      pop	{r3, r4, r5, r6, r7, pc}

----------------
IN: 
0xf67dacdc:  e3500000      cmp	r0, #0	; 0x0
0xf67dace0:  08bd8010      popeq	{r4, pc}

----------------
IN: 
0xf67e602c:  e5859000      str	r9, [r5]
0xf67e6030:  e5848000      str	r8, [r4]
0xf67e6034:  e8bd87f0      pop	{r4, r5, r6, r7, r8, r9, sl, pc}

----------------
IN: 
0xf67d9180:  e51f3e68      ldr	r3, [pc, #-3688]	; 0xf67d8320
0xf67d9184:  e51b6054      ldr	r6, [fp, #-84]
0xf67d9188:  e08f3003      add	r3, pc, r3
0xf67d918c:  e5d33008      ldrb	r3, [r3, #8]
0xf67d9190:  e3560000      cmp	r6, #0	; 0x0
0xf67d9194:  e50b3058      str	r3, [fp, #-88]
0xf67d9198:  1a000001      bne	0xf67d91a4

----------------
IN: 
0xf67d919c:  ebfff5df      bl	0xf67d6920

----------------
IN: 
0xf67d6920:  e92d40f8      push	{r3, r4, r5, r6, r7, lr}
0xf67d6924:  e59f414c      ldr	r4, [pc, #332]	; 0xf67d6a78
0xf67d6928:  e08f4004      add	r4, pc, r4
0xf67d692c:  e594681c      ldr	r6, [r4, #2076]
0xf67d6930:  e5945804      ldr	r5, [r4, #2052]
0xf67d6934:  e3560000      cmp	r6, #0	; 0x0
0xf67d6938:  e584580c      str	r5, [r4, #2060]
0xf67d693c:  1a000045      bne	0xf67d6a58

----------------
IN: 
0xf67d6940:  e2850040      add	r0, r5, #64	; 0x40
0xf67d6944:  e3a01001      mov	r1, #1	; 0x1
0xf67d6948:  e1a00180      lsl	r0, r0, #3
0xf67d694c:  ebffff94      bl	0xf67d67a4

----------------
IN: 
0xf67d6950:  e594104c      ldr	r1, [r4, #76]
0xf67d6954:  e285303f      add	r3, r5, #63	; 0x3f
0xf67d6958:  e3510000      cmp	r1, #0	; 0x0
0xf67d695c:  e8800048      stm	r0, {r3, r6}
0xf67d6960:  e5840808      str	r0, [r4, #2056]
0xf67d6964:  05943000      ldreq	r3, [r4]
0xf67d6968:  e2800008      add	r0, r0, #8	; 0x8
0xf67d696c:  0a000007      beq	0xf67d6990

----------------
IN: 
0xf67d6990:  e3530000      cmp	r3, #0	; 0x0
0xf67d6994:  0a000006      beq	0xf67d69b4

----------------
IN: 
0xf67d6998:  e5932230      ldr	r2, [r3, #560]
0xf67d699c:  e3520000      cmp	r2, #0	; 0x0
0xf67d69a0:  10802181      addne	r2, r0, r1, lsl #3
0xf67d69a4:  15823004      strne	r3, [r2, #4]
0xf67d69a8:  12811001      addne	r1, r1, #1	; 0x1
0xf67d69ac:  e593300c      ldr	r3, [r3, #12]
0xf67d69b0:  eafffff6      b	0xf67d6990

----------------
IN: 
0xf67d69b4:  e1550001      cmp	r5, r1
0xf67d69b8:  0a000007      beq	0xf67d69dc

----------------
IN: 
0xf67d69dc:  eb0047fd      bl	0xf67e89d8

----------------
IN: 
0xf67e89d8:  e59f31f4      ldr	r3, [pc, #500]	; 0xf67e8bd4
0xf67e89dc:  e92d4ff0      push	{r4, r5, r6, r7, r8, r9, sl, fp, lr}
0xf67e89e0:  e08f3003      add	r3, pc, r3
0xf67e89e4:  e5933808      ldr	r3, [r3, #2056]
0xf67e89e8:  e24dd01c      sub	sp, sp, #28	; 0x1c
0xf67e89ec:  e3530000      cmp	r3, #0	; 0x0
0xf67e89f0:  0a00006f      beq	0xf67e8bb4

----------------
IN: 
0xf67e89f4:  e593a004      ldr	sl, [r3, #4]
0xf67e89f8:  e35a0000      cmp	sl, #0	; 0x0
0xf67e89fc:  1a000064      bne	0xf67e8b94

----------------
IN: 
0xf67e8a00:  e593500c      ldr	r5, [r3, #12]
0xf67e8a04:  e2832008      add	r2, r3, #8	; 0x8
0xf67e8a08:  e3550000      cmp	r5, #0	; 0x0
0xf67e8a0c:  0a000054      beq	0xf67e8b64

----------------
IN: 
0xf67e8a10:  e5933000      ldr	r3, [r3]
0xf67e8a14:  e3530000      cmp	r3, #0	; 0x0
0xf67e8a18:  e58d3014      str	r3, [sp, #20]
0xf67e8a1c:  0a000054      beq	0xf67e8b74

----------------
IN: 
0xf67e8a20:  e1a0c002      mov	ip, r2
0xf67e8a24:  e1a0700a      mov	r7, sl
0xf67e8a28:  e3a08008      mov	r8, #8	; 0x8
0xf67e8a2c:  e3a09010      mov	r9, #16	; 0x10
0xf67e8a30:  e1a0200a      mov	r2, sl
0xf67e8a34:  ea00001b      b	0xf67e8aa8

----------------
IN: 
0xf67e8aa8:  e2853e23      add	r3, r5, #560	; 0x230
0xf67e8aac:  e8930058      ldm	r3, {r3, r4, r6}
0xf67e8ab0:  e067e00a      rsb	lr, r7, sl
0xf67e8ab4:  e1590004      cmp	r9, r4
0xf67e8ab8:  31a09004      movcc	r9, r4
0xf67e8abc:  e244b001      sub	fp, r4, #1	; 0x1
0xf67e8ac0:  e2666000      rsb	r6, r6, #0	; 0x0
0xf67e8ac4:  e153000e      cmp	r3, lr
0xf67e8ac8:  e58de010      str	lr, [sp, #16]
0xf67e8acc:  e006600b      and	r6, r6, fp
0xf67e8ad0:  9affffd8      bls	0xf67e8a38

----------------
IN: 
0xf67e8ad4:  e0663003      rsb	r3, r6, r3
0xf67e8ad8:  e088000b      add	r0, r8, fp
0xf67e8adc:  e1a01004      mov	r1, r4
0xf67e8ae0:  e58d2008      str	r2, [sp, #8]
0xf67e8ae4:  e58d300c      str	r3, [sp, #12]
0xf67e8ae8:  e58dc004      str	ip, [sp, #4]
0xf67e8aec:  eb001e3b      bl	0xf67f03e0

----------------
IN: 
0xf67f03e0:  e2512001      subs	r2, r1, #1	; 0x1
0xf67f03e4:  012fff1e      bxeq	lr

----------------
IN: 
0xf67f03e8:  3a000074      bcc	0xf67f05c0

----------------
IN: 
0xf67f03ec:  e1500001      cmp	r0, r1
0xf67f03f0:  9a00006b      bls	0xf67f05a4

----------------
IN: 
0xf67f03f4:  e1110002      tst	r1, r2
0xf67f03f8:  0a00006c      beq	0xf67f05b0

----------------
IN: 
0xf67f05b0:  e16f2f11      clz	r2, r1
0xf67f05b4:  e262201f      rsb	r2, r2, #31	; 0x1f
0xf67f05b8:  e1a00230      lsr	r0, r0, r2
0xf67f05bc:  e12fff1e      bx	lr

----------------
IN: 
0xf67e8af0:  e0000094      mul	r0, r4, r0
0xf67e8af4:  e0681000      rsb	r1, r8, r0
0xf67e8af8:  e1560001      cmp	r6, r1
0xf67e8afc:  80800004      addhi	r0, r0, r4
0xf67e8b00:  e59dc004      ldr	ip, [sp, #4]
0xf67e8b04:  e0666000      rsb	r6, r6, r0
0xf67e8b08:  e59de010      ldr	lr, [sp, #16]
0xf67e8b0c:  e59d2008      ldr	r2, [sp, #8]
0xf67e8b10:  e59d300c      ldr	r3, [sp, #12]
0xf67e8b14:  e0681006      rsb	r1, r8, r6
0xf67e8b18:  e585623c      str	r6, [r5, #572]
0xf67e8b1c:  e59c500c      ldr	r5, [ip, #12]
0xf67e8b20:  e15e0001      cmp	lr, r1
0xf67e8b24:  31a07008      movcc	r7, r8
0xf67e8b28:  31a0a006      movcc	sl, r6
0xf67e8b2c:  e3550000      cmp	r5, #0	; 0x0
0xf67e8b30:  e0808003      add	r8, r0, r3
0xf67e8b34:  e2822001      add	r2, r2, #1	; 0x1
0xf67e8b38:  1affffd6      bne	0xf67e8a98

----------------
IN: 
0xf67e8b3c:  e2882d1a      add	r2, r8, #1664	; 0x680
0xf67e8b40:  e282200f      add	r2, r2, #15	; 0xf
0xf67e8b44:  e3c2200f      bic	r2, r2, #15	; 0xf
0xf67e8b48:  e59f3088      ldr	r3, [pc, #136]	; 0xf67e8bd8
0xf67e8b4c:  e08f3003      add	r3, pc, r3
0xf67e8b50:  e5838814      str	r8, [r3, #2068]
0xf67e8b54:  e5832810      str	r2, [r3, #2064]
0xf67e8b58:  e5839818      str	r9, [r3, #2072]
0xf67e8b5c:  e28dd01c      add	sp, sp, #28	; 0x1c
0xf67e8b60:  e8bd8ff0      pop	{r4, r5, r6, r7, r8, r9, sl, fp, pc}

----------------
IN: 
0xf67d69e0:  eb0048bf      bl	0xf67e8ce4

----------------
IN: 
0xf67e8ce4:  e92d4070      push	{r4, r5, r6, lr}
0xf67e8ce8:  e59f4078      ldr	r4, [pc, #120]	; 0xf67e8d68
0xf67e8cec:  e08f4004      add	r4, pc, r4
0xf67e8cf0:  e5940818      ldr	r0, [r4, #2072]
0xf67e8cf4:  e5943810      ldr	r3, [r4, #2064]
0xf67e8cf8:  e2805e4b      add	r5, r0, #1200	; 0x4b0
0xf67e8cfc:  e2602000      rsb	r2, r0, #0	; 0x0
0xf67e8d00:  e285500f      add	r5, r5, #15	; 0xf
0xf67e8d04:  e0055002      and	r5, r5, r2
0xf67e8d08:  e0855003      add	r5, r5, r3
0xf67e8d0c:  e1a01005      mov	r1, r5
0xf67e8d10:  ebffb69a      bl	0xf67d6780

----------------
IN: 
0xf67e8d14:  e2506000      subs	r6, r0, #0	; 0x0
0xf67e8d18:  0a000010      beq	0xf67e8d60

----------------
IN: 
0xf67e8d1c:  e5943810      ldr	r3, [r4, #2064]
0xf67e8d20:  e3a01000      mov	r1, #0	; 0x0
0xf67e8d24:  e0635005      rsb	r5, r3, r5
0xf67e8d28:  e0865005      add	r5, r6, r5
0xf67e8d2c:  e59f2038      ldr	r2, [pc, #56]	; 0xf67e8d6c
0xf67e8d30:  e2450d13      sub	r0, r5, #1216	; 0x4c0
0xf67e8d34:  eb001c81      bl	0xf67eff40

----------------
IN: 
0xf67e8d38:  e1a00005      mov	r0, r5
0xf67e8d3c:  ebfffecd      bl	0xf67e8878

----------------
IN: 
0xf67e8878:  e92d4038      push	{r3, r4, r5, lr}
0xf67e887c:  e59f3034      ldr	r3, [pc, #52]	; 0xf67e88b8
0xf67e8880:  e1a04000      mov	r4, r0
0xf67e8884:  e08f3003      add	r3, pc, r3
0xf67e8888:  e5933804      ldr	r3, [r3, #2052]
0xf67e888c:  e3a01008      mov	r1, #8	; 0x8
0xf67e8890:  e2830010      add	r0, r3, #16	; 0x10
0xf67e8894:  e283500e      add	r5, r3, #14	; 0xe
0xf67e8898:  ebffb7c1      bl	0xf67d67a4

----------------
IN: 
0xf67e889c:  e3500000      cmp	r0, #0	; 0x0
0xf67e88a0:  11a03000      movne	r3, r0
0xf67e88a4:  01a04000      moveq	r4, r0
0xf67e88a8:  14835008      strne	r5, [r3], #8
0xf67e88ac:  15843000      strne	r3, [r4]
0xf67e88b0:  e1a00004      mov	r0, r4
0xf67e88b4:  e8bd8038      pop	{r3, r4, r5, pc}

----------------
IN: 
0xf67e8d40:  e2504000      subs	r4, r0, #0	; 0x0
0xf67e8d44:  0a000001      beq	0xf67e8d50

----------------
IN: 
0xf67e8d48:  e1a00004      mov	r0, r4
0xf67e8d4c:  e8bd8070      pop	{r4, r5, r6, pc}

----------------
IN: 
0xf67d69e4:  e2503000      subs	r3, r0, #0	; 0x0
0xf67d69e8:  1a000007      bne	0xf67d6a0c

----------------
IN: 
0xf67d6a0c:  e59f2084      ldr	r2, [pc, #132]	; 0xf67d6a98
0xf67d6a10:  e5931000      ldr	r1, [r3]
0xf67d6a14:  e08f2002      add	r2, pc, r2
0xf67d6a18:  e59f707c      ldr	r7, [pc, #124]	; 0xf67d6a9c
0xf67d6a1c:  e582181c      str	r1, [r2, #2076]
0xf67d6a20:  ef000000      svc	0x00000000

----------------
IN: 
0xf67d6a24:  e3700a01      cmn	r0, #4096	; 0x1000
0xf67d6a28:  9a00000c      bls	0xf67d6a60

----------------
IN: 
0xf67d6a60:  e3a02001      mov	r2, #1	; 0x1
0xf67d6a64:  e1a00003      mov	r0, r3
0xf67d6a68:  e59f3038      ldr	r3, [pc, #56]	; 0xf67d6aa8
0xf67d6a6c:  e08f3003      add	r3, pc, r3
0xf67d6a70:  e5c32008      strb	r2, [r3, #8]
0xf67d6a74:  e8bd80f8      pop	{r3, r4, r5, r6, r7, pc}

----------------
IN: 
0xf67d91a0:  e50b0054      str	r0, [fp, #-84]
0xf67d91a4:  e51f3e88      ldr	r3, [pc, #-3720]	; 0xf67d8324
0xf67d91a8:  e08f3003      add	r3, pc, r3
0xf67d91ac:  e5933004      ldr	r3, [r3, #4]
0xf67d91b0:  e3530000      cmp	r3, #0	; 0x0
0xf67d91b4:  1a000000      bne	0xf67d91bc

----------------
IN: 
0xf67d91b8:  ebfff5ad      bl	0xf67d6874

----------------
IN: 
0xf67d6874:  e92d4010      push	{r4, lr}
0xf67d6878:  e59f3088      ldr	r3, [pc, #136]	; 0xf67d6908
0xf67d687c:  e59fc088      ldr	ip, [pc, #136]	; 0xf67d690c
0xf67d6880:  e08f3003      add	r3, pc, r3
0xf67d6884:  e5931000      ldr	r1, [r3]
0xf67d6888:  e59f3080      ldr	r3, [pc, #128]	; 0xf67d6910
0xf67d688c:  e5d12000      ldrb	r2, [r1]
0xf67d6890:  e5d10001      ldrb	r0, [r1, #1]
0xf67d6894:  e5d14002      ldrb	r4, [r1, #2]
0xf67d6898:  e1820400      orr	r0, r2, r0, lsl #8
0xf67d689c:  e5d1e003      ldrb	lr, [r1, #3]
0xf67d68a0:  e08fc00c      add	ip, pc, ip
0xf67d68a4:  e59f2068      ldr	r2, [pc, #104]	; 0xf67d6914
0xf67d68a8:  e08f3003      add	r3, pc, r3
0xf67d68ac:  e1800804      orr	r0, r0, r4, lsl #16
0xf67d68b0:  e59cc178      ldr	ip, [ip, #376]
0xf67d68b4:  e1800c0e      orr	r0, r0, lr, lsl #24
0xf67d68b8:  e7932002      ldr	r2, [r3, r2]
0xf67d68bc:  e3c000ff      bic	r0, r0, #255	; 0xff
0xf67d68c0:  e35c0000      cmp	ip, #0	; 0x0
0xf67d68c4:  e24dd008      sub	sp, sp, #8	; 0x8
0xf67d68c8:  e5820000      str	r0, [r2]
0xf67d68cc:  0a000007      beq	0xf67d68f0

----------------
IN: 
0xf67d68d0:  e3a02004      mov	r2, #4	; 0x4
0xf67d68d4:  e2811004      add	r1, r1, #4	; 0x4
0xf67d68d8:  e28d0004      add	r0, sp, #4	; 0x4
0xf67d68dc:  eb0065c7      bl	0xf67f0000

----------------
IN: 
0xf67d68e0:  e59f3030      ldr	r3, [pc, #48]	; 0xf67d6918
0xf67d68e4:  e59d2004      ldr	r2, [sp, #4]
0xf67d68e8:  e08f3003      add	r3, pc, r3
0xf67d68ec:  e5832004      str	r2, [r3, #4]
0xf67d68f0:  e3a02000      mov	r2, #0	; 0x0
0xf67d68f4:  e59f3020      ldr	r3, [pc, #32]	; 0xf67d691c
0xf67d68f8:  e08f3003      add	r3, pc, r3
0xf67d68fc:  e5832000      str	r2, [r3]
0xf67d6900:  e28dd008      add	sp, sp, #8	; 0x8
0xf67d6904:  e8bd8010      pop	{r4, pc}

----------------
IN: 
0xf67d91bc:  e51b8050      ldr	r8, [fp, #-80]
0xf67d91c0:  e3580000      cmp	r8, #0	; 0x0
0xf67d91c4:  1a000157      bne	0xf67d9728

----------------
IN: 
0xf67d91c8:  e59a213c      ldr	r2, [sl, #316]
0xf67d91cc:  e3520000      cmp	r2, #0	; 0x0
0xf67d91d0:  0a00014f      beq	0xf67d9714

----------------
IN: 
0xf67d9714:  e59f3ca0      ldr	r3, [pc, #3232]	; 0xf67da3bc
0xf67d9718:  e3a05000      mov	r5, #0	; 0x0
0xf67d971c:  e08f3003      add	r3, pc, r3
0xf67d9720:  e5933000      ldr	r3, [r3]
0xf67d9724:  eafffef0      b	0xf67d92ec

----------------
IN: 
0xf67d92ec:  e51f1fc4      ldr	r1, [pc, #-4036]	; 0xf67d8330
0xf67d92f0:  e51f0fc4      ldr	r0, [pc, #-4036]	; 0xf67d8334
0xf67d92f4:  e08f1001      add	r1, pc, r1
0xf67d92f8:  e08f0000      add	r0, pc, r0
0xf67d92fc:  e591c510      ldr	ip, [r1, #1296]
0xf67d9300:  e2802018      add	r2, r0, #24	; 0x18
0xf67d9304:  e3130c02      tst	r3, #512	; 0x200
0xf67d9308:  e28a3f57      add	r3, sl, #348	; 0x15c
0xf67d930c:  e580c130      str	ip, [r0, #304]
0xf67d9310:  e5813008      str	r3, [r1, #8]
0xf67d9314:  e8930003      ldm	r3, {r0, r1}
0xf67d9318:  e8820003      stm	r2, {r0, r1}
0xf67d931c:  1a000024      bne	0xf67d93b4

----------------
IN: 
0xf67d9320:  e3550000      cmp	r5, #0	; 0x0
0xf67d9324:  0a00002d      beq	0xf67d93e0

----------------
IN: 
0xf67d93e0:  e59f3f58      ldr	r3, [pc, #3928]	; 0xf67da340
0xf67d93e4:  e59a4160      ldr	r4, [sl, #352]
0xf67d93e8:  e08f3003      add	r3, pc, r3
0xf67d93ec:  e5939120      ldr	r9, [r3, #288]
0xf67d93f0:  e59f7f4c      ldr	r7, [pc, #3916]	; 0xf67da344
0xf67d93f4:  e2999000      adds	r9, r9, #0	; 0x0
0xf67d93f8:  13a09001      movne	r9, #1	; 0x1
0xf67d93fc:  e593202c      ldr	r2, [r3, #44]
0xf67d9400:  e2448107      sub	r8, r4, #-1073741823	; 0xc0000001
0xf67d9404:  e50b4050      str	r4, [fp, #-80]
0xf67d9408:  e59fcf38      ldr	ip, [pc, #3896]	; 0xf67da348
0xf67d940c:  e59f4f38      ldr	r4, [pc, #3896]	; 0xf67da34c
0xf67d9410:  e08f7007      add	r7, pc, r7
0xf67d9414:  e1892002      orr	r2, r9, r2
0xf67d9418:  e2877e51      add	r7, r7, #1296	; 0x510
0xf67d941c:  e08fc00c      add	ip, pc, ip
0xf67d9420:  e08f4004      add	r4, pc, r4
0xf67d9424:  e583202c      str	r2, [r3, #44]
0xf67d9428:  e1a08108      lsl	r8, r8, #2
0xf67d942c:  e2877008      add	r7, r7, #8	; 0x8
0xf67d9430:  e1a06005      mov	r6, r5
0xf67d9434:  e50bc05c      str	ip, [fp, #-92]
0xf67d9438:  e50b4060      str	r4, [fp, #-96]
0xf67d943c:  ea00001b      b	0xf67d94b0

----------------
IN: 
0xf67d94b0:  e51b4050      ldr	r4, [fp, #-80]
0xf67d94b4:  e1560004      cmp	r6, r4
0xf67d94b8:  1affffe0      bne	0xf67d9440

----------------
IN: 
0xf67d9440:  e59a31f0      ldr	r3, [sl, #496]
0xf67d9444:  e7934008      ldr	r4, [r3, r8]
0xf67d9448:  e594301c      ldr	r3, [r4, #28]
0xf67d944c:  e5933004      ldr	r3, [r3, #4]
0xf67d9450:  e3530000      cmp	r3, #0	; 0x0
0xf67d9454:  1a00003f      bne	0xf67d9558

----------------
IN: 
0xf67d9558:  e3a0c001      mov	ip, #1	; 0x1
0xf67d955c:  e583c008      str	ip, [r3, #8]
0xf67d9560:  e5933004      ldr	r3, [r3, #4]
0xf67d9564:  e3530000      cmp	r3, #0	; 0x0
0xf67d9568:  0affffba      beq	0xf67d9458

----------------
IN: 
0xf67d9458:  e5d43196      ldrb	r3, [r4, #406]
0xf67d945c:  e1540007      cmp	r4, r7
0xf67d9460:  e3c33001      bic	r3, r3, #1	; 0x1
0xf67d9464:  e5c43196      strb	r3, [r4, #406]
0xf67d9468:  0a000007      beq	0xf67d948c

----------------
IN: 
0xf67d948c:  e5943230      ldr	r3, [r4, #560]
0xf67d9490:  e3530000      cmp	r3, #0	; 0x0
0xf67d9494:  0a000003      beq	0xf67d94a8

----------------
IN: 
0xf67d94a8:  e2866001      add	r6, r6, #1	; 0x1
0xf67d94ac:  e2488004      sub	r8, r8, #4	; 0x4
0xf67d94b0:  e51b4050      ldr	r4, [fp, #-80]
0xf67d94b4:  e1560004      cmp	r6, r4
0xf67d94b8:  1affffe0      bne	0xf67d9440

----------------
IN: 
0xf67d946c:  e51bc05c      ldr	ip, [fp, #-92]
0xf67d9470:  e1a00004      mov	r0, r4
0xf67d9474:  e59c202c      ldr	r2, [ip, #44]
0xf67d9478:  e59411cc      ldr	r1, [r4, #460]
0xf67d947c:  e2922000      adds	r2, r2, #0	; 0x0
0xf67d9480:  13a02001      movne	r2, #1	; 0x1
0xf67d9484:  e1a03009      mov	r3, r9
0xf67d9488:  eb002219      bl	0xf67e1cf4

----------------
IN: 
0xf67e1cf4:  e92d4ff0      push	{r4, r5, r6, r7, r8, r9, sl, fp, lr}
0xf67e1cf8:  e59f4fe0      ldr	r4, [pc, #4064]	; 0xf67e2ce0
0xf67e1cfc:  e28db020      add	fp, sp, #32	; 0x20
0xf67e1d00:  e3120302      tst	r2, #134217728	; 0x8000000
0xf67e1d04:  e24dd0a4      sub	sp, sp, #164	; 0xa4
0xf67e1d08:  e202c001      and	ip, r2, #1	; 0x1
0xf67e1d0c:  e1a05002      mov	r5, r2
0xf67e1d10:  e50b1068      str	r1, [fp, #-104]
0xf67e1d14:  e50b306c      str	r3, [fp, #-108]
0xf67e1d18:  e50bc058      str	ip, [fp, #-88]
0xf67e1d1c:  e1a0a000      mov	sl, r0
0xf67e1d20:  e08f4004      add	r4, pc, r4
0xf67e1d24:  1a000006      bne	0xf67e1d44

----------------
IN: 
0xf67e1d28:  e59f3fb4      ldr	r3, [pc, #4020]	; 0xf67e2ce4
0xf67e1d2c:  e51bc06c      ldr	ip, [fp, #-108]
0xf67e1d30:  e08f3003      add	r3, pc, r3
0xf67e1d34:  e5933170      ldr	r3, [r3, #368]
0xf67e1d38:  e3530000      cmp	r3, #0	; 0x0
0xf67e1d3c:  138cc001      orrne	ip, ip, #1	; 0x1
0xf67e1d40:  e50bc06c      str	ip, [fp, #-108]
0xf67e1d44:  e5da3194      ldrb	r3, [sl, #404]
0xf67e1d48:  e3130004      tst	r3, #4	; 0x4
0xf67e1d4c:  1a00013c      bne	0xf67e2244

----------------
IN: 
0xf67e1d50:  e51bc06c      ldr	ip, [fp, #-108]
0xf67e1d54:  e35c0000      cmp	ip, #0	; 0x0
0xf67e1d58:  0a0001be      beq	0xf67e2458

----------------
IN: 
0xf67e2458:  e59a3080      ldr	r3, [sl, #128]
0xf67e245c:  e51bc058      ldr	ip, [fp, #-88]
0xf67e2460:  e3530000      cmp	r3, #0	; 0x0
0xf67e2464:  13a0c000      movne	ip, #0	; 0x0
0xf67e2468:  e50bc058      str	ip, [fp, #-88]
0xf67e246c:  eafffe3a      b	0xf67e1d5c

----------------
IN: 
0xf67e1d5c:  e59f3f84      ldr	r3, [pc, #3972]	; 0xf67e2ce8
0xf67e1d60:  e08f3003      add	r3, pc, r3
0xf67e1d64:  e5933000      ldr	r3, [r3]
0xf67e1d68:  e3130020      tst	r3, #32	; 0x20
0xf67e1d6c:  1a000654      bne	0xf67e36c4

----------------
IN: 
0xf67e1d70:  e59a3078      ldr	r3, [sl, #120]
0xf67e1d74:  e3530000      cmp	r3, #0	; 0x0
0xf67e1d78:  050b3094      streq	r3, [fp, #-148]
0xf67e1d7c:  1a00055e      bne	0xf67e32fc

----------------
IN: 
0xf67e1d80:  e59a3034      ldr	r3, [sl, #52]
0xf67e1d84:  e59a207c      ldr	r2, [sl, #124]
0xf67e1d88:  e5933004      ldr	r3, [r3, #4]
0xf67e1d8c:  e3520000      cmp	r2, #0	; 0x0
0xf67e1d90:  e50b3078      str	r3, [fp, #-120]
0xf67e1d94:  0a00012c      beq	0xf67e224c

----------------
IN: 
0xf67e1d98:  e51bc058      ldr	ip, [fp, #-88]
0xf67e1d9c:  e35c0000      cmp	ip, #0	; 0x0
0xf67e1da0:  1a0001b2      bne	0xf67e2470

----------------
IN: 
0xf67e2470:  e59a302c      ldr	r3, [sl, #44]
0xf67e2474:  e51bc06c      ldr	ip, [fp, #-108]
0xf67e2478:  e5933004      ldr	r3, [r3, #4]
0xf67e247c:  e5932004      ldr	r2, [r3, #4]
0xf67e2480:  e3520000      cmp	r2, #0	; 0x0
0xf67e2484:  159a1000      ldrne	r1, [sl]
0xf67e2488:  10822001      addne	r2, r2, r1
0xf67e248c:  158a2210      strne	r2, [sl, #528]
0xf67e2490:  e35c0000      cmp	ip, #0	; 0x0
0xf67e2494:  e583a004      str	sl, [r3, #4]
0xf67e2498:  0a000138      beq	0xf67e2980

----------------
IN: 
0xf67e2980:  e59f23b8      ldr	r2, [pc, #952]	; 0xf67e2d40
0xf67e2984:  e7942002      ldr	r2, [r4, r2]
0xf67e2988:  e5832008      str	r2, [r3, #8]
0xf67e298c:  e59a3144      ldr	r3, [sl, #324]
0xf67e2990:  e3530000      cmp	r3, #0	; 0x0
0xf67e2994:  1afffe32      bne	0xf67e2264

----------------
IN: 
0xf67e2998:  eafffd01      b	0xf67e1da4

----------------
IN: 
0xf67e1da4:  e3a03000      mov	r3, #0	; 0x0
0xf67e1da8:  e59a2064      ldr	r2, [sl, #100]
0xf67e1dac:  e50b3044      str	r3, [fp, #-68]
0xf67e1db0:  e1520003      cmp	r2, r3
0xf67e1db4:  e50b3040      str	r3, [fp, #-64]
0xf67e1db8:  e50b303c      str	r3, [fp, #-60]
0xf67e1dbc:  e50b3038      str	r3, [fp, #-56]
0xf67e1dc0:  e50b3034      str	r3, [fp, #-52]
0xf67e1dc4:  e50b3030      str	r3, [fp, #-48]
0xf67e1dc8:  e50b302c      str	r3, [fp, #-44]
0xf67e1dcc:  e50b3028      str	r3, [fp, #-40]
0xf67e1dd0:  0a00030d      beq	0xf67e2a0c

----------------
IN: 
0xf67e1dd4:  e5923004      ldr	r3, [r2, #4]
0xf67e1dd8:  e59a1068      ldr	r1, [sl, #104]
0xf67e1ddc:  e59a20bc      ldr	r2, [sl, #188]
0xf67e1de0:  e50b3044      str	r3, [fp, #-68]
0xf67e1de4:  e5914004      ldr	r4, [r1, #4]
0xf67e1de8:  e3520000      cmp	r2, #0	; 0x0
0xf67e1dec:  e50b4040      str	r4, [fp, #-64]
0xf67e1df0:  00842003      addeq	r2, r4, r3
0xf67e1df4:  0a000005      beq	0xf67e1e10

----------------
IN: 
0xf67e1df8:  e5922004      ldr	r2, [r2, #4]
0xf67e1dfc:  e1a011a4      lsr	r1, r4, #3
0xf67e1e00:  e1510002      cmp	r1, r2
0xf67e1e04:  21a01002      movcs	r1, r2
0xf67e1e08:  e0842003      add	r2, r4, r3
0xf67e1e0c:  e50b103c      str	r1, [fp, #-60]
0xf67e1e10:  e59a1070      ldr	r1, [sl, #112]
0xf67e1e14:  e3510000      cmp	r1, #0	; 0x0
0xf67e1e18:  0a000002      beq	0xf67e1e28

----------------
IN: 
0xf67e1e1c:  e5911004      ldr	r1, [r1, #4]
0xf67e1e20:  e3510011      cmp	r1, #17	; 0x11
0xf67e1e24:  0a0002c1      beq	0xf67e2930

----------------
IN: 
0xf67e2930:  e59a007c      ldr	r0, [sl, #124]
0xf67e2934:  e59a1028      ldr	r1, [sl, #40]
0xf67e2938:  e5900004      ldr	r0, [r0, #4]
0xf67e293c:  e5911004      ldr	r1, [r1, #4]
0xf67e2940:  e081c000      add	ip, r1, r0
0xf67e2944:  e15c0002      cmp	ip, r2
0xf67e2948:  e51bc058      ldr	ip, [fp, #-88]
0xf67e294c:  00614004      rsbeq	r4, r1, r4
0xf67e2950:  050b4040      streq	r4, [fp, #-64]
0xf67e2954:  e35c0000      cmp	ip, #0	; 0x0
0xf67e2958:  1a000003      bne	0xf67e296c

----------------
IN: 
0xf67e296c:  e51bc058      ldr	ip, [fp, #-88]
0xf67e2970:  e50b0034      str	r0, [fp, #-52]
0xf67e2974:  e50b1030      str	r1, [fp, #-48]
0xf67e2978:  e50bc028      str	ip, [fp, #-40]
0xf67e297c:  eafffd29      b	0xf67e1e28

----------------
IN: 
0xf67e1e28:  e59f2ebc      ldr	r2, [pc, #3772]	; 0xf67e2cec
0xf67e1e2c:  e59fcebc      ldr	ip, [pc, #3772]	; 0xf67e2cf0
0xf67e1e30:  e08f2002      add	r2, pc, r2
0xf67e1e34:  e2822e51      add	r2, r2, #1296	; 0x510
0xf67e1e38:  e2822008      add	r2, r2, #8	; 0x8
0xf67e1e3c:  e50b2070      str	r2, [fp, #-112]
0xf67e1e40:  e3a02000      mov	r2, #0	; 0x0
0xf67e1e44:  e08fc00c      add	ip, pc, ip
0xf67e1e48:  e50bc088      str	ip, [fp, #-136]
0xf67e1e4c:  e59fcea0      ldr	ip, [pc, #3744]	; 0xf67e2cf4
0xf67e1e50:  e2055402      and	r5, r5, #33554432	; 0x2000000
0xf67e1e54:  e08fc00c      add	ip, pc, ip
0xf67e1e58:  e50bc08c      str	ip, [fp, #-140]
0xf67e1e5c:  e51bc088      ldr	ip, [fp, #-136]
0xf67e1e60:  e59a7000      ldr	r7, [sl]
0xf67e1e64:  e28cce51      add	ip, ip, #1296	; 0x510
0xf67e1e68:  e50bc07c      str	ip, [fp, #-124]
0xf67e1e6c:  e51bc08c      ldr	ip, [fp, #-140]
0xf67e1e70:  e50b5098      str	r5, [fp, #-152]
0xf67e1e74:  e28cce51      add	ip, ip, #1296	; 0x510
0xf67e1e78:  e50bc084      str	ip, [fp, #-132]
0xf67e1e7c:  e24bc044      sub	ip, fp, #68	; 0x44
0xf67e1e80:  e50bc080      str	ip, [fp, #-128]
0xf67e1e84:  e51bc07c      ldr	ip, [fp, #-124]
0xf67e1e88:  e28cc008      add	ip, ip, #8	; 0x8
0xf67e1e8c:  e50bc07c      str	ip, [fp, #-124]
0xf67e1e90:  e51bc084      ldr	ip, [fp, #-132]
0xf67e1e94:  e28cc008      add	ip, ip, #8	; 0x8
0xf67e1e98:  e50bc084      str	ip, [fp, #-132]
0xf67e1e9c:  e24bc044      sub	ip, fp, #68	; 0x44
0xf67e1ea0:  e50bc064      str	ip, [fp, #-100]
0xf67e1ea4:  e24bc034      sub	ip, fp, #52	; 0x34
0xf67e1ea8:  e50bc090      str	ip, [fp, #-144]
0xf67e1eac:  e51bc064      ldr	ip, [fp, #-100]
0xf67e1eb0:  e3520000      cmp	r2, #0	; 0x0
0xf67e1eb4:  e0844003      add	r4, r4, r3
0xf67e1eb8:  e59c5008      ldr	r5, [ip, #8]
0xf67e1ebc:  e1a01003      mov	r1, r3
0xf67e1ec0:  e1a02007      mov	r2, r7
0xf67e1ec4:  0a0000ec      beq	0xf67e227c

----------------
IN: 
0xf67e227c:  e51bc070      ldr	ip, [fp, #-112]
0xf67e2280:  e59a3038      ldr	r3, [sl, #56]
0xf67e2284:  e15a000c      cmp	sl, ip
0xf67e2288:  e0815185      add	r5, r1, r5, lsl #3
0xf67e228c:  e5936004      ldr	r6, [r3, #4]
0xf67e2290:  0a000001      beq	0xf67e229c

----------------
IN: 
0xf67e2294:  e3570000      cmp	r7, #0	; 0x0
0xf67e2298:  1a00019b      bne	0xf67e290c

----------------
IN: 
0xf67e290c:  e1510005      cmp	r1, r5
0xf67e2910:  2afffe61      bcs	0xf67e229c

----------------
IN: 
0xf67e2914:  e4913008      ldr	r3, [r1], #8
0xf67e2918:  e7972003      ldr	r2, [r7, r3]
0xf67e291c:  e1550001      cmp	r5, r1
0xf67e2920:  e0822007      add	r2, r2, r7
0xf67e2924:  e7872003      str	r2, [r7, r3]
0xf67e2928:  8afffff9      bhi	0xf67e2914

----------------
IN: 
0xf67e292c:  eafffe5a      b	0xf67e229c

----------------
IN: 
0xf67e229c:  e59a30e4      ldr	r3, [sl, #228]
0xf67e22a0:  e3530000      cmp	r3, #0	; 0x0
0xf67e22a4:  0a0001ee      beq	0xf67e2a64

----------------
IN: 
0xf67e22a8:  e5933004      ldr	r3, [r3, #4]
0xf67e22ac:  e1540005      cmp	r4, r5
0xf67e22b0:  e50b3060      str	r3, [fp, #-96]
0xf67e22b4:  9affff13      bls	0xf67e1f08

----------------
IN: 
0xf67e22b8:  e50b705c      str	r7, [fp, #-92]
0xf67e22bc:  e1a07006      mov	r7, r6
0xf67e22c0:  e59fca54      ldr	ip, [pc, #2644]	; 0xf67e2d1c
0xf67e22c4:  e2855008      add	r5, r5, #8	; 0x8
0xf67e22c8:  e08fc00c      add	ip, pc, ip
0xf67e22cc:  e50bc09c      str	ip, [fp, #-156]
0xf67e22d0:  e59fca48      ldr	ip, [pc, #2632]	; 0xf67e2d20
0xf67e22d4:  e50b4074      str	r4, [fp, #-116]
0xf67e22d8:  e08fc00c      add	ip, pc, ip
0xf67e22dc:  e50bc0a0      str	ip, [fp, #-160]
0xf67e22e0:  e59fca3c      ldr	ip, [pc, #2620]	; 0xf67e2d24
0xf67e22e4:  e08fc00c      add	ip, pc, ip
0xf67e22e8:  e50bc0a4      str	ip, [fp, #-164]
0xf67e22ec:  e59fca34      ldr	ip, [pc, #2612]	; 0xf67e2d28
0xf67e22f0:  e08fc00c      add	ip, pc, ip
0xf67e22f4:  e50bc0a8      str	ip, [fp, #-168]
0xf67e22f8:  e9150202      ldmdb	r5, {r1, r9}
0xf67e22fc:  e51bc060      ldr	ip, [fp, #-96]
0xf67e2300:  e1a06429      lsr	r6, r9, #8
0xf67e2304:  e1a03086      lsl	r3, r6, #1
0xf67e2308:  e19c20b3      ldrh	r2, [ip, r3]
0xf67e230c:  e20990ff      and	r9, r9, #255	; 0xff
0xf67e2310:  e51bc05c      ldr	ip, [fp, #-92]
0xf67e2314:  e0874206      add	r4, r7, r6, lsl #4
0xf67e2318:  e3590017      cmp	r9, #23	; 0x17
0xf67e231c:  e08c8001      add	r8, ip, r1
0xf67e2320:  e50b4050      str	r4, [fp, #-80]
0xf67e2324:  e59a3170      ldr	r3, [sl, #368]
0xf67e2328:  0a0003e0      beq	0xf67e32b0

----------------
IN: 
0xf67e232c:  e3590000      cmp	r9, #0	; 0x0
0xf67e2330:  0a000043      beq	0xf67e2444

----------------
IN: 
0xf67e2334:  e5d4100c      ldrb	r1, [r4, #12]
0xf67e2338:  e1b01221      lsrs	r1, r1, #4
0xf67e233c:  0a000065      beq	0xf67e24d8

----------------
IN: 
0xf67e2340:  e59a1218      ldr	r1, [sl, #536]
0xf67e2344:  e1540001      cmp	r4, r1
0xf67e2348:  e2491011      sub	r1, r9, #17	; 0x11
0xf67e234c:  0a0004c4      beq	0xf67e3664

----------------
IN: 
0xf67e2350:  e3590016      cmp	r9, #22	; 0x16
0xf67e2354:  13510002      cmpne	r1, #2	; 0x2
0xf67e2358:  93a01001      movls	r1, #1	; 0x1
0xf67e235c:  83a01000      movhi	r1, #0	; 0x0
0xf67e2360:  e3510000      cmp	r1, #0	; 0x0
0xf67e2364:  0249000d      subeq	r0, r9, #13	; 0xd
0xf67e2368:  016f0f10      clzeq	r0, r0
0xf67e236c:  13a00001      movne	r0, #1	; 0x1
0xf67e2370:  01a002a0      lsreq	r0, r0, #5
0xf67e2374:  e3590014      cmp	r9, #20	; 0x14
0xf67e2378:  03a01002      moveq	r1, #2	; 0x2
0xf67e237c:  13a01000      movne	r1, #0	; 0x0
0xf67e2380:  e1a02882      lsl	r2, r2, #17
0xf67e2384:  e1811000      orr	r1, r1, r0
0xf67e2388:  e09336a2      adds	r3, r3, r2, lsr #13
0xf67e238c:  e58a4218      str	r4, [sl, #536]
0xf67e2390:  e58a121c      str	r1, [sl, #540]
0xf67e2394:  0a000002      beq	0xf67e23a4

----------------
IN: 
0xf67e2398:  e5932004      ldr	r2, [r3, #4]
0xf67e239c:  e3520000      cmp	r2, #0	; 0x0
0xf67e23a0:  03a03000      moveq	r3, #0	; 0x0
0xf67e23a4:  e3a0c001      mov	ip, #1	; 0x1
0xf67e23a8:  e3a02000      mov	r2, #0	; 0x0
0xf67e23ac:  e7970206      ldr	r0, [r7, r6, lsl #4]
0xf67e23b0:  e58dc008      str	ip, [sp, #8]
0xf67e23b4:  e51bc078      ldr	ip, [fp, #-120]
0xf67e23b8:  e58d3000      str	r3, [sp]
0xf67e23bc:  e58d1004      str	r1, [sp, #4]
0xf67e23c0:  e58d200c      str	r2, [sp, #12]
0xf67e23c4:  e1a0100a      mov	r1, sl
0xf67e23c8:  e24b2050      sub	r2, fp, #80	; 0x50
0xf67e23cc:  e51b3068      ldr	r3, [fp, #-104]
0xf67e23d0:  e08c0000      add	r0, ip, r0
0xf67e23d4:  ebfff7fb      bl	0xf67e03c8

----------------
IN: 
0xf67e03c8:  e92d4ff0      push	{r4, r5, r6, r7, r8, r9, sl, fp, lr}
0xf67e03cc:  e28db020      add	fp, sp, #32	; 0x20
0xf67e03d0:  e24dd08c      sub	sp, sp, #140	; 0x8c
0xf67e03d4:  e1a05000      mov	r5, r0
0xf67e03d8:  e5d00000      ldrb	r0, [r0]
0xf67e03dc:  e1a0a001      mov	sl, r1
0xf67e03e0:  e3500000      cmp	r0, #0	; 0x0
0xf67e03e4:  e1a08002      mov	r8, r2
0xf67e03e8:  e50b3068      str	r3, [fp, #-104]
0xf67e03ec:  0a000090      beq	0xf67e0634

----------------
IN: 
0xf67e03f0:  e1a03005      mov	r3, r5
0xf67e03f4:  e59f6f78      ldr	r6, [pc, #3960]	; 0xf67e1374
0xf67e03f8:  e0866286      add	r6, r6, r6, lsl #5
0xf67e03fc:  e0806006      add	r6, r0, r6
0xf67e0400:  e5f30001      ldrb	r0, [r3, #1]!
0xf67e0404:  e3500000      cmp	r0, #0	; 0x0
0xf67e0408:  1afffffa      bne	0xf67e03f8

----------------
IN: 
0xf67e03f8:  e0866286      add	r6, r6, r6, lsl #5
0xf67e03fc:  e0806006      add	r6, r0, r6
0xf67e0400:  e5f30001      ldrb	r0, [r3, #1]!
0xf67e0404:  e3500000      cmp	r0, #0	; 0x0
0xf67e0408:  1afffffa      bne	0xf67e03f8

----------------
IN: 
0xf67e040c:  e3a03000      mov	r3, #0	; 0x0
0xf67e0410:  e3e00000      mvn	r0, #0	; 0x0
0xf67e0414:  e59f2f5c      ldr	r2, [pc, #3932]	; 0xf67e1378
0xf67e0418:  e59b1004      ldr	r1, [fp, #4]
0xf67e041c:  e08f2002      add	r2, pc, r2
0xf67e0420:  e1510003      cmp	r1, r3
0xf67e0424:  e5921508      ldr	r1, [r2, #1288]
0xf67e0428:  e50b005c      str	r0, [fp, #-92]
0xf67e042c:  e2811001      add	r1, r1, #1	; 0x1
0xf67e0430:  e5821508      str	r1, [r2, #1288]
0xf67e0434:  e50b3054      str	r3, [fp, #-84]
0xf67e0438:  e50b3050      str	r3, [fp, #-80]
0xf67e043c:  0a000002      beq	0xf67e044c

----------------
IN: 
0xf67e0440:  e59b200c      ldr	r2, [fp, #12]
0xf67e0444:  e3d22005      bics	r2, r2, #5	; 0x5
0xf67e0448:  1a00035d      bne	0xf67e11c4

----------------
IN: 
0xf67e044c:  e59b3010      ldr	r3, [fp, #16]
0xf67e0450:  e3530000      cmp	r3, #0	; 0x0
0xf67e0454:  1a0000ca      bne	0xf67e0784

----------------
IN: 
0xf67e0458:  e51b4068      ldr	r4, [fp, #-104]
0xf67e045c:  e5942000      ldr	r2, [r4]
0xf67e0460:  e3520000      cmp	r2, #0	; 0x0
0xf67e0464:  159b0010      ldrne	r0, [fp, #16]
0xf67e0468:  150b006c      strne	r0, [fp, #-108]
0xf67e046c:  0a000305      beq	0xf67e1088

----------------
IN: 
0xf67e0470:  e51b4068      ldr	r4, [fp, #-104]
0xf67e0474:  e51b106c      ldr	r1, [fp, #-108]
0xf67e0478:  e24b705c      sub	r7, fp, #92	; 0x5c
0xf67e047c:  e24b9054      sub	r9, fp, #84	; 0x54
0xf67e0480:  ea000004      b	0xf67e0498

----------------
IN: 
0xf67e0498:  e5983000      ldr	r3, [r8]
0xf67e049c:  e59b0008      ldr	r0, [fp, #8]
0xf67e04a0:  e58d2004      str	r2, [sp, #4]
0xf67e04a4:  e58d1008      str	r1, [sp, #8]
0xf67e04a8:  e59b200c      ldr	r2, [fp, #12]
0xf67e04ac:  e59b1004      ldr	r1, [fp, #4]
0xf67e04b0:  e59bc010      ldr	ip, [fp, #16]
0xf67e04b4:  e58d100c      str	r1, [sp, #12]
0xf67e04b8:  e58d2010      str	r2, [sp, #16]
0xf67e04bc:  e58d0018      str	r0, [sp, #24]
0xf67e04c0:  e58d9000      str	r9, [sp]
0xf67e04c4:  e58dc014      str	ip, [sp, #20]
0xf67e04c8:  e58da01c      str	sl, [sp, #28]
0xf67e04cc:  e1a00005      mov	r0, r5
0xf67e04d0:  e1a01006      mov	r1, r6
0xf67e04d4:  e1a02007      mov	r2, r7
0xf67e04d8:  ebfffd71      bl	0xf67dfaa4

----------------
IN: 
0xf67dfaa4:  e92d4ff0      push	{r4, r5, r6, r7, r8, r9, sl, fp, lr}
0xf67dfaa8:  e24dd054      sub	sp, sp, #84	; 0x54
0xf67dfaac:  e59d4088      ldr	r4, [sp, #136]
0xf67dfab0:  e59dc07c      ldr	ip, [sp, #124]
0xf67dfab4:  e58d4030      str	r4, [sp, #48]
0xf67dfab8:  e59f48bc      ldr	r4, [pc, #2236]	; 0xf67e037c
0xf67dfabc:  e59d5084      ldr	r5, [sp, #132]
0xf67dfac0:  e59de090      ldr	lr, [sp, #144]
0xf67dfac4:  e08f4004      add	r4, pc, r4
0xf67dfac8:  e58d4010      str	r4, [sp, #16]
0xf67dfacc:  e59c8004      ldr	r8, [ip, #4]
0xf67dfad0:  e1a0a001      mov	sl, r1
0xf67dfad4:  e58d2014      str	r2, [sp, #20]
0xf67dfad8:  e58d0040      str	r0, [sp, #64]
0xf67dfadc:  e58d3048      str	r3, [sp, #72]
0xf67dfae0:  e58d5038      str	r5, [sp, #56]
0xf67dfae4:  e58de04c      str	lr, [sp, #76]
0xf67dfae8:  e59d4080      ldr	r4, [sp, #128]
0xf67dfaec:  e59d908c      ldr	r9, [sp, #140]
0xf67dfaf0:  e3a05000      mov	r5, #0	; 0x0
0xf67dfaf4:  e59c3000      ldr	r3, [ip]
0xf67dfaf8:  e59fe880      ldr	lr, [pc, #2176]	; 0xf67e0380
0xf67dfafc:  e59f0880      ldr	r0, [pc, #2176]	; 0xf67e0384
0xf67dfb00:  e59f1880      ldr	r1, [pc, #2176]	; 0xf67e0388
0xf67dfb04:  e59f2880      ldr	r2, [pc, #2176]	; 0xf67e038c
0xf67dfb08:  e2447107      sub	r7, r4, #-1073741823	; 0xc0000001
0xf67dfb0c:  e59fb87c      ldr	fp, [pc, #2172]	; 0xf67e0390
0xf67dfb10:  e08fe00e      add	lr, pc, lr
0xf67dfb14:  e08f0000      add	r0, pc, r0
0xf67dfb18:  e08f1001      add	r1, pc, r1
0xf67dfb1c:  e08f2002      add	r2, pc, r2
0xf67dfb20:  e0837107      add	r7, r3, r7, lsl #2
0xf67dfb24:  e1a032aa      lsr	r3, sl, #5
0xf67dfb28:  e08fb00b      add	fp, pc, fp
0xf67dfb2c:  e58de00c      str	lr, [sp, #12]
0xf67dfb30:  e58d0018      str	r0, [sp, #24]
0xf67dfb34:  e58d101c      str	r1, [sp, #28]
0xf67dfb38:  e58d2020      str	r2, [sp, #32]
0xf67dfb3c:  e58d3008      str	r3, [sp, #8]
0xf67dfb40:  e5b73004      ldr	r3, [r7, #4]!
0xf67dfb44:  e58d502c      str	r5, [sp, #44]
0xf67dfb48:  e5936014      ldr	r6, [r3, #20]
0xf67dfb4c:  e58d5028      str	r5, [sp, #40]
0xf67dfb50:  e1560009      cmp	r6, r9
0xf67dfb54:  e58d603c      str	r6, [sp, #60]
0xf67dfb58:  0a000033      beq	0xf67dfc2c

----------------
IN: 
0xf67dfb5c:  e59d304c      ldr	r3, [sp, #76]
0xf67dfb60:  e3130002      tst	r3, #2	; 0x2
0xf67dfb64:  0a000002      beq	0xf67dfb74

----------------
IN: 
0xf67dfb74:  e5d63195      ldrb	r3, [r6, #405]
0xf67dfb78:  e3130020      tst	r3, #32	; 0x20
0xf67dfb7c:  1a00002a      bne	0xf67dfc2c

----------------
IN: 
0xf67dfb80:  e59b3000      ldr	r3, [fp]
0xf67dfb84:  e3130008      tst	r3, #8	; 0x8
0xf67dfb88:  1a000148      bne	0xf67e00b0

----------------
IN: 
0xf67dfb8c:  e5961178      ldr	r1, [r6, #376]
0xf67dfb90:  e3510000      cmp	r1, #0	; 0x0
0xf67dfb94:  0a000024      beq	0xf67dfc2c

----------------
IN: 
0xf67dfb98:  e5963034      ldr	r3, [r6, #52]
0xf67dfb9c:  e5962184      ldr	r2, [r6, #388]
0xf67dfba0:  e5930004      ldr	r0, [r3, #4]
0xf67dfba4:  e5963038      ldr	r3, [r6, #56]
0xf67dfba8:  e3520000      cmp	r2, #0	; 0x0
0xf67dfbac:  e5933004      ldr	r3, [r3, #4]
0xf67dfbb0:  e58d0044      str	r0, [sp, #68]
0xf67dfbb4:  0a000175      beq	0xf67e0190

----------------
IN: 
0xf67dfbb8:  e596c17c      ldr	ip, [r6, #380]
0xf67dfbbc:  e59de008      ldr	lr, [sp, #8]
0xf67dfbc0:  e5960180      ldr	r0, [r6, #384]
0xf67dfbc4:  e00cc00e      and	ip, ip, lr
0xf67dfbc8:  e792210c      ldr	r2, [r2, ip, lsl #2]
0xf67dfbcc:  e1a0003a      lsr	r0, sl, r0
0xf67dfbd0:  e20ac01f      and	ip, sl, #31	; 0x1f
0xf67dfbd4:  e1a0cc32      lsr	ip, r2, ip
0xf67dfbd8:  e200001f      and	r0, r0, #31	; 0x1f
0xf67dfbdc:  e00c2032      and	r2, ip, r2, lsr r0
0xf67dfbe0:  e3120001      tst	r2, #1	; 0x1
0xf67dfbe4:  1a000141      bne	0xf67e00f0

----------------
IN: 
0xf67dfbe8:  e58d5034      str	r5, [sp, #52]
0xf67dfbec:  e59d302c      ldr	r3, [sp, #44]
0xf67dfbf0:  e3530001      cmp	r3, #1	; 0x1
0xf67dfbf4:  0a000012      beq	0xf67dfc44

----------------
IN: 
0xf67dfbf8:  e59d3034      ldr	r3, [sp, #52]
0xf67dfbfc:  e3530000      cmp	r3, #0	; 0x0
0xf67dfc00:  1a000009      bne	0xf67dfc2c

----------------
IN: 
0xf67dfc04:  e59d3038      ldr	r3, [sp, #56]
0xf67dfc08:  e3530000      cmp	r3, #0	; 0x0
0xf67dfc0c:  0a000006      beq	0xf67dfc2c

----------------
IN: 
0xf67dfc10:  e593000c      ldr	r0, [r3, #12]
0xf67dfc14:  e3500000      cmp	r0, #0	; 0x0
0xf67dfc18:  0a000003      beq	0xf67dfc2c

----------------
IN: 
0xf67dfc2c:  e2844001      add	r4, r4, #1	; 0x1
0xf67dfc30:  e1580004      cmp	r8, r4
0xf67dfc34:  8affffc1      bhi	0xf67dfb40

----------------
IN: 
0xf67dfb40:  e5b73004      ldr	r3, [r7, #4]!
0xf67dfb44:  e58d502c      str	r5, [sp, #44]
0xf67dfb48:  e5936014      ldr	r6, [r3, #20]
0xf67dfb4c:  e58d5028      str	r5, [sp, #40]
0xf67dfb50:  e1560009      cmp	r6, r9
0xf67dfb54:  e58d603c      str	r6, [sp, #60]
0xf67dfb58:  0a000033      beq	0xf67dfc2c

----------------
IN: 
0xf67e00f0:  e1a0000a      mov	r0, sl
0xf67e00f4:  e58d3000      str	r3, [sp]
0xf67e00f8:  eb004133      bl	0xf67f05cc

----------------
IN: 
0xf67f05cc:  e3510000      cmp	r1, #0	; 0x0
0xf67f05d0:  0afffffa      beq	0xf67f05c0

----------------
IN: 
0xf67f05d4:  e92d4003      push	{r0, r1, lr}
0xf67f05d8:  ebffff80      bl	0xf67f03e0

----------------
IN: 
0xf67f03fc:  e16f3f10      clz	r3, r0
0xf67f0400:  e16f2f11      clz	r2, r1
0xf67f0404:  e0423003      sub	r3, r2, r3
0xf67f0408:  e273301f      rsbs	r3, r3, #31	; 0x1f
0xf67f040c:  10833083      addne	r3, r3, r3, lsl #1
0xf67f0410:  e3a02000      mov	r2, #0	; 0x0
0xf67f0414:  108ff103      addne	pc, pc, r3, lsl #2

----------------
IN: 
0xf67f0494:  e1500a81      cmp	r0, r1, lsl #21
0xf67f0498:  e0a22002      adc	r2, r2, r2
0xf67f049c:  20400a81      subcs	r0, r0, r1, lsl #21
0xf67f04a0:  e1500a01      cmp	r0, r1, lsl #20
0xf67f04a4:  e0a22002      adc	r2, r2, r2
0xf67f04a8:  20400a01      subcs	r0, r0, r1, lsl #20
0xf67f04ac:  e1500981      cmp	r0, r1, lsl #19
0xf67f04b0:  e0a22002      adc	r2, r2, r2
0xf67f04b4:  20400981      subcs	r0, r0, r1, lsl #19
0xf67f04b8:  e1500901      cmp	r0, r1, lsl #18
0xf67f04bc:  e0a22002      adc	r2, r2, r2
0xf67f04c0:  20400901      subcs	r0, r0, r1, lsl #18
0xf67f04c4:  e1500881      cmp	r0, r1, lsl #17
0xf67f04c8:  e0a22002      adc	r2, r2, r2
0xf67f04cc:  20400881      subcs	r0, r0, r1, lsl #17
0xf67f04d0:  e1500801      cmp	r0, r1, lsl #16
0xf67f04d4:  e0a22002      adc	r2, r2, r2
0xf67f04d8:  20400801      subcs	r0, r0, r1, lsl #16
0xf67f04dc:  e1500781      cmp	r0, r1, lsl #15
0xf67f04e0:  e0a22002      adc	r2, r2, r2
0xf67f04e4:  20400781      subcs	r0, r0, r1, lsl #15
0xf67f04e8:  e1500701      cmp	r0, r1, lsl #14
0xf67f04ec:  e0a22002      adc	r2, r2, r2
0xf67f04f0:  20400701      subcs	r0, r0, r1, lsl #14
0xf67f04f4:  e1500681      cmp	r0, r1, lsl #13
0xf67f04f8:  e0a22002      adc	r2, r2, r2
0xf67f04fc:  20400681      subcs	r0, r0, r1, lsl #13
0xf67f0500:  e1500601      cmp	r0, r1, lsl #12
0xf67f0504:  e0a22002      adc	r2, r2, r2
0xf67f0508:  20400601      subcs	r0, r0, r1, lsl #12
0xf67f050c:  e1500581      cmp	r0, r1, lsl #11
0xf67f0510:  e0a22002      adc	r2, r2, r2
0xf67f0514:  20400581      subcs	r0, r0, r1, lsl #11
0xf67f0518:  e1500501      cmp	r0, r1, lsl #10
0xf67f051c:  e0a22002      adc	r2, r2, r2
0xf67f0520:  20400501      subcs	r0, r0, r1, lsl #10
0xf67f0524:  e1500481      cmp	r0, r1, lsl #9
0xf67f0528:  e0a22002      adc	r2, r2, r2
0xf67f052c:  20400481      subcs	r0, r0, r1, lsl #9
0xf67f0530:  e1500401      cmp	r0, r1, lsl #8
0xf67f0534:  e0a22002      adc	r2, r2, r2
0xf67f0538:  20400401      subcs	r0, r0, r1, lsl #8
0xf67f053c:  e1500381      cmp	r0, r1, lsl #7
0xf67f0540:  e0a22002      adc	r2, r2, r2
0xf67f0544:  20400381      subcs	r0, r0, r1, lsl #7

----------------
IN: 
0xf67f0548:  e1500301      cmp	r0, r1, lsl #6
0xf67f054c:  e0a22002      adc	r2, r2, r2
0xf67f0550:  20400301      subcs	r0, r0, r1, lsl #6
0xf67f0554:  e1500281      cmp	r0, r1, lsl #5
0xf67f0558:  e0a22002      adc	r2, r2, r2
0xf67f055c:  20400281      subcs	r0, r0, r1, lsl #5
0xf67f0560:  e1500201      cmp	r0, r1, lsl #4
0xf67f0564:  e0a22002      adc	r2, r2, r2
0xf67f0568:  20400201      subcs	r0, r0, r1, lsl #4
0xf67f056c:  e1500181      cmp	r0, r1, lsl #3
0xf67f0570:  e0a22002      adc	r2, r2, r2
0xf67f0574:  20400181      subcs	r0, r0, r1, lsl #3
0xf67f0578:  e1500101      cmp	r0, r1, lsl #2
0xf67f057c:  e0a22002      adc	r2, r2, r2
0xf67f0580:  20400101      subcs	r0, r0, r1, lsl #2
0xf67f0584:  e1500081      cmp	r0, r1, lsl #1
0xf67f0588:  e0a22002      adc	r2, r2, r2
0xf67f058c:  20400081      subcs	r0, r0, r1, lsl #1
0xf67f0590:  e1500001      cmp	r0, r1
0xf67f0594:  e0a22002      adc	r2, r2, r2
0xf67f0598:  20400001      subcs	r0, r0, r1
0xf67f059c:  e1a00002      mov	r0, r2
0xf67f05a0:  e12fff1e      bx	lr

----------------
IN: 
0xf67f05dc:  e8bd4006      pop	{r1, r2, lr}
0xf67f05e0:  e0030092      mul	r3, r2, r0
0xf67f05e4:  e0411003      sub	r1, r1, r3
0xf67f05e8:  e12fff1e      bx	lr

----------------
IN: 
0xf67e00fc:  e5962188      ldr	r2, [r6, #392]
0xf67e0100:  e59d3000      ldr	r3, [sp]
0xf67e0104:  e7922101      ldr	r2, [r2, r1, lsl #2]
0xf67e0108:  e3520000      cmp	r2, #0	; 0x0
0xf67e010c:  0afffeb5      beq	0xf67dfbe8

----------------
IN: 
0xf67e0110:  e596018c      ldr	r0, [r6, #396]
0xf67e0114:  e28d1028      add	r1, sp, #40	; 0x28
0xf67e0118:  e0802102      add	r2, r0, r2, lsl #2
0xf67e011c:  e58d8024      str	r8, [sp, #36]
0xf67e0120:  e2426004      sub	r6, r2, #4	; 0x4
0xf67e0124:  e1a08007      mov	r8, r7
0xf67e0128:  e1a07001      mov	r7, r1
0xf67e012c:  e1a0100b      mov	r1, fp
0xf67e0130:  e1a0b009      mov	fp, r9
0xf67e0134:  e1a09004      mov	r9, r4
0xf67e0138:  e1a04003      mov	r4, r3
0xf67e013c:  ea000001      b	0xf67e0148

----------------
IN: 
0xf67e0148:  e5b62004      ldr	r2, [r6, #4]!
0xf67e014c:  e02a0002      eor	r0, sl, r2
0xf67e0150:  e1b000a0      lsrs	r0, r0, #1
0xf67e0154:  1afffff9      bne	0xf67e0140

----------------
IN: 
0xf67e0140:  e3120001      tst	r2, #1	; 0x1
0xf67e0144:  1a000034      bne	0xf67e021c

----------------
IN: 
0xf67e0158:  e59d203c      ldr	r2, [sp, #60]
0xf67e015c:  e1a0c007      mov	ip, r7
0xf67e0160:  e592218c      ldr	r2, [r2, #396]
0xf67e0164:  e58d1004      str	r1, [sp, #4]
0xf67e0168:  e0622006      rsb	r2, r2, r6
0xf67e016c:  e1a02142      asr	r2, r2, #2
0xf67e0170:  e0840202      add	r0, r4, r2, lsl #4
0xf67e0174:  e58d2034      str	r2, [sp, #52]
0xf67e0178:  ebfffddf      bl	0xf67df8fc

----------------
IN: 
0xf67df8fc:  e92d40f8      push	{r3, r4, r5, r6, r7, lr}
0xf67df900:  e5902004      ldr	r2, [r0, #4]
0xf67df904:  e5d0300c      ldrb	r3, [r0, #12]
0xf67df908:  e3520000      cmp	r2, #0	; 0x0
0xf67df90c:  e1a05000      mov	r5, r0
0xf67df910:  e1a0400c      mov	r4, ip
0xf67df914:  e203300f      and	r3, r3, #15	; 0xf
0xf67df918:  0a00004c      beq	0xf67dfa50

----------------
IN: 
0xf67df91c:  e1d510be      ldrh	r1, [r5, #14]
0xf67df920:  e5942024      ldr	r2, [r4, #36]
0xf67df924:  e3510000      cmp	r1, #0	; 0x0
0xf67df928:  13a02000      movne	r2, #0	; 0x0
0xf67df92c:  02022001      andeq	r2, r2, #1	; 0x1
0xf67df930:  e3520000      cmp	r2, #0	; 0x0
0xf67df934:  1a00003b      bne	0xf67dfa28

----------------
IN: 
0xf67df938:  e59f2154      ldr	r2, [pc, #340]	; 0xf67dfa94
0xf67df93c:  e1a03352      asr	r3, r2, r3
0xf67df940:  e3130001      tst	r3, #1	; 0x1
0xf67df944:  0a000037      beq	0xf67dfa28

----------------
IN: 
0xf67df948:  e5943020      ldr	r3, [r4, #32]
0xf67df94c:  e1550003      cmp	r5, r3
0xf67df950:  0a000006      beq	0xf67df970

----------------
IN: 
0xf67df970:  e5946010      ldr	r6, [r4, #16]
0xf67df974:  e5941014      ldr	r1, [r4, #20]
0xf67df978:  e3560000      cmp	r6, #0	; 0x0
0xf67df97c:  e59131a4      ldr	r3, [r1, #420]
0xf67df980:  0a000015      beq	0xf67df9dc

----------------
IN: 
0xf67df984:  e3530000      cmp	r3, #0	; 0x0
0xf67df988:  0a000033      beq	0xf67dfa5c

----------------
IN: 
0xf67df98c:  e594000c      ldr	r0, [r4, #12]
0xf67df990:  e5912170      ldr	r2, [r1, #368]
0xf67df994:  e1a01080      lsl	r1, r0, #1
0xf67df998:  e19370b1      ldrh	r7, [r3, r1]
0xf67df99c:  e5961004      ldr	r1, [r6, #4]
0xf67df9a0:  e1a03887      lsl	r3, r7, #17
0xf67df9a4:  e1a038a3      lsr	r3, r3, #17
0xf67df9a8:  e0820203      add	r0, r2, r3, lsl #4
0xf67df9ac:  e5904004      ldr	r4, [r0, #4]
0xf67df9b0:  e1540001      cmp	r4, r1
0xf67df9b4:  0a00001d      beq	0xf67dfa30

----------------
IN: 
0xf67dfa30:  e7920203      ldr	r0, [r2, r3, lsl #4]
0xf67dfa34:  e5961000      ldr	r1, [r6]
0xf67dfa38:  eb003ec7      bl	0xf67ef55c

----------------
IN: 
0xf67dfa3c:  e3500000      cmp	r0, #0	; 0x0
0xf67dfa40:  0affffe3      beq	0xf67df9d4

----------------
IN: 
0xf67df9d4:  e1a00005      mov	r0, r5
0xf67df9d8:  e8bd80f8      pop	{r3, r4, r5, r6, r7, pc}

----------------
IN: 
0xf67e017c:  e3500000      cmp	r0, #0	; 0x0
0xf67e0180:  e59d1004      ldr	r1, [sp, #4]
0xf67e0184:  1a00002a      bne	0xf67e0234

----------------
IN: 
0xf67e0234:  e1a07008      mov	r7, r8
0xf67e0238:  e1a04009      mov	r4, r9
0xf67e023c:  e59d8024      ldr	r8, [sp, #36]
0xf67e0240:  e1a0900b      mov	r9, fp
0xf67e0244:  e1a0b001      mov	fp, r1
0xf67e0248:  eafffe80      b	0xf67dfc50

----------------
IN: 
0xf67dfc50:  e5d0300c      ldrb	r3, [r0, #12]
0xf67dfc54:  e1a03223      lsr	r3, r3, #4
0xf67dfc58:  e3530002      cmp	r3, #2	; 0x2
0xf67dfc5c:  0a000051      beq	0xf67dfda8

----------------
IN: 
0xf67dfc60:  e353000a      cmp	r3, #10	; 0xa
0xf67dfc64:  0a000009      beq	0xf67dfc90

----------------
IN: 
0xf67dfc68:  e3530001      cmp	r3, #1	; 0x1
0xf67dfc6c:  1affffe1      bne	0xf67dfbf8

----------------
IN: 
0xf67dfc70:  e1a06000      mov	r6, r0
0xf67dfc74:  e3a00001      mov	r0, #1	; 0x1
0xf67dfc78:  e59d4078      ldr	r4, [sp, #120]
0xf67dfc7c:  e59d303c      ldr	r3, [sp, #60]
0xf67dfc80:  e5846000      str	r6, [r4]
0xf67dfc84:  e5843004      str	r3, [r4, #4]
0xf67dfc88:  e28dd054      add	sp, sp, #84	; 0x54
0xf67dfc8c:  e8bd8ff0      pop	{r4, r5, r6, r7, r8, r9, sl, fp, pc}

----------------
IN: 
0xf67e04dc:  e3500000      cmp	r0, #0	; 0x0
0xf67e04e0:  daffffe7      ble	0xf67e0484

----------------
IN: 
0xf67e04e4:  e51b3054      ldr	r3, [fp, #-84]
0xf67e04e8:  e3530000      cmp	r3, #0	; 0x0
0xf67e04ec:  0a0002e5      beq	0xf67e1088

----------------
IN: 
0xf67e04f0:  e5983000      ldr	r3, [r8]
0xf67e04f4:  e3530000      cmp	r3, #0	; 0x0
0xf67e04f8:  0a000003      beq	0xf67e050c

----------------
IN: 
0xf67e04fc:  e5d3200d      ldrb	r2, [r3, #13]
0xf67e0500:  e2022003      and	r2, r2, #3	; 0x3
0xf67e0504:  e3520003      cmp	r2, #3	; 0x3
0xf67e0508:  0a000015      beq	0xf67e0564

----------------
IN: 
0xf67e050c:  e3a09000      mov	r9, #0	; 0x0
0xf67e0510:  e51b6050      ldr	r6, [fp, #-80]
0xf67e0514:  e5d63194      ldrb	r3, [r6, #404]
0xf67e0518:  e2033003      and	r3, r3, #3	; 0x3
0xf67e051c:  e3530002      cmp	r3, #2	; 0x2
0xf67e0520:  0a0000a8      beq	0xf67e07c8

----------------
IN: 
0xf67e0524:  e1a00006      mov	r0, r6
0xf67e0528:  e59031fc      ldr	r3, [r0, #508]
0xf67e052c:  e59f2e48      ldr	r2, [pc, #3656]	; 0xf67e137c
0xf67e0530:  e3530000      cmp	r3, #0	; 0x0
0xf67e0534:  03a03001      moveq	r3, #1	; 0x1
0xf67e0538:  e08f2002      add	r2, pc, r2
0xf67e053c:  058031fc      streq	r3, [r0, #508]
0xf67e0540:  e5922000      ldr	r2, [r2]
0xf67e0544:  e59f3e34      ldr	r3, [pc, #3636]	; 0xf67e1380
0xf67e0548:  e0033002      and	r3, r3, r2
0xf67e054c:  e3530000      cmp	r3, #0	; 0x0
0xf67e0550:  1a0001f1      bne	0xf67e0d1c

----------------
IN: 
0xf67e0554:  e51b3054      ldr	r3, [fp, #-84]
0xf67e0558:  e5883000      str	r3, [r8]
0xf67e055c:  e24bd020      sub	sp, fp, #32	; 0x20
0xf67e0560:  e8bd8ff0      pop	{r4, r5, r6, r7, r8, r9, sl, fp, pc}

----------------
IN: 
0xf67e23d8:  e51b1050      ldr	r1, [fp, #-80]
0xf67e23dc:  e1a03000      mov	r3, r0
0xf67e23e0:  e1a02001      mov	r2, r1
0xf67e23e4:  e58a0220      str	r0, [sl, #544]
0xf67e23e8:  e58a1224      str	r1, [sl, #548]
0xf67e23ec:  e3530000      cmp	r3, #0	; 0x0
0xf67e23f0:  0a000073      beq	0xf67e25c4

----------------
IN: 
0xf67e23f4:  e592c004      ldr	ip, [r2, #4]
0xf67e23f8:  e5931000      ldr	r1, [r3]
0xf67e23fc:  e08cc001      add	ip, ip, r1
0xf67e2400:  e5d2100c      ldrb	r1, [r2, #12]
0xf67e2404:  e201100f      and	r1, r1, #15	; 0xf
0xf67e2408:  e351000a      cmp	r1, #10	; 0xa
0xf67e240c:  0a000399      beq	0xf67e3278

----------------
IN: 
0xf67e2410:  e3590012      cmp	r9, #18	; 0x12
0xf67e2414:  0a00006f      beq	0xf67e25d8

----------------
IN: 
0xf67e2418:  8a000031      bhi	0xf67e24e4

----------------
IN: 
0xf67e241c:  e3590002      cmp	r9, #2	; 0x2
0xf67e2420:  0a000103      beq	0xf67e2834

----------------
IN: 
0xf67e2834:  e51b107c      ldr	r1, [fp, #-124]
0xf67e2838:  e15a0001      cmp	sl, r1
0xf67e283c:  051b0088      ldreq	r0, [fp, #-136]
0xf67e2840:  05942004      ldreq	r2, [r4, #4]
0xf67e2844:  05903518      ldreq	r3, [r0, #1304]
0xf67e2848:  e5d81002      ldrb	r1, [r8, #2]
0xf67e284c:  00823003      addeq	r3, r2, r3
0xf67e2850:  0063c00c      rsbeq	ip, r3, ip
0xf67e2854:  e5d82001      ldrb	r2, [r8, #1]
0xf67e2858:  e5d83000      ldrb	r3, [r8]
0xf67e285c:  e1833402      orr	r3, r3, r2, lsl #8
0xf67e2860:  e5d82003      ldrb	r2, [r8, #3]
0xf67e2864:  e1833801      orr	r3, r3, r1, lsl #16
0xf67e2868:  e1833c02      orr	r3, r3, r2, lsl #24
0xf67e286c:  e08cc003      add	ip, ip, r3
0xf67e2870:  e1a0142c      lsr	r1, ip, #8
0xf67e2874:  e1a0282c      lsr	r2, ip, #16
0xf67e2878:  e1a03c2c      lsr	r3, ip, #24
0xf67e287c:  e5c8c000      strb	ip, [r8]
0xf67e2880:  e51bc074      ldr	ip, [fp, #-116]
0xf67e2884:  e5c81001      strb	r1, [r8, #1]
0xf67e2888:  e15c0005      cmp	ip, r5
0xf67e288c:  e5c82002      strb	r2, [r8, #2]
0xf67e2890:  e5c83003      strb	r3, [r8, #3]
0xf67e2894:  e2855008      add	r5, r5, #8	; 0x8
0xf67e2898:  8afffe96      bhi	0xf67e22f8

----------------
IN: 
0xf67e22f8:  e9150202      ldmdb	r5, {r1, r9}
0xf67e22fc:  e51bc060      ldr	ip, [fp, #-96]
0xf67e2300:  e1a06429      lsr	r6, r9, #8
0xf67e2304:  e1a03086      lsl	r3, r6, #1
0xf67e2308:  e19c20b3      ldrh	r2, [ip, r3]
0xf67e230c:  e20990ff      and	r9, r9, #255	; 0xff
0xf67e2310:  e51bc05c      ldr	ip, [fp, #-92]
0xf67e2314:  e0874206      add	r4, r7, r6, lsl #4
0xf67e2318:  e3590017      cmp	r9, #23	; 0x17
0xf67e231c:  e08c8001      add	r8, ip, r1
0xf67e2320:  e50b4050      str	r4, [fp, #-80]
0xf67e2324:  e59a3170      ldr	r3, [sl, #368]
0xf67e2328:  0a0003e0      beq	0xf67e32b0

----------------
IN: 
0xf67e24d8:  e1a02004      mov	r2, r4
0xf67e24dc:  e1a0300a      mov	r3, sl
0xf67e24e0:  eaffffc3      b	0xf67e23f4

----------------
IN: 
0xf67e24e4:  e3590016      cmp	r9, #22	; 0x16
0xf67e24e8:  8a000084      bhi	0xf67e2700

----------------
IN: 
0xf67e24ec:  e3590015      cmp	r9, #21	; 0x15
0xf67e24f0:  2a0000c9      bcs	0xf67e281c

----------------
IN: 
0xf67e24f4:  e3590013      cmp	r9, #19	; 0x13
0xf67e24f8:  0a0000e8      beq	0xf67e28a0

----------------
IN: 
0xf67e28a0:  e51b2050      ldr	r2, [fp, #-80]
0xf67e28a4:  e3520000      cmp	r2, #0	; 0x0
0xf67e28a8:  0afffee5      beq	0xf67e2444

----------------
IN: 
0xf67e28ac:  e593123c      ldr	r1, [r3, #572]
0xf67e28b0:  e2810001      add	r0, r1, #1	; 0x1
0xf67e28b4:  e3500001      cmp	r0, #1	; 0x1
0xf67e28b8:  9a0003c5      bls	0xf67e37d4

----------------
IN: 
0xf67e28bc:  e5923004      ldr	r3, [r2, #4]
0xf67e28c0:  e5982000      ldr	r2, [r8]
0xf67e28c4:  e51bc074      ldr	ip, [fp, #-116]
0xf67e28c8:  e0823003      add	r3, r2, r3
0xf67e28cc:  e0831001      add	r1, r3, r1
0xf67e28d0:  e15c0005      cmp	ip, r5
0xf67e28d4:  e5881000      str	r1, [r8]
0xf67e28d8:  e2855008      add	r5, r5, #8	; 0x8
0xf67e28dc:  8afffe85      bhi	0xf67e22f8

----------------
IN: 
0xf67e2424:  9a0000a7      bls	0xf67e26c8

----------------
IN: 
0xf67e2428:  e359000d      cmp	r9, #13	; 0xd
0xf67e242c:  0a0000e5      beq	0xf67e27c8

----------------
IN: 
0xf67e2430:  e3590011      cmp	r9, #17	; 0x11
0xf67e2434:  1a00005e      bne	0xf67e25b4

----------------
IN: 
0xf67e2438:  e3530000      cmp	r3, #0	; 0x0
0xf67e243c:  15933240      ldrne	r3, [r3, #576]
0xf67e2440:  15883000      strne	r3, [r8]
0xf67e2444:  e51bc074      ldr	ip, [fp, #-116]
0xf67e2448:  e15c0005      cmp	ip, r5
0xf67e244c:  e2855008      add	r5, r5, #8	; 0x8
0xf67e2450:  8affffa8      bhi	0xf67e22f8

----------------
IN: 
0xf67f04ac:  e1500981      cmp	r0, r1, lsl #19
0xf67f04b0:  e0a22002      adc	r2, r2, r2
0xf67f04b4:  20400981      subcs	r0, r0, r1, lsl #19
0xf67f04b8:  e1500901      cmp	r0, r1, lsl #18
0xf67f04bc:  e0a22002      adc	r2, r2, r2
0xf67f04c0:  20400901      subcs	r0, r0, r1, lsl #18
0xf67f04c4:  e1500881      cmp	r0, r1, lsl #17
0xf67f04c8:  e0a22002      adc	r2, r2, r2
0xf67f04cc:  20400881      subcs	r0, r0, r1, lsl #17
0xf67f04d0:  e1500801      cmp	r0, r1, lsl #16
0xf67f04d4:  e0a22002      adc	r2, r2, r2
0xf67f04d8:  20400801      subcs	r0, r0, r1, lsl #16
0xf67f04dc:  e1500781      cmp	r0, r1, lsl #15
0xf67f04e0:  e0a22002      adc	r2, r2, r2
0xf67f04e4:  20400781      subcs	r0, r0, r1, lsl #15
0xf67f04e8:  e1500701      cmp	r0, r1, lsl #14
0xf67f04ec:  e0a22002      adc	r2, r2, r2
0xf67f04f0:  20400701      subcs	r0, r0, r1, lsl #14
0xf67f04f4:  e1500681      cmp	r0, r1, lsl #13
0xf67f04f8:  e0a22002      adc	r2, r2, r2
0xf67f04fc:  20400681      subcs	r0, r0, r1, lsl #13
0xf67f0500:  e1500601      cmp	r0, r1, lsl #12
0xf67f0504:  e0a22002      adc	r2, r2, r2
0xf67f0508:  20400601      subcs	r0, r0, r1, lsl #12
0xf67f050c:  e1500581      cmp	r0, r1, lsl #11
0xf67f0510:  e0a22002      adc	r2, r2, r2
0xf67f0514:  20400581      subcs	r0, r0, r1, lsl #11
0xf67f0518:  e1500501      cmp	r0, r1, lsl #10
0xf67f051c:  e0a22002      adc	r2, r2, r2
0xf67f0520:  20400501      subcs	r0, r0, r1, lsl #10
0xf67f0524:  e1500481      cmp	r0, r1, lsl #9
0xf67f0528:  e0a22002      adc	r2, r2, r2
0xf67f052c:  20400481      subcs	r0, r0, r1, lsl #9
0xf67f0530:  e1500401      cmp	r0, r1, lsl #8
0xf67f0534:  e0a22002      adc	r2, r2, r2
0xf67f0538:  20400401      subcs	r0, r0, r1, lsl #8
0xf67f053c:  e1500381      cmp	r0, r1, lsl #7
0xf67f0540:  e0a22002      adc	r2, r2, r2
0xf67f0544:  20400381      subcs	r0, r0, r1, lsl #7
0xf67f0548:  e1500301      cmp	r0, r1, lsl #6
0xf67f054c:  e0a22002      adc	r2, r2, r2
0xf67f0550:  20400301      subcs	r0, r0, r1, lsl #6
0xf67f0554:  e1500281      cmp	r0, r1, lsl #5
0xf67f0558:  e0a22002      adc	r2, r2, r2
0xf67f055c:  20400281      subcs	r0, r0, r1, lsl #5

----------------
IN: 
0xf67f0560:  e1500201      cmp	r0, r1, lsl #4
0xf67f0564:  e0a22002      adc	r2, r2, r2
0xf67f0568:  20400201      subcs	r0, r0, r1, lsl #4
0xf67f056c:  e1500181      cmp	r0, r1, lsl #3
0xf67f0570:  e0a22002      adc	r2, r2, r2
0xf67f0574:  20400181      subcs	r0, r0, r1, lsl #3
0xf67f0578:  e1500101      cmp	r0, r1, lsl #2
0xf67f057c:  e0a22002      adc	r2, r2, r2
0xf67f0580:  20400101      subcs	r0, r0, r1, lsl #2
0xf67f0584:  e1500081      cmp	r0, r1, lsl #1
0xf67f0588:  e0a22002      adc	r2, r2, r2
0xf67f058c:  20400081      subcs	r0, r0, r1, lsl #1
0xf67f0590:  e1500001      cmp	r0, r1
0xf67f0594:  e0a22002      adc	r2, r2, r2
0xf67f0598:  20400001      subcs	r0, r0, r1
0xf67f059c:  e1a00002      mov	r0, r2
0xf67f05a0:  e12fff1e      bx	lr

----------------
IN: 
0xf67e281c:  e588c000      str	ip, [r8]
0xf67e2820:  e51bc074      ldr	ip, [fp, #-116]
0xf67e2824:  e15c0005      cmp	ip, r5
0xf67e2828:  e2855008      add	r5, r5, #8	; 0x8
0xf67e282c:  8afffeb1      bhi	0xf67e22f8

----------------
IN: 
0xf67f0428:  e1500f01      cmp	r0, r1, lsl #30
0xf67f042c:  e0a22002      adc	r2, r2, r2
0xf67f0430:  20400f01      subcs	r0, r0, r1, lsl #30
0xf67f0434:  e1500e81      cmp	r0, r1, lsl #29
0xf67f0438:  e0a22002      adc	r2, r2, r2
0xf67f043c:  20400e81      subcs	r0, r0, r1, lsl #29
0xf67f0440:  e1500e01      cmp	r0, r1, lsl #28
0xf67f0444:  e0a22002      adc	r2, r2, r2
0xf67f0448:  20400e01      subcs	r0, r0, r1, lsl #28
0xf67f044c:  e1500d81      cmp	r0, r1, lsl #27
0xf67f0450:  e0a22002      adc	r2, r2, r2
0xf67f0454:  20400d81      subcs	r0, r0, r1, lsl #27
0xf67f0458:  e1500d01      cmp	r0, r1, lsl #26
0xf67f045c:  e0a22002      adc	r2, r2, r2
0xf67f0460:  20400d01      subcs	r0, r0, r1, lsl #26
0xf67f0464:  e1500c81      cmp	r0, r1, lsl #25
0xf67f0468:  e0a22002      adc	r2, r2, r2
0xf67f046c:  20400c81      subcs	r0, r0, r1, lsl #25
0xf67f0470:  e1500c01      cmp	r0, r1, lsl #24
0xf67f0474:  e0a22002      adc	r2, r2, r2
0xf67f0478:  20400c01      subcs	r0, r0, r1, lsl #24
0xf67f047c:  e1500b81      cmp	r0, r1, lsl #23
0xf67f0480:  e0a22002      adc	r2, r2, r2
0xf67f0484:  20400b81      subcs	r0, r0, r1, lsl #23
0xf67f0488:  e1500b01      cmp	r0, r1, lsl #22
0xf67f048c:  e0a22002      adc	r2, r2, r2
0xf67f0490:  20400b01      subcs	r0, r0, r1, lsl #22
0xf67f0494:  e1500a81      cmp	r0, r1, lsl #21
0xf67f0498:  e0a22002      adc	r2, r2, r2
0xf67f049c:  20400a81      subcs	r0, r0, r1, lsl #21
0xf67f04a0:  e1500a01      cmp	r0, r1, lsl #20
0xf67f04a4:  e0a22002      adc	r2, r2, r2
0xf67f04a8:  20400a01      subcs	r0, r0, r1, lsl #20
0xf67f04ac:  e1500981      cmp	r0, r1, lsl #19
0xf67f04b0:  e0a22002      adc	r2, r2, r2
0xf67f04b4:  20400981      subcs	r0, r0, r1, lsl #19
0xf67f04b8:  e1500901      cmp	r0, r1, lsl #18
0xf67f04bc:  e0a22002      adc	r2, r2, r2
0xf67f04c0:  20400901      subcs	r0, r0, r1, lsl #18
0xf67f04c4:  e1500881      cmp	r0, r1, lsl #17
0xf67f04c8:  e0a22002      adc	r2, r2, r2
0xf67f04cc:  20400881      subcs	r0, r0, r1, lsl #17
0xf67f04d0:  e1500801      cmp	r0, r1, lsl #16
0xf67f04d4:  e0a22002      adc	r2, r2, r2
0xf67f04d8:  20400801      subcs	r0, r0, r1, lsl #16

----------------
IN: 
0xf67f04dc:  e1500781      cmp	r0, r1, lsl #15
0xf67f04e0:  e0a22002      adc	r2, r2, r2
0xf67f04e4:  20400781      subcs	r0, r0, r1, lsl #15
0xf67f04e8:  e1500701      cmp	r0, r1, lsl #14
0xf67f04ec:  e0a22002      adc	r2, r2, r2
0xf67f04f0:  20400701      subcs	r0, r0, r1, lsl #14
0xf67f04f4:  e1500681      cmp	r0, r1, lsl #13
0xf67f04f8:  e0a22002      adc	r2, r2, r2
0xf67f04fc:  20400681      subcs	r0, r0, r1, lsl #13
0xf67f0500:  e1500601      cmp	r0, r1, lsl #12
0xf67f0504:  e0a22002      adc	r2, r2, r2
0xf67f0508:  20400601      subcs	r0, r0, r1, lsl #12
0xf67f050c:  e1500581      cmp	r0, r1, lsl #11
0xf67f0510:  e0a22002      adc	r2, r2, r2
0xf67f0514:  20400581      subcs	r0, r0, r1, lsl #11
0xf67f0518:  e1500501      cmp	r0, r1, lsl #10
0xf67f051c:  e0a22002      adc	r2, r2, r2
0xf67f0520:  20400501      subcs	r0, r0, r1, lsl #10
0xf67f0524:  e1500481      cmp	r0, r1, lsl #9
0xf67f0528:  e0a22002      adc	r2, r2, r2
0xf67f052c:  20400481      subcs	r0, r0, r1, lsl #9
0xf67f0530:  e1500401      cmp	r0, r1, lsl #8
0xf67f0534:  e0a22002      adc	r2, r2, r2
0xf67f0538:  20400401      subcs	r0, r0, r1, lsl #8
0xf67f053c:  e1500381      cmp	r0, r1, lsl #7
0xf67f0540:  e0a22002      adc	r2, r2, r2
0xf67f0544:  20400381      subcs	r0, r0, r1, lsl #7
0xf67f0548:  e1500301      cmp	r0, r1, lsl #6
0xf67f054c:  e0a22002      adc	r2, r2, r2
0xf67f0550:  20400301      subcs	r0, r0, r1, lsl #6
0xf67f0554:  e1500281      cmp	r0, r1, lsl #5
0xf67f0558:  e0a22002      adc	r2, r2, r2
0xf67f055c:  20400281      subcs	r0, r0, r1, lsl #5
0xf67f0560:  e1500201      cmp	r0, r1, lsl #4
0xf67f0564:  e0a22002      adc	r2, r2, r2
0xf67f0568:  20400201      subcs	r0, r0, r1, lsl #4
0xf67f056c:  e1500181      cmp	r0, r1, lsl #3
0xf67f0570:  e0a22002      adc	r2, r2, r2
0xf67f0574:  20400181      subcs	r0, r0, r1, lsl #3
0xf67f0578:  e1500101      cmp	r0, r1, lsl #2
0xf67f057c:  e0a22002      adc	r2, r2, r2
0xf67f0580:  20400101      subcs	r0, r0, r1, lsl #2
0xf67f0584:  e1500081      cmp	r0, r1, lsl #1
0xf67f0588:  e0a22002      adc	r2, r2, r2
0xf67f058c:  20400081      subcs	r0, r0, r1, lsl #1

----------------
IN: 
0xf67f0590:  e1500001      cmp	r0, r1
0xf67f0594:  e0a22002      adc	r2, r2, r2
0xf67f0598:  20400001      subcs	r0, r0, r1
0xf67f059c:  e1a00002      mov	r0, r2
0xf67f05a0:  e12fff1e      bx	lr

----------------
IN: 
0xf67e021c:  e1a07008      mov	r7, r8
0xf67e0220:  e1a04009      mov	r4, r9
0xf67e0224:  e59d8024      ldr	r8, [sp, #36]
0xf67e0228:  e1a0900b      mov	r9, fp
0xf67e022c:  e1a0b001      mov	fp, r1
0xf67e0230:  eafffe6c      b	0xf67dfbe8

----------------
IN: 
0xf67f0488:  e1500b01      cmp	r0, r1, lsl #22
0xf67f048c:  e0a22002      adc	r2, r2, r2
0xf67f0490:  20400b01      subcs	r0, r0, r1, lsl #22
0xf67f0494:  e1500a81      cmp	r0, r1, lsl #21
0xf67f0498:  e0a22002      adc	r2, r2, r2
0xf67f049c:  20400a81      subcs	r0, r0, r1, lsl #21
0xf67f04a0:  e1500a01      cmp	r0, r1, lsl #20
0xf67f04a4:  e0a22002      adc	r2, r2, r2
0xf67f04a8:  20400a01      subcs	r0, r0, r1, lsl #20
0xf67f04ac:  e1500981      cmp	r0, r1, lsl #19
0xf67f04b0:  e0a22002      adc	r2, r2, r2
0xf67f04b4:  20400981      subcs	r0, r0, r1, lsl #19
0xf67f04b8:  e1500901      cmp	r0, r1, lsl #18
0xf67f04bc:  e0a22002      adc	r2, r2, r2
0xf67f04c0:  20400901      subcs	r0, r0, r1, lsl #18
0xf67f04c4:  e1500881      cmp	r0, r1, lsl #17
0xf67f04c8:  e0a22002      adc	r2, r2, r2
0xf67f04cc:  20400881      subcs	r0, r0, r1, lsl #17
0xf67f04d0:  e1500801      cmp	r0, r1, lsl #16
0xf67f04d4:  e0a22002      adc	r2, r2, r2
0xf67f04d8:  20400801      subcs	r0, r0, r1, lsl #16
0xf67f04dc:  e1500781      cmp	r0, r1, lsl #15
0xf67f04e0:  e0a22002      adc	r2, r2, r2
0xf67f04e4:  20400781      subcs	r0, r0, r1, lsl #15
0xf67f04e8:  e1500701      cmp	r0, r1, lsl #14
0xf67f04ec:  e0a22002      adc	r2, r2, r2
0xf67f04f0:  20400701      subcs	r0, r0, r1, lsl #14
0xf67f04f4:  e1500681      cmp	r0, r1, lsl #13
0xf67f04f8:  e0a22002      adc	r2, r2, r2
0xf67f04fc:  20400681      subcs	r0, r0, r1, lsl #13
0xf67f0500:  e1500601      cmp	r0, r1, lsl #12
0xf67f0504:  e0a22002      adc	r2, r2, r2
0xf67f0508:  20400601      subcs	r0, r0, r1, lsl #12
0xf67f050c:  e1500581      cmp	r0, r1, lsl #11
0xf67f0510:  e0a22002      adc	r2, r2, r2
0xf67f0514:  20400581      subcs	r0, r0, r1, lsl #11
0xf67f0518:  e1500501      cmp	r0, r1, lsl #10
0xf67f051c:  e0a22002      adc	r2, r2, r2
0xf67f0520:  20400501      subcs	r0, r0, r1, lsl #10
0xf67f0524:  e1500481      cmp	r0, r1, lsl #9
0xf67f0528:  e0a22002      adc	r2, r2, r2
0xf67f052c:  20400481      subcs	r0, r0, r1, lsl #9
0xf67f0530:  e1500401      cmp	r0, r1, lsl #8
0xf67f0534:  e0a22002      adc	r2, r2, r2
0xf67f0538:  20400401      subcs	r0, r0, r1, lsl #8

----------------
IN: 
0xf67f053c:  e1500381      cmp	r0, r1, lsl #7
0xf67f0540:  e0a22002      adc	r2, r2, r2
0xf67f0544:  20400381      subcs	r0, r0, r1, lsl #7
0xf67f0548:  e1500301      cmp	r0, r1, lsl #6
0xf67f054c:  e0a22002      adc	r2, r2, r2
0xf67f0550:  20400301      subcs	r0, r0, r1, lsl #6
0xf67f0554:  e1500281      cmp	r0, r1, lsl #5
0xf67f0558:  e0a22002      adc	r2, r2, r2
0xf67f055c:  20400281      subcs	r0, r0, r1, lsl #5
0xf67f0560:  e1500201      cmp	r0, r1, lsl #4
0xf67f0564:  e0a22002      adc	r2, r2, r2
0xf67f0568:  20400201      subcs	r0, r0, r1, lsl #4
0xf67f056c:  e1500181      cmp	r0, r1, lsl #3
0xf67f0570:  e0a22002      adc	r2, r2, r2
0xf67f0574:  20400181      subcs	r0, r0, r1, lsl #3
0xf67f0578:  e1500101      cmp	r0, r1, lsl #2
0xf67f057c:  e0a22002      adc	r2, r2, r2
0xf67f0580:  20400101      subcs	r0, r0, r1, lsl #2
0xf67f0584:  e1500081      cmp	r0, r1, lsl #1
0xf67f0588:  e0a22002      adc	r2, r2, r2
0xf67f058c:  20400081      subcs	r0, r0, r1, lsl #1
0xf67f0590:  e1500001      cmp	r0, r1
0xf67f0594:  e0a22002      adc	r2, r2, r2
0xf67f0598:  20400001      subcs	r0, r0, r1
0xf67f059c:  e1a00002      mov	r0, r2
0xf67f05a0:  e12fff1e      bx	lr

----------------
IN: 
0xf67dfda8:  e59d100c      ldr	r1, [sp, #12]
0xf67dfdac:  e5913034      ldr	r3, [r1, #52]
0xf67dfdb0:  e3530000      cmp	r3, #0	; 0x0
0xf67dfdb4:  0affffad      beq	0xf67dfc70

----------------
IN: 
0xf67f0458:  e1500d01      cmp	r0, r1, lsl #26
0xf67f045c:  e0a22002      adc	r2, r2, r2
0xf67f0460:  20400d01      subcs	r0, r0, r1, lsl #26
0xf67f0464:  e1500c81      cmp	r0, r1, lsl #25
0xf67f0468:  e0a22002      adc	r2, r2, r2
0xf67f046c:  20400c81      subcs	r0, r0, r1, lsl #25
0xf67f0470:  e1500c01      cmp	r0, r1, lsl #24
0xf67f0474:  e0a22002      adc	r2, r2, r2
0xf67f0478:  20400c01      subcs	r0, r0, r1, lsl #24
0xf67f047c:  e1500b81      cmp	r0, r1, lsl #23
0xf67f0480:  e0a22002      adc	r2, r2, r2
0xf67f0484:  20400b81      subcs	r0, r0, r1, lsl #23
0xf67f0488:  e1500b01      cmp	r0, r1, lsl #22
0xf67f048c:  e0a22002      adc	r2, r2, r2
0xf67f0490:  20400b01      subcs	r0, r0, r1, lsl #22
0xf67f0494:  e1500a81      cmp	r0, r1, lsl #21
0xf67f0498:  e0a22002      adc	r2, r2, r2
0xf67f049c:  20400a81      subcs	r0, r0, r1, lsl #21
0xf67f04a0:  e1500a01      cmp	r0, r1, lsl #20
0xf67f04a4:  e0a22002      adc	r2, r2, r2
0xf67f04a8:  20400a01      subcs	r0, r0, r1, lsl #20
0xf67f04ac:  e1500981      cmp	r0, r1, lsl #19
0xf67f04b0:  e0a22002      adc	r2, r2, r2
0xf67f04b4:  20400981      subcs	r0, r0, r1, lsl #19
0xf67f04b8:  e1500901      cmp	r0, r1, lsl #18
0xf67f04bc:  e0a22002      adc	r2, r2, r2
0xf67f04c0:  20400901      subcs	r0, r0, r1, lsl #18
0xf67f04c4:  e1500881      cmp	r0, r1, lsl #17
0xf67f04c8:  e0a22002      adc	r2, r2, r2
0xf67f04cc:  20400881      subcs	r0, r0, r1, lsl #17
0xf67f04d0:  e1500801      cmp	r0, r1, lsl #16
0xf67f04d4:  e0a22002      adc	r2, r2, r2
0xf67f04d8:  20400801      subcs	r0, r0, r1, lsl #16
0xf67f04dc:  e1500781      cmp	r0, r1, lsl #15
0xf67f04e0:  e0a22002      adc	r2, r2, r2
0xf67f04e4:  20400781      subcs	r0, r0, r1, lsl #15
0xf67f04e8:  e1500701      cmp	r0, r1, lsl #14
0xf67f04ec:  e0a22002      adc	r2, r2, r2
0xf67f04f0:  20400701      subcs	r0, r0, r1, lsl #14
0xf67f04f4:  e1500681      cmp	r0, r1, lsl #13
0xf67f04f8:  e0a22002      adc	r2, r2, r2
0xf67f04fc:  20400681      subcs	r0, r0, r1, lsl #13
0xf67f0500:  e1500601      cmp	r0, r1, lsl #12
0xf67f0504:  e0a22002      adc	r2, r2, r2
0xf67f0508:  20400601      subcs	r0, r0, r1, lsl #12

----------------
IN: 
0xf67f050c:  e1500581      cmp	r0, r1, lsl #11
0xf67f0510:  e0a22002      adc	r2, r2, r2
0xf67f0514:  20400581      subcs	r0, r0, r1, lsl #11
0xf67f0518:  e1500501      cmp	r0, r1, lsl #10
0xf67f051c:  e0a22002      adc	r2, r2, r2
0xf67f0520:  20400501      subcs	r0, r0, r1, lsl #10
0xf67f0524:  e1500481      cmp	r0, r1, lsl #9
0xf67f0528:  e0a22002      adc	r2, r2, r2
0xf67f052c:  20400481      subcs	r0, r0, r1, lsl #9
0xf67f0530:  e1500401      cmp	r0, r1, lsl #8
0xf67f0534:  e0a22002      adc	r2, r2, r2
0xf67f0538:  20400401      subcs	r0, r0, r1, lsl #8
0xf67f053c:  e1500381      cmp	r0, r1, lsl #7
0xf67f0540:  e0a22002      adc	r2, r2, r2
0xf67f0544:  20400381      subcs	r0, r0, r1, lsl #7
0xf67f0548:  e1500301      cmp	r0, r1, lsl #6
0xf67f054c:  e0a22002      adc	r2, r2, r2
0xf67f0550:  20400301      subcs	r0, r0, r1, lsl #6
0xf67f0554:  e1500281      cmp	r0, r1, lsl #5
0xf67f0558:  e0a22002      adc	r2, r2, r2
0xf67f055c:  20400281      subcs	r0, r0, r1, lsl #5
0xf67f0560:  e1500201      cmp	r0, r1, lsl #4
0xf67f0564:  e0a22002      adc	r2, r2, r2
0xf67f0568:  20400201      subcs	r0, r0, r1, lsl #4
0xf67f056c:  e1500181      cmp	r0, r1, lsl #3
0xf67f0570:  e0a22002      adc	r2, r2, r2
0xf67f0574:  20400181      subcs	r0, r0, r1, lsl #3
0xf67f0578:  e1500101      cmp	r0, r1, lsl #2
0xf67f057c:  e0a22002      adc	r2, r2, r2
0xf67f0580:  20400101      subcs	r0, r0, r1, lsl #2
0xf67f0584:  e1500081      cmp	r0, r1, lsl #1
0xf67f0588:  e0a22002      adc	r2, r2, r2
0xf67f058c:  20400081      subcs	r0, r0, r1, lsl #1
0xf67f0590:  e1500001      cmp	r0, r1
0xf67f0594:  e0a22002      adc	r2, r2, r2
0xf67f0598:  20400001      subcs	r0, r0, r1
0xf67f059c:  e1a00002      mov	r0, r2
0xf67f05a0:  e12fff1e      bx	lr

----------------
IN: 
0xf67f04b8:  e1500901      cmp	r0, r1, lsl #18
0xf67f04bc:  e0a22002      adc	r2, r2, r2
0xf67f04c0:  20400901      subcs	r0, r0, r1, lsl #18
0xf67f04c4:  e1500881      cmp	r0, r1, lsl #17
0xf67f04c8:  e0a22002      adc	r2, r2, r2
0xf67f04cc:  20400881      subcs	r0, r0, r1, lsl #17
0xf67f04d0:  e1500801      cmp	r0, r1, lsl #16
0xf67f04d4:  e0a22002      adc	r2, r2, r2
0xf67f04d8:  20400801      subcs	r0, r0, r1, lsl #16
0xf67f04dc:  e1500781      cmp	r0, r1, lsl #15
0xf67f04e0:  e0a22002      adc	r2, r2, r2
0xf67f04e4:  20400781      subcs	r0, r0, r1, lsl #15
0xf67f04e8:  e1500701      cmp	r0, r1, lsl #14
0xf67f04ec:  e0a22002      adc	r2, r2, r2
0xf67f04f0:  20400701      subcs	r0, r0, r1, lsl #14
0xf67f04f4:  e1500681      cmp	r0, r1, lsl #13
0xf67f04f8:  e0a22002      adc	r2, r2, r2
0xf67f04fc:  20400681      subcs	r0, r0, r1, lsl #13
0xf67f0500:  e1500601      cmp	r0, r1, lsl #12
0xf67f0504:  e0a22002      adc	r2, r2, r2
0xf67f0508:  20400601      subcs	r0, r0, r1, lsl #12
0xf67f050c:  e1500581      cmp	r0, r1, lsl #11
0xf67f0510:  e0a22002      adc	r2, r2, r2
0xf67f0514:  20400581      subcs	r0, r0, r1, lsl #11
0xf67f0518:  e1500501      cmp	r0, r1, lsl #10
0xf67f051c:  e0a22002      adc	r2, r2, r2
0xf67f0520:  20400501      subcs	r0, r0, r1, lsl #10
0xf67f0524:  e1500481      cmp	r0, r1, lsl #9
0xf67f0528:  e0a22002      adc	r2, r2, r2
0xf67f052c:  20400481      subcs	r0, r0, r1, lsl #9
0xf67f0530:  e1500401      cmp	r0, r1, lsl #8
0xf67f0534:  e0a22002      adc	r2, r2, r2
0xf67f0538:  20400401      subcs	r0, r0, r1, lsl #8
0xf67f053c:  e1500381      cmp	r0, r1, lsl #7
0xf67f0540:  e0a22002      adc	r2, r2, r2
0xf67f0544:  20400381      subcs	r0, r0, r1, lsl #7
0xf67f0548:  e1500301      cmp	r0, r1, lsl #6
0xf67f054c:  e0a22002      adc	r2, r2, r2
0xf67f0550:  20400301      subcs	r0, r0, r1, lsl #6
0xf67f0554:  e1500281      cmp	r0, r1, lsl #5
0xf67f0558:  e0a22002      adc	r2, r2, r2
0xf67f055c:  20400281      subcs	r0, r0, r1, lsl #5
0xf67f0560:  e1500201      cmp	r0, r1, lsl #4
0xf67f0564:  e0a22002      adc	r2, r2, r2
0xf67f0568:  20400201      subcs	r0, r0, r1, lsl #4

----------------
IN: 
0xf67f056c:  e1500181      cmp	r0, r1, lsl #3
0xf67f0570:  e0a22002      adc	r2, r2, r2
0xf67f0574:  20400181      subcs	r0, r0, r1, lsl #3
0xf67f0578:  e1500101      cmp	r0, r1, lsl #2
0xf67f057c:  e0a22002      adc	r2, r2, r2
0xf67f0580:  20400101      subcs	r0, r0, r1, lsl #2
0xf67f0584:  e1500081      cmp	r0, r1, lsl #1
0xf67f0588:  e0a22002      adc	r2, r2, r2
0xf67f058c:  20400081      subcs	r0, r0, r1, lsl #1
0xf67f0590:  e1500001      cmp	r0, r1
0xf67f0594:  e0a22002      adc	r2, r2, r2
0xf67f0598:  20400001      subcs	r0, r0, r1
0xf67f059c:  e1a00002      mov	r0, r2
0xf67f05a0:  e12fff1e      bx	lr

----------------
IN: 
0xf67dfc1c:  e59d103c      ldr	r1, [sp, #60]
0xf67dfc20:  eb001d09      bl	0xf67e704c

----------------
IN: 
0xf67dfc24:  e3500000      cmp	r0, #0	; 0x0
0xf67dfc28:  1a0001c9      bne	0xf67e0354

----------------
IN: 
0xf67f044c:  e1500d81      cmp	r0, r1, lsl #27
0xf67f0450:  e0a22002      adc	r2, r2, r2
0xf67f0454:  20400d81      subcs	r0, r0, r1, lsl #27
0xf67f0458:  e1500d01      cmp	r0, r1, lsl #26
0xf67f045c:  e0a22002      adc	r2, r2, r2
0xf67f0460:  20400d01      subcs	r0, r0, r1, lsl #26
0xf67f0464:  e1500c81      cmp	r0, r1, lsl #25
0xf67f0468:  e0a22002      adc	r2, r2, r2
0xf67f046c:  20400c81      subcs	r0, r0, r1, lsl #25
0xf67f0470:  e1500c01      cmp	r0, r1, lsl #24
0xf67f0474:  e0a22002      adc	r2, r2, r2
0xf67f0478:  20400c01      subcs	r0, r0, r1, lsl #24
0xf67f047c:  e1500b81      cmp	r0, r1, lsl #23
0xf67f0480:  e0a22002      adc	r2, r2, r2
0xf67f0484:  20400b81      subcs	r0, r0, r1, lsl #23
0xf67f0488:  e1500b01      cmp	r0, r1, lsl #22
0xf67f048c:  e0a22002      adc	r2, r2, r2
0xf67f0490:  20400b01      subcs	r0, r0, r1, lsl #22
0xf67f0494:  e1500a81      cmp	r0, r1, lsl #21
0xf67f0498:  e0a22002      adc	r2, r2, r2
0xf67f049c:  20400a81      subcs	r0, r0, r1, lsl #21
0xf67f04a0:  e1500a01      cmp	r0, r1, lsl #20
0xf67f04a4:  e0a22002      adc	r2, r2, r2
0xf67f04a8:  20400a01      subcs	r0, r0, r1, lsl #20
0xf67f04ac:  e1500981      cmp	r0, r1, lsl #19
0xf67f04b0:  e0a22002      adc	r2, r2, r2
0xf67f04b4:  20400981      subcs	r0, r0, r1, lsl #19
0xf67f04b8:  e1500901      cmp	r0, r1, lsl #18
0xf67f04bc:  e0a22002      adc	r2, r2, r2
0xf67f04c0:  20400901      subcs	r0, r0, r1, lsl #18
0xf67f04c4:  e1500881      cmp	r0, r1, lsl #17
0xf67f04c8:  e0a22002      adc	r2, r2, r2
0xf67f04cc:  20400881      subcs	r0, r0, r1, lsl #17
0xf67f04d0:  e1500801      cmp	r0, r1, lsl #16
0xf67f04d4:  e0a22002      adc	r2, r2, r2
0xf67f04d8:  20400801      subcs	r0, r0, r1, lsl #16
0xf67f04dc:  e1500781      cmp	r0, r1, lsl #15
0xf67f04e0:  e0a22002      adc	r2, r2, r2
0xf67f04e4:  20400781      subcs	r0, r0, r1, lsl #15
0xf67f04e8:  e1500701      cmp	r0, r1, lsl #14
0xf67f04ec:  e0a22002      adc	r2, r2, r2
0xf67f04f0:  20400701      subcs	r0, r0, r1, lsl #14
0xf67f04f4:  e1500681      cmp	r0, r1, lsl #13
0xf67f04f8:  e0a22002      adc	r2, r2, r2
0xf67f04fc:  20400681      subcs	r0, r0, r1, lsl #13

----------------
IN: 
0xf67f0500:  e1500601      cmp	r0, r1, lsl #12
0xf67f0504:  e0a22002      adc	r2, r2, r2
0xf67f0508:  20400601      subcs	r0, r0, r1, lsl #12
0xf67f050c:  e1500581      cmp	r0, r1, lsl #11
0xf67f0510:  e0a22002      adc	r2, r2, r2
0xf67f0514:  20400581      subcs	r0, r0, r1, lsl #11
0xf67f0518:  e1500501      cmp	r0, r1, lsl #10
0xf67f051c:  e0a22002      adc	r2, r2, r2
0xf67f0520:  20400501      subcs	r0, r0, r1, lsl #10
0xf67f0524:  e1500481      cmp	r0, r1, lsl #9
0xf67f0528:  e0a22002      adc	r2, r2, r2
0xf67f052c:  20400481      subcs	r0, r0, r1, lsl #9
0xf67f0530:  e1500401      cmp	r0, r1, lsl #8
0xf67f0534:  e0a22002      adc	r2, r2, r2
0xf67f0538:  20400401      subcs	r0, r0, r1, lsl #8
0xf67f053c:  e1500381      cmp	r0, r1, lsl #7
0xf67f0540:  e0a22002      adc	r2, r2, r2
0xf67f0544:  20400381      subcs	r0, r0, r1, lsl #7
0xf67f0548:  e1500301      cmp	r0, r1, lsl #6
0xf67f054c:  e0a22002      adc	r2, r2, r2
0xf67f0550:  20400301      subcs	r0, r0, r1, lsl #6
0xf67f0554:  e1500281      cmp	r0, r1, lsl #5
0xf67f0558:  e0a22002      adc	r2, r2, r2
0xf67f055c:  20400281      subcs	r0, r0, r1, lsl #5
0xf67f0560:  e1500201      cmp	r0, r1, lsl #4
0xf67f0564:  e0a22002      adc	r2, r2, r2
0xf67f0568:  20400201      subcs	r0, r0, r1, lsl #4
0xf67f056c:  e1500181      cmp	r0, r1, lsl #3
0xf67f0570:  e0a22002      adc	r2, r2, r2
0xf67f0574:  20400181      subcs	r0, r0, r1, lsl #3
0xf67f0578:  e1500101      cmp	r0, r1, lsl #2
0xf67f057c:  e0a22002      adc	r2, r2, r2
0xf67f0580:  20400101      subcs	r0, r0, r1, lsl #2
0xf67f0584:  e1500081      cmp	r0, r1, lsl #1
0xf67f0588:  e0a22002      adc	r2, r2, r2
0xf67f058c:  20400081      subcs	r0, r0, r1, lsl #1
0xf67f0590:  e1500001      cmp	r0, r1
0xf67f0594:  e0a22002      adc	r2, r2, r2
0xf67f0598:  20400001      subcs	r0, r0, r1
0xf67f059c:  e1a00002      mov	r0, r2
0xf67f05a0:  e12fff1e      bx	lr

----------------
IN: 
0xf67df954:  e5953000      ldr	r3, [r5]
0xf67df958:  e594001c      ldr	r0, [r4, #28]
0xf67df95c:  e5941018      ldr	r1, [r4, #24]
0xf67df960:  e0800003      add	r0, r0, r3
0xf67df964:  eb003efc      bl	0xf67ef55c

----------------
IN: 
0xf67df968:  e3500000      cmp	r0, #0	; 0x0
0xf67df96c:  1a00002d      bne	0xf67dfa28

----------------
IN: 
0xf67f04a0:  e1500a01      cmp	r0, r1, lsl #20
0xf67f04a4:  e0a22002      adc	r2, r2, r2
0xf67f04a8:  20400a01      subcs	r0, r0, r1, lsl #20
0xf67f04ac:  e1500981      cmp	r0, r1, lsl #19
0xf67f04b0:  e0a22002      adc	r2, r2, r2
0xf67f04b4:  20400981      subcs	r0, r0, r1, lsl #19
0xf67f04b8:  e1500901      cmp	r0, r1, lsl #18
0xf67f04bc:  e0a22002      adc	r2, r2, r2
0xf67f04c0:  20400901      subcs	r0, r0, r1, lsl #18
0xf67f04c4:  e1500881      cmp	r0, r1, lsl #17
0xf67f04c8:  e0a22002      adc	r2, r2, r2
0xf67f04cc:  20400881      subcs	r0, r0, r1, lsl #17
0xf67f04d0:  e1500801      cmp	r0, r1, lsl #16
0xf67f04d4:  e0a22002      adc	r2, r2, r2
0xf67f04d8:  20400801      subcs	r0, r0, r1, lsl #16
0xf67f04dc:  e1500781      cmp	r0, r1, lsl #15
0xf67f04e0:  e0a22002      adc	r2, r2, r2
0xf67f04e4:  20400781      subcs	r0, r0, r1, lsl #15
0xf67f04e8:  e1500701      cmp	r0, r1, lsl #14
0xf67f04ec:  e0a22002      adc	r2, r2, r2
0xf67f04f0:  20400701      subcs	r0, r0, r1, lsl #14
0xf67f04f4:  e1500681      cmp	r0, r1, lsl #13
0xf67f04f8:  e0a22002      adc	r2, r2, r2
0xf67f04fc:  20400681      subcs	r0, r0, r1, lsl #13
0xf67f0500:  e1500601      cmp	r0, r1, lsl #12
0xf67f0504:  e0a22002      adc	r2, r2, r2
0xf67f0508:  20400601      subcs	r0, r0, r1, lsl #12
0xf67f050c:  e1500581      cmp	r0, r1, lsl #11
0xf67f0510:  e0a22002      adc	r2, r2, r2
0xf67f0514:  20400581      subcs	r0, r0, r1, lsl #11
0xf67f0518:  e1500501      cmp	r0, r1, lsl #10
0xf67f051c:  e0a22002      adc	r2, r2, r2
0xf67f0520:  20400501      subcs	r0, r0, r1, lsl #10
0xf67f0524:  e1500481      cmp	r0, r1, lsl #9
0xf67f0528:  e0a22002      adc	r2, r2, r2
0xf67f052c:  20400481      subcs	r0, r0, r1, lsl #9
0xf67f0530:  e1500401      cmp	r0, r1, lsl #8
0xf67f0534:  e0a22002      adc	r2, r2, r2
0xf67f0538:  20400401      subcs	r0, r0, r1, lsl #8
0xf67f053c:  e1500381      cmp	r0, r1, lsl #7
0xf67f0540:  e0a22002      adc	r2, r2, r2
0xf67f0544:  20400381      subcs	r0, r0, r1, lsl #7
0xf67f0548:  e1500301      cmp	r0, r1, lsl #6
0xf67f054c:  e0a22002      adc	r2, r2, r2
0xf67f0550:  20400301      subcs	r0, r0, r1, lsl #6

----------------
IN: 
0xf67f0554:  e1500281      cmp	r0, r1, lsl #5
0xf67f0558:  e0a22002      adc	r2, r2, r2
0xf67f055c:  20400281      subcs	r0, r0, r1, lsl #5
0xf67f0560:  e1500201      cmp	r0, r1, lsl #4
0xf67f0564:  e0a22002      adc	r2, r2, r2
0xf67f0568:  20400201      subcs	r0, r0, r1, lsl #4
0xf67f056c:  e1500181      cmp	r0, r1, lsl #3
0xf67f0570:  e0a22002      adc	r2, r2, r2
0xf67f0574:  20400181      subcs	r0, r0, r1, lsl #3
0xf67f0578:  e1500101      cmp	r0, r1, lsl #2
0xf67f057c:  e0a22002      adc	r2, r2, r2
0xf67f0580:  20400101      subcs	r0, r0, r1, lsl #2
0xf67f0584:  e1500081      cmp	r0, r1, lsl #1
0xf67f0588:  e0a22002      adc	r2, r2, r2
0xf67f058c:  20400081      subcs	r0, r0, r1, lsl #1
0xf67f0590:  e1500001      cmp	r0, r1
0xf67f0594:  e0a22002      adc	r2, r2, r2
0xf67f0598:  20400001      subcs	r0, r0, r1
0xf67f059c:  e1a00002      mov	r0, r2
0xf67f05a0:  e12fff1e      bx	lr

----------------
IN: 
0xf67dfc38:  e3a00000      mov	r0, #0	; 0x0
0xf67dfc3c:  e28dd054      add	sp, sp, #84	; 0x54
0xf67dfc40:  e8bd8ff0      pop	{r4, r5, r6, r7, r8, r9, sl, fp, pc}

----------------
IN: 
0xf67e0484:  1a000074      bne	0xf67e065c

----------------
IN: 
0xf67e0488:  e5b42004      ldr	r2, [r4, #4]!
0xf67e048c:  e3520000      cmp	r2, #0	; 0x0
0xf67e0490:  0a000013      beq	0xf67e04e4

----------------
IN: 
0xf67e1088:  e5983000      ldr	r3, [r8]
0xf67e108c:  e3530000      cmp	r3, #0	; 0x0
0xf67e1090:  0a000003      beq	0xf67e10a4

----------------
IN: 
0xf67e1094:  e5d3300c      ldrb	r3, [r3, #12]
0xf67e1098:  e1a03223      lsr	r3, r3, #4
0xf67e109c:  e3530002      cmp	r3, #2	; 0x2
0xf67e10a0:  0a000002      beq	0xf67e10b0

----------------
IN: 
0xf67e10b0:  e3a00000      mov	r0, #0	; 0x0
0xf67e10b4:  e5880000      str	r0, [r8]
0xf67e10b8:  eafffd27      b	0xf67e055c

----------------
IN: 
0xf67e055c:  e24bd020      sub	sp, fp, #32	; 0x20
0xf67e0560:  e8bd8ff0      pop	{r4, r5, r6, r7, r8, r9, sl, fp, pc}

----------------
IN: 
0xf67e25c4:  e3520000      cmp	r2, #0	; 0x0
0xf67e25c8:  e1a0c003      mov	ip, r3
0xf67e25cc:  1affff8b      bne	0xf67e2400

----------------
IN: 
0xf67e25d0:  e3590012      cmp	r9, #18	; 0x12
0xf67e25d4:  1affff8f      bne	0xf67e2418

----------------
IN: 
0xf67f0464:  e1500c81      cmp	r0, r1, lsl #25
0xf67f0468:  e0a22002      adc	r2, r2, r2
0xf67f046c:  20400c81      subcs	r0, r0, r1, lsl #25
0xf67f0470:  e1500c01      cmp	r0, r1, lsl #24
0xf67f0474:  e0a22002      adc	r2, r2, r2
0xf67f0478:  20400c01      subcs	r0, r0, r1, lsl #24
0xf67f047c:  e1500b81      cmp	r0, r1, lsl #23
0xf67f0480:  e0a22002      adc	r2, r2, r2
0xf67f0484:  20400b81      subcs	r0, r0, r1, lsl #23
0xf67f0488:  e1500b01      cmp	r0, r1, lsl #22
0xf67f048c:  e0a22002      adc	r2, r2, r2
0xf67f0490:  20400b01      subcs	r0, r0, r1, lsl #22
0xf67f0494:  e1500a81      cmp	r0, r1, lsl #21
0xf67f0498:  e0a22002      adc	r2, r2, r2
0xf67f049c:  20400a81      subcs	r0, r0, r1, lsl #21
0xf67f04a0:  e1500a01      cmp	r0, r1, lsl #20
0xf67f04a4:  e0a22002      adc	r2, r2, r2
0xf67f04a8:  20400a01      subcs	r0, r0, r1, lsl #20
0xf67f04ac:  e1500981      cmp	r0, r1, lsl #19
0xf67f04b0:  e0a22002      adc	r2, r2, r2
0xf67f04b4:  20400981      subcs	r0, r0, r1, lsl #19
0xf67f04b8:  e1500901      cmp	r0, r1, lsl #18
0xf67f04bc:  e0a22002      adc	r2, r2, r2
0xf67f04c0:  20400901      subcs	r0, r0, r1, lsl #18
0xf67f04c4:  e1500881      cmp	r0, r1, lsl #17
0xf67f04c8:  e0a22002      adc	r2, r2, r2
0xf67f04cc:  20400881      subcs	r0, r0, r1, lsl #17
0xf67f04d0:  e1500801      cmp	r0, r1, lsl #16
0xf67f04d4:  e0a22002      adc	r2, r2, r2
0xf67f04d8:  20400801      subcs	r0, r0, r1, lsl #16
0xf67f04dc:  e1500781      cmp	r0, r1, lsl #15
0xf67f04e0:  e0a22002      adc	r2, r2, r2
0xf67f04e4:  20400781      subcs	r0, r0, r1, lsl #15
0xf67f04e8:  e1500701      cmp	r0, r1, lsl #14
0xf67f04ec:  e0a22002      adc	r2, r2, r2
0xf67f04f0:  20400701      subcs	r0, r0, r1, lsl #14
0xf67f04f4:  e1500681      cmp	r0, r1, lsl #13
0xf67f04f8:  e0a22002      adc	r2, r2, r2
0xf67f04fc:  20400681      subcs	r0, r0, r1, lsl #13
0xf67f0500:  e1500601      cmp	r0, r1, lsl #12
0xf67f0504:  e0a22002      adc	r2, r2, r2
0xf67f0508:  20400601      subcs	r0, r0, r1, lsl #12
0xf67f050c:  e1500581      cmp	r0, r1, lsl #11
0xf67f0510:  e0a22002      adc	r2, r2, r2
0xf67f0514:  20400581      subcs	r0, r0, r1, lsl #11

----------------
IN: 
0xf67f0518:  e1500501      cmp	r0, r1, lsl #10
0xf67f051c:  e0a22002      adc	r2, r2, r2
0xf67f0520:  20400501      subcs	r0, r0, r1, lsl #10
0xf67f0524:  e1500481      cmp	r0, r1, lsl #9
0xf67f0528:  e0a22002      adc	r2, r2, r2
0xf67f052c:  20400481      subcs	r0, r0, r1, lsl #9
0xf67f0530:  e1500401      cmp	r0, r1, lsl #8
0xf67f0534:  e0a22002      adc	r2, r2, r2
0xf67f0538:  20400401      subcs	r0, r0, r1, lsl #8
0xf67f053c:  e1500381      cmp	r0, r1, lsl #7
0xf67f0540:  e0a22002      adc	r2, r2, r2
0xf67f0544:  20400381      subcs	r0, r0, r1, lsl #7
0xf67f0548:  e1500301      cmp	r0, r1, lsl #6
0xf67f054c:  e0a22002      adc	r2, r2, r2
0xf67f0550:  20400301      subcs	r0, r0, r1, lsl #6
0xf67f0554:  e1500281      cmp	r0, r1, lsl #5
0xf67f0558:  e0a22002      adc	r2, r2, r2
0xf67f055c:  20400281      subcs	r0, r0, r1, lsl #5
0xf67f0560:  e1500201      cmp	r0, r1, lsl #4
0xf67f0564:  e0a22002      adc	r2, r2, r2
0xf67f0568:  20400201      subcs	r0, r0, r1, lsl #4
0xf67f056c:  e1500181      cmp	r0, r1, lsl #3
0xf67f0570:  e0a22002      adc	r2, r2, r2
0xf67f0574:  20400181      subcs	r0, r0, r1, lsl #3
0xf67f0578:  e1500101      cmp	r0, r1, lsl #2
0xf67f057c:  e0a22002      adc	r2, r2, r2
0xf67f0580:  20400101      subcs	r0, r0, r1, lsl #2
0xf67f0584:  e1500081      cmp	r0, r1, lsl #1
0xf67f0588:  e0a22002      adc	r2, r2, r2
0xf67f058c:  20400081      subcs	r0, r0, r1, lsl #1
0xf67f0590:  e1500001      cmp	r0, r1
0xf67f0594:  e0a22002      adc	r2, r2, r2
0xf67f0598:  20400001      subcs	r0, r0, r1
0xf67f059c:  e1a00002      mov	r0, r2
0xf67f05a0:  e12fff1e      bx	lr

----------------
IN: 
0xf67e3664:  e3590016      cmp	r9, #22	; 0x16
0xf67e3668:  13510002      cmpne	r1, #2	; 0x2
0xf67e366c:  8249000d      subhi	r0, r9, #13	; 0xd
0xf67e3670:  816f0f10      clzhi	r0, r0
0xf67e3674:  93a00001      movls	r0, #1	; 0x1
0xf67e3678:  81a002a0      lsrhi	r0, r0, #5
0xf67e367c:  93a01001      movls	r1, #1	; 0x1
0xf67e3680:  83a01000      movhi	r1, #0	; 0x0
0xf67e3684:  e3590014      cmp	r9, #20	; 0x14
0xf67e3688:  03a0c002      moveq	ip, #2	; 0x2
0xf67e368c:  13a0c000      movne	ip, #0	; 0x0
0xf67e3690:  e59ae21c      ldr	lr, [sl, #540]
0xf67e3694:  e18c0000      orr	r0, ip, r0
0xf67e3698:  e150000e      cmp	r0, lr
0xf67e369c:  1afffb2f      bne	0xf67e2360

----------------
IN: 
0xf67e36a0:  e51f38f0      ldr	r3, [pc, #-2288]	; 0xf67e2db8
0xf67e36a4:  e59a2224      ldr	r2, [sl, #548]
0xf67e36a8:  e08f3003      add	r3, pc, r3
0xf67e36ac:  e593150c      ldr	r1, [r3, #1292]
0xf67e36b0:  e50b2050      str	r2, [fp, #-80]
0xf67e36b4:  e2811001      add	r1, r1, #1	; 0x1
0xf67e36b8:  e583150c      str	r1, [r3, #1292]
0xf67e36bc:  e59a3220      ldr	r3, [sl, #544]
0xf67e36c0:  eafffb49      b	0xf67e23ec

----------------
IN: 
0xf67e23ec:  e3530000      cmp	r3, #0	; 0x0
0xf67e23f0:  0a000073      beq	0xf67e25c4

----------------
IN: 
0xf67e289c:  eafffd99      b	0xf67e1f08

----------------
IN: 
0xf67e1f08:  e59a7000      ldr	r7, [sl]
0xf67e1f0c:  e51bc064      ldr	ip, [fp, #-100]
0xf67e1f10:  e51b0090      ldr	r0, [fp, #-144]
0xf67e1f14:  e15c0000      cmp	ip, r0
0xf67e1f18:  1a0002b4      bne	0xf67e29f0

----------------
IN: 
0xf67e29f0:  e51bc064      ldr	ip, [fp, #-100]
0xf67e29f4:  e59c3010      ldr	r3, [ip, #16]
0xf67e29f8:  e59c4014      ldr	r4, [ip, #20]
0xf67e29fc:  e59c201c      ldr	r2, [ip, #28]
0xf67e2a00:  e28cc010      add	ip, ip, #16	; 0x10
0xf67e2a04:  e50bc064      str	ip, [fp, #-100]
0xf67e2a08:  eafffd27      b	0xf67e1eac

----------------
IN: 
0xf67e1eac:  e51bc064      ldr	ip, [fp, #-100]
0xf67e1eb0:  e3520000      cmp	r2, #0	; 0x0
0xf67e1eb4:  e0844003      add	r4, r4, r3
0xf67e1eb8:  e59c5008      ldr	r5, [ip, #8]
0xf67e1ebc:  e1a01003      mov	r1, r3
0xf67e1ec0:  e1a02007      mov	r2, r7
0xf67e1ec4:  0a0000ec      beq	0xf67e227c

----------------
IN: 
0xf67e1ec8:  e1530004      cmp	r3, r4
0xf67e1ecc:  32833008      addcc	r3, r3, #8	; 0x8
0xf67e1ed0:  2a00000d      bcs	0xf67e1f0c

----------------
IN: 
0xf67e1ed4:  e5531004      ldrb	r1, [r3, #-4]
0xf67e1ed8:  e5130008      ldr	r0, [r3, #-8]
0xf67e1edc:  e3510016      cmp	r1, #22	; 0x16
0xf67e1ee0:  e082c000      add	ip, r2, r0
0xf67e1ee4:  1a0004d8      bne	0xf67e324c

----------------
IN: 
0xf67e1ee8:  e59a1210      ldr	r1, [sl, #528]
0xf67e1eec:  e3510000      cmp	r1, #0	; 0x0
0xf67e1ef0:  07921000      ldreq	r1, [r2, r0]
0xf67e1ef4:  00811002      addeq	r1, r1, r2
0xf67e1ef8:  e7821000      str	r1, [r2, r0]
0xf67e1efc:  e1540003      cmp	r4, r3
0xf67e1f00:  e2833008      add	r3, r3, #8	; 0x8
0xf67e1f04:  8afffff2      bhi	0xf67e1ed4

----------------
IN: 
0xf67e1f1c:  e3a03000      mov	r3, #0	; 0x0
0xf67e1f20:  e59a203c      ldr	r2, [sl, #60]
0xf67e1f24:  e50b3044      str	r3, [fp, #-68]
0xf67e1f28:  e1520003      cmp	r2, r3
0xf67e1f2c:  e50b3040      str	r3, [fp, #-64]
0xf67e1f30:  e50b303c      str	r3, [fp, #-60]
0xf67e1f34:  e50b3038      str	r3, [fp, #-56]
0xf67e1f38:  e50b3034      str	r3, [fp, #-52]
0xf67e1f3c:  e50b3030      str	r3, [fp, #-48]
0xf67e1f40:  e50b302c      str	r3, [fp, #-44]
0xf67e1f44:  e50b3028      str	r3, [fp, #-40]
0xf67e1f48:  0a0002c2      beq	0xf67e2a58

----------------
IN: 
0xf67e2a58:  e1a09002      mov	r9, r2
0xf67e2a5c:  e1a03002      mov	r3, r2
0xf67e2a60:  eafffd4a      b	0xf67e1f90

----------------
IN: 
0xf67e1f90:  e59a1070      ldr	r1, [sl, #112]
0xf67e1f94:  e3510000      cmp	r1, #0	; 0x0
0xf67e1f98:  0a000002      beq	0xf67e1fa8

----------------
IN: 
0xf67e1f9c:  e5911004      ldr	r1, [r1, #4]
0xf67e1fa0:  e3510007      cmp	r1, #7	; 0x7
0xf67e1fa4:  0a00029b      beq	0xf67e2a18

----------------
IN: 
0xf67e1fa8:  e24bc044      sub	ip, fp, #68	; 0x44
0xf67e1fac:  e50bc080      str	ip, [fp, #-128]
0xf67e1fb0:  e59fcd44      ldr	ip, [pc, #3396]	; 0xf67e2cfc
0xf67e1fb4:  e59f2d44      ldr	r2, [pc, #3396]	; 0xf67e2d00
0xf67e1fb8:  e08fc00c      add	ip, pc, ip
0xf67e1fbc:  e50bc070      str	ip, [fp, #-112]
0xf67e1fc0:  e59fcd3c      ldr	ip, [pc, #3388]	; 0xf67e2d04
0xf67e1fc4:  e08f2002      add	r2, pc, r2
0xf67e1fc8:  e08fc00c      add	ip, pc, ip
0xf67e1fcc:  e50bc074      str	ip, [fp, #-116]
0xf67e1fd0:  e59fcd30      ldr	ip, [pc, #3376]	; 0xf67e2d08
0xf67e1fd4:  e2822e51      add	r2, r2, #1296	; 0x510
0xf67e1fd8:  e08fc00c      add	ip, pc, ip
0xf67e1fdc:  e50bc07c      str	ip, [fp, #-124]
0xf67e1fe0:  e59fcd24      ldr	ip, [pc, #3364]	; 0xf67e2d0c
0xf67e1fe4:  e2822008      add	r2, r2, #8	; 0x8
0xf67e1fe8:  e08fc00c      add	ip, pc, ip
0xf67e1fec:  e50bc084      str	ip, [fp, #-132]
0xf67e1ff0:  e59fcd18      ldr	ip, [pc, #3352]	; 0xf67e2d10
0xf67e1ff4:  e50b2064      str	r2, [fp, #-100]
0xf67e1ff8:  e08fc00c      add	ip, pc, ip
0xf67e1ffc:  e50bc088      str	ip, [fp, #-136]

----------------
IN: 
0xf67e2000:  e51bc080      ldr	ip, [fp, #-128]
0xf67e2004:  e59a2038      ldr	r2, [sl, #56]
0xf67e2008:  e59c4008      ldr	r4, [ip, #8]
0xf67e200c:  e51bc064      ldr	ip, [fp, #-100]
0xf67e2010:  e0844084      add	r4, r4, r4, lsl #1
0xf67e2014:  e15a000c      cmp	sl, ip
0xf67e2018:  e0899003      add	r9, r9, r3
0xf67e201c:  e592c004      ldr	ip, [r2, #4]
0xf67e2020:  e50b9058      str	r9, [fp, #-88]
0xf67e2024:  e0834104      add	r4, r3, r4, lsl #2
0xf67e2028:  e1a02003      mov	r2, r3
0xf67e202c:  0a00000a      beq	0xf67e205c

----------------
IN: 
0xf67e2030:  e3570000      cmp	r7, #0	; 0x0
0xf67e2034:  0a000258      beq	0xf67e299c

----------------
IN: 
0xf67e2038:  e1530004      cmp	r3, r4
0xf67e203c:  2a000006      bcs	0xf67e205c

----------------
IN: 
0xf67e205c:  e59a30e4      ldr	r3, [sl, #228]
0xf67e2060:  e3530000      cmp	r3, #0	; 0x0
0xf67e2064:  0a000388      beq	0xf67e2e8c

----------------
IN: 
0xf67e2068:  e51b1058      ldr	r1, [fp, #-88]
0xf67e206c:  e5933004      ldr	r3, [r3, #4]
0xf67e2070:  e1510004      cmp	r1, r4
0xf67e2074:  e50b305c      str	r3, [fp, #-92]
0xf67e2078:  9a00005e      bls	0xf67e21f8

----------------
IN: 
0xf67e21f8:  e51bc080      ldr	ip, [fp, #-128]
0xf67e21fc:  e51b0090      ldr	r0, [fp, #-144]
0xf67e2200:  e15c0000      cmp	ip, r0
0xf67e2204:  1a00056b      bne	0xf67e37b8

----------------
IN: 
0xf67e37b8:  e51bc080      ldr	ip, [fp, #-128]
0xf67e37bc:  e59a7000      ldr	r7, [sl]
0xf67e37c0:  e59c3010      ldr	r3, [ip, #16]
0xf67e37c4:  e59c9014      ldr	r9, [ip, #20]
0xf67e37c8:  e28cc010      add	ip, ip, #16	; 0x10
0xf67e37cc:  e50bc080      str	ip, [fp, #-128]
0xf67e37d0:  eafffa0a      b	0xf67e2000

----------------
IN: 
0xf67e2208:  e51bc06c      ldr	ip, [fp, #-108]
0xf67e220c:  e35c0000      cmp	ip, #0	; 0x0
0xf67e2210:  1a00054f      bne	0xf67e3754

----------------
IN: 
0xf67e2214:  e5da3194      ldrb	r3, [sl, #404]
0xf67e2218:  e51bc094      ldr	ip, [fp, #-148]
0xf67e221c:  e3833004      orr	r3, r3, #4	; 0x4
0xf67e2220:  e35c0000      cmp	ip, #0	; 0x0
0xf67e2224:  e5ca3194      strb	r3, [sl, #404]
0xf67e2228:  11a0400c      movne	r4, ip
0xf67e222c:  1a0004cf      bne	0xf67e3570

----------------
IN: 
0xf67e2230:  e59a324c      ldr	r3, [sl, #588]
0xf67e2234:  e3530000      cmp	r3, #0	; 0x0
0xf67e2238:  0a000001      beq	0xf67e2244

----------------
IN: 
0xf67e223c:  e1a0000a      mov	r0, sl
0xf67e2240:  ebfffe70      bl	0xf67e1c08

----------------
IN: 
0xf67e1c08:  e92d4010      push	{r4, lr}
0xf67e1c0c:  e1a04000      mov	r4, r0
0xf67e1c10:  e59f0060      ldr	r0, [pc, #96]	; 0xf67e1c78
0xf67e1c14:  e5942248      ldr	r2, [r4, #584]
0xf67e1c18:  e08f0000      add	r0, pc, r0
0xf67e1c1c:  e5943000      ldr	r3, [r4]
0xf67e1c20:  e594124c      ldr	r1, [r4, #588]
0xf67e1c24:  e5900010      ldr	r0, [r0, #16]
0xf67e1c28:  e0823003      add	r3, r2, r3
0xf67e1c2c:  e2600000      rsb	r0, r0, #0	; 0x0
0xf67e1c30:  e0831001      add	r1, r3, r1
0xf67e1c34:  e0011000      and	r1, r1, r0
0xf67e1c38:  e0000003      and	r0, r0, r3
0xf67e1c3c:  e1500001      cmp	r0, r1
0xf67e1c40:  08bd8010      popeq	{r4, pc}

----------------
IN: 
0xf67e1c44:  e3a02001      mov	r2, #1	; 0x1
0xf67e1c48:  e0601001      rsb	r1, r0, r1
0xf67e1c4c:  eb00351b      bl	0xf67ef0c0

----------------
IN: 
0xf67e1c50:  e3500000      cmp	r0, #0	; 0x0
0xf67e1c54:  a8bd8010      popge	{r4, pc}

----------------
IN: 
0xf67e2244:  e24bd020      sub	sp, fp, #32	; 0x20
0xf67e2248:  e8bd8ff0      pop	{r4, r5, r6, r7, r8, r9, sl, fp, pc}

----------------
IN: 
0xf67d9498:  e51bc060      ldr	ip, [fp, #-96]
0xf67d949c:  e5dc3008      ldrb	r3, [ip, #8]
0xf67d94a0:  e3530000      cmp	r3, #0	; 0x0
0xf67d94a4:  1a000031      bne	0xf67d9570

----------------
IN: 
0xf67d9570:  e1a00004      mov	r0, r4
0xf67d9574:  eb003fa8      bl	0xf67e941c

----------------
IN: 
0xf67e941c:  e59f30e8      ldr	r3, [pc, #232]	; 0xf67e950c
0xf67e9420:  e92d4070      push	{r4, r5, r6, lr}
0xf67e9424:  e08f3003      add	r3, pc, r3
0xf67e9428:  e1a06000      mov	r6, r0
0xf67e942c:  e5904240      ldr	r4, [r0, #576]
0xf67e9430:  e5935808      ldr	r5, [r3, #2056]
0xf67e9434:  ea000004      b	0xf67e944c

----------------
IN: 
0xf67e944c:  e5953000      ldr	r3, [r5]
0xf67e9450:  e1540003      cmp	r4, r3
0xf67e9454:  2afffff7      bcs	0xf67e9438

----------------
IN: 
0xf67e9458:  e59f30b0      ldr	r3, [pc, #176]	; 0xf67e9510
0xf67e945c:  e0854184      add	r4, r5, r4, lsl #3
0xf67e9460:  e08f3003      add	r3, pc, r3
0xf67e9464:  e584600c      str	r6, [r4, #12]
0xf67e9468:  e5933820      ldr	r3, [r3, #2080]
0xf67e946c:  e2833001      add	r3, r3, #1	; 0x1
0xf67e9470:  e5843008      str	r3, [r4, #8]
0xf67e9474:  e8bd8070      pop	{r4, r5, r6, pc}

----------------
IN: 
0xf67d9578:  eaffffca      b	0xf67d94a8

----------------
IN: 
0xf67e1e10:  e59a1070      ldr	r1, [sl, #112]
0xf67e1e14:  e3510000      cmp	r1, #0	; 0x0
0xf67e1e18:  0a000002      beq	0xf67e1e28

----------------
IN: 
0xf67e2830:  eafffdb4      b	0xf67e1f08

----------------
IN: 
0xf67e299c:  e59a111c      ldr	r1, [sl, #284]
0xf67e29a0:  e3510000      cmp	r1, #0	; 0x0
0xf67e29a4:  1afffdac      bne	0xf67e205c

----------------
IN: 
0xf67e29a8:  eafffda2      b	0xf67e2038

----------------
IN: 
0xf67d94bc:  e59f3e8c      ldr	r3, [pc, #3724]	; 0xf67da350
0xf67d94c0:  e08f3003      add	r3, pc, r3
0xf67d94c4:  e5933504      ldr	r3, [r3, #1284]
0xf67d94c8:  e3530000      cmp	r3, #0	; 0x0
0xf67d94cc:  0a000000      beq	0xf67d94d4

----------------
IN: 
0xf67d94d4:  e51b6058      ldr	r6, [fp, #-88]
0xf67d94d8:  e3560000      cmp	r6, #0	; 0x0
0xf67d94dc:  1a000006      bne	0xf67d94fc

----------------
IN: 
0xf67d94e0:  e59f3e6c      ldr	r3, [pc, #3692]	; 0xf67da354
0xf67d94e4:  e08f3003      add	r3, pc, r3
0xf67d94e8:  e5932804      ldr	r2, [r3, #2052]
0xf67d94ec:  e3520000      cmp	r2, #0	; 0x0
0xf67d94f0:  15932820      ldrne	r2, [r3, #2080]
0xf67d94f4:  12822001      addne	r2, r2, #1	; 0x1
0xf67d94f8:  15832820      strne	r2, [r3, #2080]
0xf67d94fc:  e51b0054      ldr	r0, [fp, #-84]
0xf67d9500:  eb003e1a      bl	0xf67e8d70

----------------
IN: 
0xf67e8d70:  e92d4ff0      push	{r4, r5, r6, r7, r8, r9, sl, fp, lr}
0xf67e8d74:  e3500000      cmp	r0, #0	; 0x0
0xf67e8d78:  e24dd00c      sub	sp, sp, #12	; 0xc
0xf67e8d7c:  e58d0000      str	r0, [sp]
0xf67e8d80:  0a000058      beq	0xf67e8ee8

----------------
IN: 
0xf67e8d84:  e3a07000      mov	r7, #0	; 0x0
0xf67e8d88:  e1a08007      mov	r8, r7
0xf67e8d8c:  e59f21a0      ldr	r2, [pc, #416]	; 0xf67e8f34
0xf67e8d90:  e59f31a0      ldr	r3, [pc, #416]	; 0xf67e8f38
0xf67e8d94:  e08f2002      add	r2, pc, r2
0xf67e8d98:  e59fa19c      ldr	sl, [pc, #412]	; 0xf67e8f3c
0xf67e8d9c:  e5929808      ldr	r9, [r2, #2056]
0xf67e8da0:  e08f3003      add	r3, pc, r3
0xf67e8da4:  e590b000      ldr	fp, [r0]
0xf67e8da8:  e5922804      ldr	r2, [r2, #2052]
0xf67e8dac:  e08fa00a      add	sl, pc, sl
0xf67e8db0:  e58d3004      str	r3, [sp, #4]
0xf67e8db4:  e16f5f18      clz	r5, r8
0xf67e8db8:  e5990000      ldr	r0, [r9]
0xf67e8dbc:  e1a052a5      lsr	r5, r5, #5
0xf67e8dc0:  e1550000      cmp	r5, r0
0xf67e8dc4:  2a000038      bcs	0xf67e8eac

----------------
IN: 
0xf67e8dc8:  e0851008      add	r1, r5, r8
0xf67e8dcc:  e1510002      cmp	r1, r2
0xf67e8dd0:  8a000043      bhi	0xf67e8ee4

----------------
IN: 
0xf67e8dd4:  e2856001      add	r6, r5, #1	; 0x1
0xf67e8dd8:  e0896186      add	r6, r9, r6, lsl #3
0xf67e8ddc:  e2866004      add	r6, r6, #4	; 0x4
0xf67e8de0:  ea00001b      b	0xf67e8e54

----------------
IN: 
0xf67e8e54:  e5964000      ldr	r4, [r6]
0xf67e8e58:  e3540000      cmp	r4, #0	; 0x0
0xf67e8e5c:  0afffff4      beq	0xf67e8e34

----------------
IN: 
0xf67e8e60:  e5163004      ldr	r3, [r6, #-4]
0xf67e8e64:  e594023c      ldr	r0, [r4, #572]
0xf67e8e68:  e1570003      cmp	r7, r3
0xf67e8e6c:  e2802001      add	r2, r0, #1	; 0x1
0xf67e8e70:  31a07003      movcc	r7, r3
0xf67e8e74:  e3520001      cmp	r2, #1	; 0x1
0xf67e8e78:  e5943240      ldr	r3, [r4, #576]
0xf67e8e7c:  8affffd8      bhi	0xf67e8de4

----------------
IN: 
0xf67e8de4:  e1530005      cmp	r3, r5
0xf67e8de8:  1a000041      bne	0xf67e8ef4

----------------
IN: 
0xf67e8dec:  e594222c      ldr	r2, [r4, #556]
0xf67e8df0:  e5943230      ldr	r3, [r4, #560]
0xf67e8df4:  e1530002      cmp	r3, r2
0xf67e8df8:  3a000045      bcc	0xf67e8f14

----------------
IN: 
0xf67e8dfc:  e3a01001      mov	r1, #1	; 0x1
0xf67e8e00:  e59d3000      ldr	r3, [sp]
0xf67e8e04:  e0830000      add	r0, r3, r0
0xf67e8e08:  e08b3185      add	r3, fp, r5, lsl #3
0xf67e8e0c:  e78b0185      str	r0, [fp, r5, lsl #3]
0xf67e8e10:  e5c31004      strb	r1, [r3, #4]
0xf67e8e14:  e5941228      ldr	r1, [r4, #552]
0xf67e8e18:  eb001c68      bl	0xf67effc0

----------------
IN: 
0xf67e8e1c:  e5942230      ldr	r2, [r4, #560]
0xf67e8e20:  e594322c      ldr	r3, [r4, #556]
0xf67e8e24:  e3a01000      mov	r1, #0	; 0x0
0xf67e8e28:  e0632002      rsb	r2, r3, r2
0xf67e8e2c:  eb001c43      bl	0xf67eff40

----------------
IN: 
0xf67e8e30:  e5990000      ldr	r0, [r9]
0xf67e8e34:  e2855001      add	r5, r5, #1	; 0x1
0xf67e8e38:  e1500005      cmp	r0, r5
0xf67e8e3c:  9a000018      bls	0xf67e8ea4

----------------
IN: 
0xf67e8e40:  e59a2804      ldr	r2, [sl, #2052]
0xf67e8e44:  e0853008      add	r3, r5, r8
0xf67e8e48:  e1520003      cmp	r2, r3
0xf67e8e4c:  e2866008      add	r6, r6, #8	; 0x8
0xf67e8e50:  3a000023      bcc	0xf67e8ee4

----------------
IN: 
0xf67e8ee4:  e58b7000      str	r7, [fp]
0xf67e8ee8:  e59d0000      ldr	r0, [sp]
0xf67e8eec:  e28dd00c      add	sp, sp, #12	; 0xc
0xf67e8ef0:  e8bd8ff0      pop	{r4, r5, r6, r7, r8, r9, sl, fp, pc}

----------------
IN: 
0xf67d9504:  e59f3e4c      ldr	r3, [pc, #3660]	; 0xf67da358
0xf67d9508:  e08f3003      add	r3, pc, r3
0xf67d950c:  e5d33008      ldrb	r3, [r3, #8]
0xf67d9510:  e3530000      cmp	r3, #0	; 0x0
0xf67d9514:  1a000021      bne	0xf67d95a0

----------------
IN: 
0xf67d95a0:  e59f3dcc      ldr	r3, [pc, #3532]	; 0xf67da374
0xf67d95a4:  e59fcdcc      ldr	ip, [pc, #3532]	; 0xf67da378
0xf67d95a8:  e08f3003      add	r3, pc, r3
0xf67d95ac:  e08fc00c      add	ip, pc, ip
0xf67d95b0:  e5932130      ldr	r2, [r3, #304]
0xf67d95b4:  e59c3510      ldr	r3, [ip, #1296]
0xf67d95b8:  e1520003      cmp	r2, r3
0xf67d95bc:  1a00001b      bne	0xf67d9630

----------------
IN: 
0xf67d95c0:  e51b8068      ldr	r8, [fp, #-104]
0xf67d95c4:  e2255001      eor	r5, r5, #1	; 0x1
0xf67d95c8:  e1180005      tst	r8, r5
0xf67d95cc:  0a000008      beq	0xf67d95f4

----------------
IN: 
0xf67d95d0:  e3a02000      mov	r2, #0	; 0x0
0xf67d95d4:  e5dce6ac      ldrb	lr, [ip, #1708]
0xf67d95d8:  e28c0e51      add	r0, ip, #1296	; 0x510
0xf67d95dc:  e59a11cc      ldr	r1, [sl, #460]
0xf67d95e0:  e3cee004      bic	lr, lr, #4	; 0x4
0xf67d95e4:  e2800008      add	r0, r0, #8	; 0x8
0xf67d95e8:  e1a03002      mov	r3, r2
0xf67d95ec:  e5cce6ac      strb	lr, [ip, #1708]
0xf67d95f0:  eb0021bf      bl	0xf67e1cf4

----------------
IN: 
0xf67e295c:  e3540000      cmp	r4, #0	; 0x0
0xf67e2960:  10844001      addne	r4, r4, r1
0xf67e2964:  150b4040      strne	r4, [fp, #-64]
0xf67e2968:  1afffd2e      bne	0xf67e1e28

----------------
IN: 
0xf67d95f4:  eb004d8b      bl	0xf67ecc28

----------------
IN: 
0xf67ecc28:  e12fff1e      bx	lr

----------------
IN: 
0xf67d95f8:  e59f3d7c      ldr	r3, [pc, #3452]	; 0xf67da37c
0xf67d95fc:  e08f3003      add	r3, pc, r3
0xf67d9600:  e5932174      ldr	r2, [r3, #372]
0xf67d9604:  e3520000      cmp	r2, #0	; 0x0
0xf67d9608:  1a000010      bne	0xf67d9650

----------------
IN: 
0xf67d960c:  e3a00000      mov	r0, #0	; 0x0
0xf67d9610:  e1a01000      mov	r1, r0
0xf67d9614:  eb00350d      bl	0xf67e6a50

----------------
IN: 
0xf67d9618:  e3a03000      mov	r3, #0	; 0x0
0xf67d961c:  e580300c      str	r3, [r0, #12]
0xf67d9620:  eb003509      bl	0xf67e6a4c

----------------
IN: 
0xf67d9624:  eb004ca4      bl	0xf67ec8bc

----------------
IN: 
0xf67ec8bc:  e92d4010      push	{r4, lr}
0xf67ec8c0:  e59f4024      ldr	r4, [pc, #36]	; 0xf67ec8ec
0xf67ec8c4:  e08f4004      add	r4, pc, r4
0xf67ec8c8:  e5940000      ldr	r0, [r4]
0xf67ec8cc:  e2403001      sub	r3, r0, #1	; 0x1
0xf67ec8d0:  e3730003      cmn	r3, #3	; 0x3
0xf67ec8d4:  88bd8010      pophi	{r4, pc}

----------------
IN: 
0xf67ec8d8:  e5941004      ldr	r1, [r4, #4]
0xf67ec8dc:  eb0009e7      bl	0xf67ef080

----------------
IN: 
0xf67ef080:  e52d7004      push	{r7}		; (str r7, [sp, #-4]!)
0xf67ef084:  e3a0705b      mov	r7, #91	; 0x5b
0xf67ef088:  ef000000      svc	0x00000000

----------------
IN: 
0xf67ef08c:  e49d7004      pop	{r7}		; (ldr r7, [sp], #4)
0xf67ef090:  e3700a01      cmn	r0, #4096	; 0x1000
0xf67ef094:  312fff1e      bxcc	lr

----------------
IN: 
0xf67ec8e0:  e3a03000      mov	r3, #0	; 0x0
0xf67ec8e4:  e5843000      str	r3, [r4]
0xf67ec8e8:  e8bd8010      pop	{r4, pc}

----------------
IN: 
0xf67d9628:  e24bd020      sub	sp, fp, #32	; 0x20
0xf67d962c:  e8bd8ff0      pop	{r4, r5, r6, r7, r8, r9, sl, fp, pc}

----------------
IN: 
0xf67ecb34:  e59d0014      ldr	r0, [sp, #20]
0xf67ecb38:  e28dd01c      add	sp, sp, #28	; 0x1c
0xf67ecb3c:  e8bd8ff0      pop	{r4, r5, r6, r7, r8, r9, sl, fp, pc}

----------------
IN: 
0xf67dac74:  e59f303c      ldr	r3, [pc, #60]	; 0xf67dacb8
0xf67dac78:  e08f3003      add	r3, pc, r3
0xf67dac7c:  e5933000      ldr	r3, [r3]
0xf67dac80:  e3130080      tst	r3, #128	; 0x80
0xf67dac84:  1a000001      bne	0xf67dac90

----------------
IN: 
0xf67dac88:  e24bd014      sub	sp, fp, #20	; 0x14
0xf67dac8c:  e8bd88f0      pop	{r4, r5, r6, r7, fp, pc}

----------------
IN: 
0xf67daf04:  e28ddfa1      add	sp, sp, #644	; 0x284
0xf67daf08:  e8bd8ff0      pop	{r4, r5, r6, r7, r8, r9, sl, fp, pc}

----------------
IN: 
0xf67d6d20:  e28f6084      add	r6, pc, #132	; 0x84
0xf67d6d24:  e08aa006      add	sl, sl, r6
0xf67d6d28:  e79a4004      ldr	r4, [sl, r4]
0xf67d6d2c:  e1a06000      mov	r6, r0
0xf67d6d30:  e59d1000      ldr	r1, [sp]
0xf67d6d34:  e28d2004      add	r2, sp, #4	; 0x4
0xf67d6d38:  e3540000      cmp	r4, #0	; 0x0
0xf67d6d3c:  1a000007      bne	0xf67d6d60

----------------
IN: 
0xf67d6d40:  e0823101      add	r3, r2, r1, lsl #2
0xf67d6d44:  e2833004      add	r3, r3, #4	; 0x4
0xf67d6d48:  e59f006c      ldr	r0, [pc, #108]	; 0xf67d6dbc
0xf67d6d4c:  e79a0000      ldr	r0, [sl, r0]
0xf67d6d50:  eb003d09      bl	0xf67e617c

----------------
IN: 
0xf67e617c:  e92d47f0      push	{r4, r5, r6, r7, r8, r9, sl, lr}
0xf67e6180:  e1a06000      mov	r6, r0
0xf67e6184:  e59f5114      ldr	r5, [pc, #276]	; 0xf67e62a0
0xf67e6188:  e59040a0      ldr	r4, [r0, #160]
0xf67e618c:  e08f5005      add	r5, pc, r5
0xf67e6190:  e5950500      ldr	r0, [r5, #1280]
0xf67e6194:  e596a0a4      ldr	sl, [r6, #164]
0xf67e6198:  e3500000      cmp	r0, #0	; 0x0
0xf67e619c:  e1a07001      mov	r7, r1
0xf67e61a0:  e1a08002      mov	r8, r2
0xf67e61a4:  e1a09003      mov	r9, r3
0xf67e61a8:  1a000011      bne	0xf67e61f4

----------------
IN: 
0xf67e61ac:  e3540000      cmp	r4, #0	; 0x0
0xf67e61b0:  1a000013      bne	0xf67e6204

----------------
IN: 
0xf67e61b4:  e5964160      ldr	r4, [r6, #352]
0xf67e61b8:  e3540000      cmp	r4, #0	; 0x0
0xf67e61bc:  08bd87f0      popeq	{r4, r5, r6, r7, r8, r9, sl, pc}

----------------
IN: 
0xf67e61c0:  e1a05004      mov	r5, r4
0xf67e61c4:  e2444107      sub	r4, r4, #-1073741823	; 0xc0000001
0xf67e61c8:  e1a04104      lsl	r4, r4, #2
0xf67e61cc:  e596c1f0      ldr	ip, [r6, #496]
0xf67e61d0:  e1a01007      mov	r1, r7
0xf67e61d4:  e79c0004      ldr	r0, [ip, r4]
0xf67e61d8:  e1a02008      mov	r2, r8
0xf67e61dc:  e1a03009      mov	r3, r9
0xf67e61e0:  ebffff96      bl	0xf67e6040

----------------
IN: 
0xf67e6040:  e92d43f8      push	{r3, r4, r5, r6, r7, r8, r9, lr}
0xf67e6044:  e1a04000      mov	r4, r0
0xf67e6048:  e5d00194      ldrb	r0, [r0, #404]
0xf67e604c:  e3100008      tst	r0, #8	; 0x8
0xf67e6050:  18bd83f8      popne	{r3, r4, r5, r6, r7, r8, r9, pc}

----------------
IN: 
0xf67e6054:  e1a07002      mov	r7, r2
0xf67e6058:  e3800008      orr	r0, r0, #8	; 0x8
0xf67e605c:  e5942004      ldr	r2, [r4, #4]
0xf67e6060:  e5c40194      strb	r0, [r4, #404]
0xf67e6064:  e1a06001      mov	r6, r1
0xf67e6068:  e5d21000      ldrb	r1, [r2]
0xf67e606c:  e1a08003      mov	r8, r3
0xf67e6070:  e3510000      cmp	r1, #0	; 0x0
0xf67e6074:  0a000029      beq	0xf67e6120

----------------
IN: 
0xf67e6078:  e5943050      ldr	r3, [r4, #80]
0xf67e607c:  e3530000      cmp	r3, #0	; 0x0
0xf67e6080:  0a000022      beq	0xf67e6110

----------------
IN: 
0xf67e6110:  e5940084      ldr	r0, [r4, #132]
0xf67e6114:  e3500000      cmp	r0, #0	; 0x0
0xf67e6118:  08bd83f8      popeq	{r3, r4, r5, r6, r7, r8, r9, pc}

----------------
IN: 
0xf67e61e4:  e2555001      subs	r5, r5, #1	; 0x1
0xf67e61e8:  e2444004      sub	r4, r4, #4	; 0x4
0xf67e61ec:  1afffff6      bne	0xf67e61cc

----------------
IN: 
0xf67e61cc:  e596c1f0      ldr	ip, [r6, #496]
0xf67e61d0:  e1a01007      mov	r1, r7
0xf67e61d4:  e79c0004      ldr	r0, [ip, r4]
0xf67e61d8:  e1a02008      mov	r2, r8
0xf67e61dc:  e1a03009      mov	r3, r9
0xf67e61e0:  ebffff96      bl	0xf67e6040

----------------
IN: 
0xf67e6084:  e59f00e0      ldr	r0, [pc, #224]	; 0xf67e616c
0xf67e6088:  e08f0000      add	r0, pc, r0
0xf67e608c:  e5900000      ldr	r0, [r0]
0xf67e6090:  e3100002      tst	r0, #2	; 0x2
0xf67e6094:  1a000025      bne	0xf67e6130

----------------
IN: 
0xf67e6098:  e3530000      cmp	r3, #0	; 0x0
0xf67e609c:  0a000006      beq	0xf67e60bc

----------------
IN: 
0xf67e60a0:  e5932004      ldr	r2, [r3, #4]
0xf67e60a4:  e5943000      ldr	r3, [r4]
0xf67e60a8:  e1a00006      mov	r0, r6
0xf67e60ac:  e0823003      add	r3, r2, r3
0xf67e60b0:  e1a01007      mov	r1, r7
0xf67e60b4:  e1a02008      mov	r2, r8
0xf67e60b8:  e12fff33      blx	r3

----------------
IN: 
0xf669b054:  e92d4070      push	{r4, r5, r6, lr}
0xf669b058:  e59f40b4      ldr	r4, [pc, #180]	; 0xf669b114
0xf669b05c:  e59f30b4      ldr	r3, [pc, #180]	; 0xf669b118
0xf669b060:  e08f4004      add	r4, pc, r4
0xf669b064:  e7943003      ldr	r3, [r4, r3]
0xf669b068:  e24dd008      sub	sp, sp, #8	; 0x8
0xf669b06c:  e3530000      cmp	r3, #0	; 0x0
0xf669b070:  e1a05000      mov	r5, r0
0xf669b074:  e1a06002      mov	r6, r2
0xf669b078:  0a000015      beq	0xf669b0d4

----------------
IN: 
0xf669b0d4:  e3a0c000      mov	ip, #0	; 0x0
0xf669b0d8:  e59f004c      ldr	r0, [pc, #76]	; 0xf669b12c
0xf669b0dc:  e59f204c      ldr	r2, [pc, #76]	; 0xf669b130
0xf669b0e0:  e08f0000      add	r0, pc, r0
0xf669b0e4:  e59f3048      ldr	r3, [pc, #72]	; 0xf669b134
0xf669b0e8:  e580c000      str	ip, [r0]
0xf669b0ec:  e7942002      ldr	r2, [r4, r2]
0xf669b0f0:  e7943003      ldr	r3, [r4, r3]
0xf669b0f4:  e5920000      ldr	r0, [r2]
0xf669b0f8:  e5933038      ldr	r3, [r3, #56]
0xf669b0fc:  e1530000      cmp	r3, r0
0xf669b100:  0affffe4      beq	0xf669b098

----------------
IN: 
0xf669b098:  e59f0080      ldr	r0, [pc, #128]	; 0xf669b120
0xf669b09c:  e59f2080      ldr	r2, [pc, #128]	; 0xf669b124
0xf669b0a0:  e08f0000      add	r0, pc, r0
0xf669b0a4:  e08f2002      add	r2, pc, r2
0xf669b0a8:  e59f3078      ldr	r3, [pc, #120]	; 0xf669b128
0xf669b0ac:  e5805000      str	r5, [r0]
0xf669b0b0:  e5821000      str	r1, [r2]
0xf669b0b4:  e7943003      ldr	r3, [r4, r3]
0xf669b0b8:  e1a00005      mov	r0, r5
0xf669b0bc:  e1a02006      mov	r2, r6
0xf669b0c0:  e5836000      str	r6, [r3]
0xf669b0c4:  eb02e3c5      bl	0xf6753fe0

----------------
IN: 
0xf6753fe0:  e92d4070      push	{r4, r5, r6, lr}
0xf6753fe4:  e59f4050      ldr	r4, [pc, #80]	; 0xf675403c
0xf6753fe8:  e2516000      subs	r6, r1, #0	; 0x0
0xf6753fec:  e08f4004      add	r4, pc, r4
0xf6753ff0:  08bd8070      popeq	{r4, r5, r6, pc}

----------------
IN: 
0xf6753ff4:  e5965000      ldr	r5, [r6]
0xf6753ff8:  e3550000      cmp	r5, #0	; 0x0
0xf6753ffc:  08bd8070      popeq	{r4, r5, r6, pc}

----------------
IN: 
0xf6754000:  e1a00005      mov	r0, r5
0xf6754004:  e3a0102f      mov	r1, #47	; 0x2f
0xf6754008:  ebfeaa14      bl	0xf66fe860

----------------
IN: 
0xf66fe860:  e92d4038      push	{r3, r4, r5, lr}
0xf66fe864:  e21140ff      ands	r4, r1, #255	; 0xff
0xf66fe868:  11a03000      movne	r3, r0
0xf66fe86c:  13a05000      movne	r5, #0	; 0x0
0xf66fe870:  1a000002      bne	0xf66fe880

----------------
IN: 
0xf66fe880:  e1a00003      mov	r0, r3
0xf66fe884:  e1a01004      mov	r1, r4
0xf66fe888:  ebfffd5a      bl	0xf66fddf8

----------------
IN: 
0xf66fddf8:  e3100003      tst	r0, #3	; 0x3
0xf66fddfc:  e92d41f0      push	{r4, r5, r6, r7, r8, lr}
0xf66fde00:  e20110ff      and	r1, r1, #255	; 0xff
0xf66fde04:  0a00000e      beq	0xf66fde44

----------------
IN: 
0xf66fde08:  e5d02000      ldrb	r2, [r0]
0xf66fde0c:  e1520001      cmp	r2, r1
0xf66fde10:  08bd81f0      popeq	{r4, r5, r6, r7, r8, pc}

----------------
IN: 
0xf66fde14:  e3520000      cmp	r2, #0	; 0x0
0xf66fde18:  0a000033      beq	0xf66fdeec

----------------
IN: 
0xf66fde1c:  e2803001      add	r3, r0, #1	; 0x1
0xf66fde20:  ea000004      b	0xf66fde38

----------------
IN: 
0xf66fde38:  e3130003      tst	r3, #3	; 0x3
0xf66fde3c:  e1a00003      mov	r0, r3
0xf66fde40:  1afffff7      bne	0xf66fde24

----------------
IN: 
0xf66fde24:  e4d32001      ldrb	r2, [r3], #1
0xf66fde28:  e1520001      cmp	r2, r1
0xf66fde2c:  08bd81f0      popeq	{r4, r5, r6, r7, r8, pc}

----------------
IN: 
0xf66fde30:  e3520000      cmp	r2, #0	; 0x0
0xf66fde34:  0a00002c      beq	0xf66fdeec

----------------
IN: 
0xf66fde44:  e1816401      orr	r6, r1, r1, lsl #8
0xf66fde48:  e1866806      orr	r6, r6, r6, lsl #16
0xf66fde4c:  e240c004      sub	ip, r0, #4	; 0x4
0xf66fde50:  ea00000f      b	0xf66fde94

----------------
IN: 
0xf66fde94:  e1a03000      mov	r3, r0
0xf66fde98:  e59fe06c      ldr	lr, [pc, #108]	; 0xf66fdf0c
0xf66fde9c:  e4934004      ldr	r4, [r3], #4
0xf66fdea0:  e1a0200e      mov	r2, lr
0xf66fdea4:  e0245006      eor	r5, r4, r6
0xf66fdea8:  e1e08005      mvn	r8, r5
0xf66fdeac:  e1e07004      mvn	r7, r4
0xf66fdeb0:  e0842002      add	r2, r4, r2
0xf66fdeb4:  e085e00e      add	lr, r5, lr
0xf66fdeb8:  e0274002      eor	r4, r7, r2
0xf66fdebc:  e02ee008      eor	lr, lr, r8
0xf66fdec0:  e59f2048      ldr	r2, [pc, #72]	; 0xf66fdf10
0xf66fdec4:  e18ee004      orr	lr, lr, r4
0xf66fdec8:  e002200e      and	r2, r2, lr
0xf66fdecc:  e3520000      cmp	r2, #0	; 0x0
0xf66fded0:  e28cc004      add	ip, ip, #4	; 0x4
0xf66fded4:  0affffed      beq	0xf66fde90

----------------
IN: 
0xf66fde90:  e1a00003      mov	r0, r3
0xf66fde94:  e1a03000      mov	r3, r0
0xf66fde98:  e59fe06c      ldr	lr, [pc, #108]	; 0xf66fdf0c
0xf66fde9c:  e4934004      ldr	r4, [r3], #4
0xf66fdea0:  e1a0200e      mov	r2, lr
0xf66fdea4:  e0245006      eor	r5, r4, r6
0xf66fdea8:  e1e08005      mvn	r8, r5
0xf66fdeac:  e1e07004      mvn	r7, r4
0xf66fdeb0:  e0842002      add	r2, r4, r2
0xf66fdeb4:  e085e00e      add	lr, r5, lr
0xf66fdeb8:  e0274002      eor	r4, r7, r2
0xf66fdebc:  e02ee008      eor	lr, lr, r8
0xf66fdec0:  e59f2048      ldr	r2, [pc, #72]	; 0xf66fdf10
0xf66fdec4:  e18ee004      orr	lr, lr, r4
0xf66fdec8:  e002200e      and	r2, r2, lr
0xf66fdecc:  e3520000      cmp	r2, #0	; 0x0
0xf66fded0:  e28cc004      add	ip, ip, #4	; 0x4
0xf66fded4:  0affffed      beq	0xf66fde90

----------------
IN: 
0xf66fded8:  e5532004      ldrb	r2, [r3, #-4]
0xf66fdedc:  e1520001      cmp	r2, r1
0xf66fdee0:  08bd81f0      popeq	{r4, r5, r6, r7, r8, pc}

----------------
IN: 
0xf66fdee4:  e3520000      cmp	r2, #0	; 0x0
0xf66fdee8:  1affffd9      bne	0xf66fde54

----------------
IN: 
0xf66fdeec:  e1a00002      mov	r0, r2
0xf66fdef0:  e8bd81f0      pop	{r4, r5, r6, r7, r8, pc}

----------------
IN: 
0xf66fe88c:  e3500000      cmp	r0, #0	; 0x0
0xf66fe890:  1afffff8      bne	0xf66fe878

----------------
IN: 
0xf66fe894:  e1a00005      mov	r0, r5
0xf66fe898:  e8bd8038      pop	{r3, r4, r5, pc}

----------------
IN: 
0xf675400c:  e59f302c      ldr	r3, [pc, #44]	; 0xf6754040
0xf6754010:  e3500000      cmp	r0, #0	; 0x0
0xf6754014:  07943003      ldreq	r3, [r4, r3]
0xf6754018:  17943003      ldrne	r3, [r4, r3]
0xf675401c:  12800001      addne	r0, r0, #1	; 0x1
0xf6754020:  05835000      streq	r5, [r3]
0xf6754024:  15830000      strne	r0, [r3]
0xf6754028:  e59f3014      ldr	r3, [pc, #20]	; 0xf6754044
0xf675402c:  e5962000      ldr	r2, [r6]
0xf6754030:  e7943003      ldr	r3, [r4, r3]
0xf6754034:  e5832000      str	r2, [r3]
0xf6754038:  e8bd8070      pop	{r4, r5, r6, pc}

----------------
IN: 
0xf669b0c8:  e28dd008      add	sp, sp, #8	; 0x8
0xf669b0cc:  e8bd4070      pop	{r4, r5, r6, lr}
0xf669b0d0:  ea003d0f      b	0xf66aa514

----------------
IN: 
0xf66aa514:  e52de004      push	{lr}		; (str lr, [sp, #-4]!)
0xf66aa518:  e59f304c      ldr	r3, [pc, #76]	; 0xf66aa56c
0xf66aa51c:  ebffc44f      bl	0xf669b660

----------------
IN: 
0xf669b660:  e3e00a0f      mvn	r0, #61440	; 0xf000
0xf669b664:  e240f01f      sub	pc, r0, #31	; 0x1f

----------------
IN: 

----------------
IN: 
0xf66aa520:  e79f3003      ldr	r3, [pc, r3]
0xf66aa524:  e7903003      ldr	r3, [r0, r3]
0xf66aa528:  e59f1040      ldr	r1, [pc, #64]	; 0xf66aa570
0xf66aa52c:  e5933000      ldr	r3, [r3]
0xf66aa530:  e79f1001      ldr	r1, [pc, r1]
0xf66aa534:  e593e024      ldr	lr, [r3, #36]
0xf66aa538:  e593c028      ldr	ip, [r3, #40]
0xf66aa53c:  e59f2030      ldr	r2, [pc, #48]	; 0xf66aa574
0xf66aa540:  e28eec01      add	lr, lr, #256	; 0x100
0xf66aa544:  e780e001      str	lr, [r0, r1]
0xf66aa548:  e79f2002      ldr	r2, [pc, r2]
0xf66aa54c:  e5931030      ldr	r1, [r3, #48]
0xf66aa550:  e28ccc02      add	ip, ip, #512	; 0x200
0xf66aa554:  e59f301c      ldr	r3, [pc, #28]	; 0xf66aa578
0xf66aa558:  e780c002      str	ip, [r0, r2]
0xf66aa55c:  e79f3003      ldr	r3, [pc, r3]
0xf66aa560:  e2812c02      add	r2, r1, #512	; 0x200
0xf66aa564:  e7802003      str	r2, [r0, r3]
0xf66aa568:  e49df004      pop	{pc}		; (ldr pc, [sp], #4)

----------------
IN: 
0xf67e60bc:  e5943084      ldr	r3, [r4, #132]
0xf67e60c0:  e3530000      cmp	r3, #0	; 0x0
0xf67e60c4:  08bd83f8      popeq	{r3, r4, r5, r6, r7, r8, r9, pc}

----------------
IN: 
0xf67e6120:  e20030ff      and	r3, r0, #255	; 0xff
0xf67e6124:  e3130003      tst	r3, #3	; 0x3
0xf67e6128:  1affffd2      bne	0xf67e6078

----------------
IN: 
0xf67e612c:  e8bd83f8      pop	{r3, r4, r5, r6, r7, r8, r9, pc}

----------------
IN: 
0xf67e61f0:  e8bd87f0      pop	{r4, r5, r6, r7, r8, r9, sl, pc}

----------------
IN: 
0xf67d6d54:  e59f0058      ldr	r0, [pc, #88]	; 0xf67d6db4
0xf67d6d58:  e08a0000      add	r0, sl, r0
0xf67d6d5c:  e12fff16      bx	r6

----------------
IN: 
0x0000833c:  e3a0b000      mov	fp, #0	; 0x0
0x00008340:  e3a0e000      mov	lr, #0	; 0x0
0x00008344:  e49d1004      pop	{r1}		; (ldr r1, [sp], #4)
0x00008348:  e1a0200d      mov	r2, sp
0x0000834c:  e52d2004      push	{r2}		; (str r2, [sp, #-4]!)
0x00008350:  e52d0004      push	{r0}		; (str r0, [sp, #-4]!)
0x00008354:  e59fc010      ldr	ip, [pc, #16]	; 0x836c
0x00008358:  e52dc004      push	{ip}		; (str ip, [sp, #-4]!)
0x0000835c:  e59f000c      ldr	r0, [pc, #12]	; 0x8370
0x00008360:  e59f300c      ldr	r3, [pc, #12]	; 0x8374
0x00008364:  ebffffe8      bl	0x830c

----------------
IN: 
0x0000830c:  e28fc600      add	ip, pc, #0	; 0x0
0x00008310:  e28cca08      add	ip, ip, #32768	; 0x8000
0x00008314:  e5bcfcfc      ldr	pc, [ip, #3324]!

----------------
IN: 
0x000082ec:  e52de004      push	{lr}		; (str lr, [sp, #-4]!)
0x000082f0:  e59fe004      ldr	lr, [pc, #4]	; 0x82fc
0x000082f4:  e08fe00e      add	lr, pc, lr
0x000082f8:  e5bef008      ldr	pc, [lr, #8]!

----------------
IN: 
0xf67ebf74:  e92d001f      push	{r0, r1, r2, r3, r4}
0xf67ebf78:  e51e0004      ldr	r0, [lr, #-4]
0xf67ebf7c:  e04c100e      sub	r1, ip, lr
0xf67ebf80:  e2411004      sub	r1, r1, #4	; 0x4
0xf67ebf84:  e0811001      add	r1, r1, r1
0xf67ebf88:  ebffe501      bl	0xf67e5394

----------------
IN: 
0xf67e5394:  e1a02000      mov	r2, r0
0xf67e5398:  e92d47f0      push	{r4, r5, r6, r7, r8, r9, sl, lr}
0xf67e539c:  e590007c      ldr	r0, [r0, #124]
0xf67e53a0:  e5923038      ldr	r3, [r2, #56]
0xf67e53a4:  e5900004      ldr	r0, [r0, #4]
0xf67e53a8:  e5933004      ldr	r3, [r3, #4]
0xf67e53ac:  e081c000      add	ip, r1, r0
0xf67e53b0:  e59cc004      ldr	ip, [ip, #4]
0xf67e53b4:  e5924034      ldr	r4, [r2, #52]
0xf67e53b8:  e1a0e42c      lsr	lr, ip, #8
0xf67e53bc:  e20cc0ff      and	ip, ip, #255	; 0xff
0xf67e53c0:  e24dd018      sub	sp, sp, #24	; 0x18
0xf67e53c4:  e083320e      add	r3, r3, lr, lsl #4
0xf67e53c8:  e35c0016      cmp	ip, #22	; 0x16
0xf67e53cc:  e7916000      ldr	r6, [r1, r0]
0xf67e53d0:  e5944004      ldr	r4, [r4, #4]
0xf67e53d4:  e58d3014      str	r3, [sp, #20]
0xf67e53d8:  e5925000      ldr	r5, [r2]
0xf67e53dc:  1a000038      bne	0xf67e54c4

----------------
IN: 
0xf67e53e0:  e5d3100d      ldrb	r1, [r3, #13]
0xf67e53e4:  e3110003      tst	r1, #3	; 0x3
0xf67e53e8:  1a00005f      bne	0xf67e556c

----------------
IN: 
0xf67e53ec:  e59210e4      ldr	r1, [r2, #228]
0xf67e53f0:  e3510000      cmp	r1, #0	; 0x0
0xf67e53f4:  0a000008      beq	0xf67e541c

----------------
IN: 
0xf67e53f8:  e5911004      ldr	r1, [r1, #4]
0xf67e53fc:  e1a0e08e      lsl	lr, lr, #1
0xf67e5400:  e19e10b1      ldrh	r1, [lr, r1]
0xf67e5404:  e5920170      ldr	r0, [r2, #368]
0xf67e5408:  e1a01881      lsl	r1, r1, #17
0xf67e540c:  e08016a1      add	r1, r0, r1, lsr #13
0xf67e5410:  e5910004      ldr	r0, [r1, #4]
0xf67e5414:  e3500000      cmp	r0, #0	; 0x0
0xf67e5418:  03a01000      moveq	r1, #0	; 0x0
0xf67e541c:  eb00211b      bl	0xf67ed890

----------------
IN: 
0xf67ed890:  e3e00a0f      mvn	r0, #61440	; 0xf000
0xf67ed894:  e240f01f      sub	pc, r0, #31	; 0x1f

----------------
IN: 
0xf67e5420:  e1a07000      mov	r7, r0
0xf67e5424:  e51004c0      ldr	r0, [r0, #-1216]
0xf67e5428:  e3500000      cmp	r0, #0	; 0x0
0xf67e542c:  03a08001      moveq	r8, #1	; 0x1
0xf67e5430:  1a000045      bne	0xf67e554c

----------------
IN: 
0xf67e5434:  e3a0e001      mov	lr, #1	; 0x1
0xf67e5438:  e3a0c000      mov	ip, #0	; 0x0
0xf67e543c:  e5930000      ldr	r0, [r3]
0xf67e5440:  e59231cc      ldr	r3, [r2, #460]
0xf67e5444:  e0840000      add	r0, r4, r0
0xf67e5448:  e58d1000      str	r1, [sp]
0xf67e544c:  e58d8008      str	r8, [sp, #8]
0xf67e5450:  e1a01002      mov	r1, r2
0xf67e5454:  e58de004      str	lr, [sp, #4]
0xf67e5458:  e58dc00c      str	ip, [sp, #12]
0xf67e545c:  e28d2014      add	r2, sp, #20	; 0x14
0xf67e5460:  ebffebd8      bl	0xf67e03c8

----------------
IN: 
0xf67dfa50:  e3530006      cmp	r3, #6	; 0x6
0xf67dfa54:  0affffb0      beq	0xf67df91c

----------------
IN: 
0xf67dfa58:  eafffff2      b	0xf67dfa28

----------------
IN: 
0xf67dfa28:  e3a00000      mov	r0, #0	; 0x0
0xf67dfa2c:  e8bd80f8      pop	{r3, r4, r5, r6, r7, pc}

----------------
IN: 
0xf67e0188:  e5962000      ldr	r2, [r6]
0xf67e018c:  eaffffeb      b	0xf67e0140

----------------
IN: 
0xf67e5464:  e51734c0      ldr	r3, [r7, #-1216]
0xf67e5468:  e1a08000      mov	r8, r0
0xf67e546c:  e3530000      cmp	r3, #0	; 0x0
0xf67e5470:  1a00001b      bne	0xf67e54e4

----------------
IN: 
0xf67e5474:  e59d2014      ldr	r2, [sp, #20]
0xf67e5478:  e3520000      cmp	r2, #0	; 0x0
0xf67e547c:  01a03002      moveq	r3, r2
0xf67e5480:  0a000007      beq	0xf67e54a4

----------------
IN: 
0xf67e5484:  e3580000      cmp	r8, #0	; 0x0
0xf67e5488:  15988000      ldrne	r8, [r8]
0xf67e548c:  e5921004      ldr	r1, [r2, #4]
0xf67e5490:  e0883001      add	r3, r8, r1
0xf67e5494:  e5d2200c      ldrb	r2, [r2, #12]
0xf67e5498:  e202200f      and	r2, r2, #15	; 0xf
0xf67e549c:  e352000a      cmp	r2, #10	; 0xa
0xf67e54a0:  0a000035      beq	0xf67e557c

----------------
IN: 
0xf67e54a4:  e1a00003      mov	r0, r3
0xf67e54a8:  e59f20e4      ldr	r2, [pc, #228]	; 0xf67e5594
0xf67e54ac:  e08f2002      add	r2, pc, r2
0xf67e54b0:  e5922030      ldr	r2, [r2, #48]
0xf67e54b4:  e3520000      cmp	r2, #0	; 0x0
0xf67e54b8:  07853006      streq	r3, [r5, r6]
0xf67e54bc:  e28dd018      add	sp, sp, #24	; 0x18
0xf67e54c0:  e8bd87f0      pop	{r4, r5, r6, r7, r8, r9, sl, pc}

----------------
IN: 
0xf67ebf8c:  e1a0c000      mov	ip, r0
0xf67ebf90:  e8bd401f      pop	{r0, r1, r2, r3, r4, lr}
0xf67ebf94:  e12fff1c      bx	ip

----------------
IN: 
0xf669b140:  e92d41f0      push	{r4, r5, r6, r7, r8, lr}
0xf669b144:  e59fc214      ldr	ip, [pc, #532]	; 0xf669b360
0xf669b148:  e24ddf4a      sub	sp, sp, #296	; 0x128
0xf669b14c:  e08fc00c      add	ip, pc, ip
0xf669b150:  e58dc000      str	ip, [sp]
0xf669b154:  e58d000c      str	r0, [sp, #12]
0xf669b158:  e59fc204      ldr	ip, [pc, #516]	; 0xf669b364
0xf669b15c:  e59d0000      ldr	r0, [sp]
0xf669b160:  e1a04003      mov	r4, r3
0xf669b164:  e790c00c      ldr	ip, [r0, ip]
0xf669b168:  e58d2004      str	r2, [sp, #4]
0xf669b16c:  e35c0000      cmp	ip, #0	; 0x0
0xf669b170:  159c2000      ldrne	r2, [ip]
0xf669b174:  01a0200c      moveq	r2, ip
0xf669b178:  116f2f12      clzne	r2, r2
0xf669b17c:  e58d1008      str	r1, [sp, #8]
0xf669b180:  e59f31e0      ldr	r3, [pc, #480]	; 0xf669b368
0xf669b184:  e59d1000      ldr	r1, [sp]
0xf669b188:  e59d0144      ldr	r0, [sp, #324]
0xf669b18c:  e7913003      ldr	r3, [r1, r3]
0xf669b190:  11a022a2      lsrne	r2, r2, #5
0xf669b194:  e3500000      cmp	r0, #0	; 0x0
0xf669b198:  e5832000      str	r2, [r3]
0xf669b19c:  0a000002      beq	0xf669b1ac

----------------
IN: 
0xf669b1a0:  e3a01000      mov	r1, #0	; 0x0
0xf669b1a4:  e1a02001      mov	r2, r1
0xf669b1a8:  eb006ea2      bl	0xf66b6c38

----------------
IN: 
0xf66b6c38:  e59f3004      ldr	r3, [pc, #4]	; 0xf66b6c44
0xf66b6c3c:  e08f3003      add	r3, pc, r3
0xf66b6c40:  eaffffe0      b	0xf66b6bc8

----------------
IN: 
0xf66b6bc8:  e92d4070      push	{r4, r5, r6, lr}
0xf66b6bcc:  e1a04000      mov	r4, r0
0xf66b6bd0:  e1a00003      mov	r0, r3
0xf66b6bd4:  e1a06001      mov	r6, r1
0xf66b6bd8:  e1a05002      mov	r5, r2
0xf66b6bdc:  ebffff79      bl	0xf66b69c8

----------------
IN: 
0xf66b69c8:  e59f21d8      ldr	r2, [pc, #472]	; 0xf66b6ba8
0xf66b69cc:  e92d40f8      push	{r3, r4, r5, r6, r7, lr}
0xf66b69d0:  e3a01001      mov	r1, #1	; 0x1
0xf66b69d4:  e1a05000      mov	r5, r0
0xf66b69d8:  e08f2002      add	r2, pc, r2
0xf66b69dc:  e3a04000      mov	r4, #0	; 0x0
0xf66b69e0:  e5923000      ldr	r3, [r2]
0xf66b69e4:  e1530004      cmp	r3, r4
0xf66b69e8:  1a000005      bne	0xf66b6a04

----------------
IN: 
0xf66b69ec:  e1a00004      mov	r0, r4
0xf66b69f0:  e3e03a0f      mvn	r3, #61440	; 0xf000
0xf66b69f4:  e1a0e00f      mov	lr, pc
0xf66b69f8:  e243f03f      sub	pc, r3, #63	; 0x3f

----------------
IN: 

----------------
IN: 
0xf66b69fc:  3afffff7      bcc	0xf66b69e0

----------------
IN: 
0xf66b6a00:  e1a03004      mov	r3, r4
0xf66b6a04:  e3530000      cmp	r3, #0	; 0x0
0xf66b6a08:  1a00005a      bne	0xf66b6b78

----------------
IN: 
0xf66b6a0c:  e5954000      ldr	r4, [r5]
0xf66b6a10:  e3540000      cmp	r4, #0	; 0x0
0xf66b6a14:  0a00004f      beq	0xf66b6b58

----------------
IN: 
0xf66b6a18:  e3a00000      mov	r0, #0	; 0x0
0xf66b6a1c:  e1a0e004      mov	lr, r4
0xf66b6a20:  e1a06000      mov	r6, r0
0xf66b6a24:  e59e2004      ldr	r2, [lr, #4]
0xf66b6a28:  e3520000      cmp	r2, #0	; 0x0
0xf66b6a2c:  0a00000f      beq	0xf66b6a70

----------------
IN: 
0xf66b6a70:  e59e3000      ldr	r3, [lr]
0xf66b6a74:  e58e6004      str	r6, [lr, #4]
0xf66b6a78:  e3530000      cmp	r3, #0	; 0x0
0xf66b6a7c:  e1a0000e      mov	r0, lr
0xf66b6a80:  0a000027      beq	0xf66b6b24

----------------
IN: 
0xf66b6b24:  e3a03001      mov	r3, #1	; 0x1
0xf66b6b28:  e2805008      add	r5, r0, #8	; 0x8
0xf66b6b2c:  e5803004      str	r3, [r0, #4]
0xf66b6b30:  eaffffdc      b	0xf66b6aa8

----------------
IN: 
0xf66b6aa8:  e3a03001      mov	r3, #1	; 0x1
0xf66b6aac:  e59f10f8      ldr	r1, [pc, #248]	; 0xf66b6bac
0xf66b6ab0:  e5853000      str	r3, [r5]
0xf66b6ab4:  e08f1001      add	r1, pc, r1
0xf66b6ab8:  e891000c      ldm	r1, {r2, r3}
0xf66b6abc:  e2922001      adds	r2, r2, #1	; 0x1
0xf66b6ac0:  e2a33000      adc	r3, r3, #0	; 0x0
0xf66b6ac4:  e881000c      stm	r1, {r2, r3}
0xf66b6ac8:  e59f70e0      ldr	r7, [pc, #224]	; 0xf66b6bb0
0xf66b6acc:  e08f7007      add	r7, pc, r7
0xf66b6ad0:  e5976000      ldr	r6, [r7]
0xf66b6ad4:  e3a01000      mov	r1, #0	; 0x0
0xf66b6ad8:  e1a04006      mov	r4, r6
0xf66b6adc:  e1a02007      mov	r2, r7
0xf66b6ae0:  e5923000      ldr	r3, [r2]
0xf66b6ae4:  e1530004      cmp	r3, r4
0xf66b6ae8:  1a000005      bne	0xf66b6b04

----------------
IN: 
0xf66b6aec:  e1a00004      mov	r0, r4
0xf66b6af0:  e3e03a0f      mvn	r3, #61440	; 0xf000
0xf66b6af4:  e1a0e00f      mov	lr, pc
0xf66b6af8:  e243f03f      sub	pc, r3, #63	; 0x3f

----------------
IN: 
0xf66b6afc:  3afffff7      bcc	0xf66b6ae0

----------------
IN: 
0xf66b6b00:  e1a03004      mov	r3, r4
0xf66b6b04:  e1560003      cmp	r6, r3
0xf66b6b08:  1afffff0      bne	0xf66b6ad0

----------------
IN: 
0xf66b6b0c:  e3560001      cmp	r6, #1	; 0x1
0xf66b6b10:  ca00001c      bgt	0xf66b6b88

----------------
IN: 
0xf66b6b14:  e1a00005      mov	r0, r5
0xf66b6b18:  e8bd80f8      pop	{r3, r4, r5, r6, r7, pc}

----------------
IN: 
0xf66b6be0:  e59fc048      ldr	ip, [pc, #72]	; 0xf66b6c30
0xf66b6be4:  e2503000      subs	r3, r0, #0	; 0x0
0xf66b6be8:  e08fc00c      add	ip, pc, ip
0xf66b6bec:  0a00000d      beq	0xf66b6c28

----------------
IN: 
0xf66b6bf0:  e59f203c      ldr	r2, [pc, #60]	; 0xf66b6c34
0xf66b6bf4:  e79c2002      ldr	r2, [ip, r2]
0xf66b6bf8:  e5836008      str	r6, [r3, #8]
0xf66b6bfc:  e5922000      ldr	r2, [r2]
0xf66b6c00:  e583500c      str	r5, [r3, #12]
0xf66b6c04:  e0244002      eor	r4, r4, r2
0xf66b6c08:  e5834004      str	r4, [r3, #4]
0xf66b6c0c:  e3e0ca0f      mvn	ip, #61440	; 0xf000
0xf66b6c10:  e1a0e00f      mov	lr, pc
0xf66b6c14:  e24cf05f      sub	pc, ip, #95	; 0x5f

----------------
IN: 
0xf66b6c18:  e3a02004      mov	r2, #4	; 0x4
0xf66b6c1c:  e3a00000      mov	r0, #0	; 0x0
0xf66b6c20:  e5832000      str	r2, [r3]
0xf66b6c24:  e8bd8070      pop	{r4, r5, r6, pc}

----------------
IN: 
0xf669b1ac:  e59d2000      ldr	r2, [sp]
0xf669b1b0:  e59f31b4      ldr	r3, [pc, #436]	; 0xf669b36c
0xf669b1b4:  e7923003      ldr	r3, [r2, r3]
0xf669b1b8:  e5932000      ldr	r2, [r3]
0xf669b1bc:  e2125002      ands	r5, r2, #2	; 0x2
0xf669b1c0:  1a000024      bne	0xf669b258

----------------
IN: 
0xf669b1c4:  e3540000      cmp	r4, #0	; 0x0
0xf669b1c8:  0a000006      beq	0xf669b1e8

----------------
IN: 
0xf669b1cc:  e59d1000      ldr	r1, [sp]
0xf669b1d0:  e59f3198      ldr	r3, [pc, #408]	; 0xf669b370
0xf669b1d4:  e59d0008      ldr	r0, [sp, #8]
0xf669b1d8:  e7913003      ldr	r3, [r1, r3]
0xf669b1dc:  e59d1004      ldr	r1, [sp, #4]
0xf669b1e0:  e5932000      ldr	r2, [r3]
0xf669b1e4:  e12fff34      blx	r4

----------------
IN: __libc_csu_init
0x000084c8:  e92d43f8      push	{r3, r4, r5, r6, r7, r8, r9, lr}
0x000084cc:  e59f6050      ldr	r6, [pc, #80]	; 0x8524
0x000084d0:  e59f5050      ldr	r5, [pc, #80]	; 0x8528
0x000084d4:  e08f6006      add	r6, pc, r6
0x000084d8:  e08f5005      add	r5, pc, r5
0x000084dc:  e0656006      rsb	r6, r5, r6
0x000084e0:  e1a07000      mov	r7, r0
0x000084e4:  e1a08001      mov	r8, r1
0x000084e8:  e1a09002      mov	r9, r2
0x000084ec:  ebffff7b      bl	0x82e0

----------------
IN: 
0x000082e0:  e92d4008      push	{r3, lr}
0x000082e4:  eb000023      bl	0x8378

----------------
IN: 
0x00008378:  e59f3014      ldr	r3, [pc, #20]	; 0x8394
0x0000837c:  e59f2014      ldr	r2, [pc, #20]	; 0x8398
0x00008380:  e08f3003      add	r3, pc, r3
0x00008384:  e7932002      ldr	r2, [r3, r2]
0x00008388:  e3520000      cmp	r2, #0	; 0x0
0x0000838c:  012fff1e      bxeq	lr

----------------
IN: 
0x000082e8:  e8bd8008      pop	{r3, pc}

----------------
IN: __libc_csu_init
0x000084f0:  e1b06146      asrs	r6, r6, #2
0x000084f4:  08bd83f8      popeq	{r3, r4, r5, r6, r7, r8, r9, pc}

----------------
IN: __libc_csu_init
0x000084f8:  e3a04000      mov	r4, #0	; 0x0
0x000084fc:  e2455004      sub	r5, r5, #4	; 0x4
0x00008500:  e2844001      add	r4, r4, #1	; 0x1
0x00008504:  e5b53004      ldr	r3, [r5, #4]!
0x00008508:  e1a00007      mov	r0, r7
0x0000850c:  e1a01008      mov	r1, r8
0x00008510:  e1a02009      mov	r2, r9
0x00008514:  e12fff33      blx	r3

----------------
IN: 
0x0000843c:  e59f0024      ldr	r0, [pc, #36]	; 0x8468
0x00008440:  e92d4008      push	{r3, lr}
0x00008444:  e5903000      ldr	r3, [r0]
0x00008448:  e3530000      cmp	r3, #0	; 0x0
0x0000844c:  0a000003      beq	0x8460

----------------
IN: 
0x00008460:  e8bd4008      pop	{r3, lr}
0x00008464:  eaffffda      b	0x83d4

----------------
IN: 
0x000083d4:  e92d4008      push	{r3, lr}
0x000083d8:  e59f0028      ldr	r0, [pc, #40]	; 0x8408
0x000083dc:  e59f3028      ldr	r3, [pc, #40]	; 0x840c
0x000083e0:  e0603003      rsb	r3, r0, r3
0x000083e4:  e1a03143      asr	r3, r3, #2
0x000083e8:  e0833fa3      add	r3, r3, r3, lsr #31
0x000083ec:  e1b010c3      asrs	r1, r3, #1
0x000083f0:  08bd8008      popeq	{r3, pc}

----------------
IN: __libc_csu_init
0x00008518:  e1540006      cmp	r4, r6
0x0000851c:  1afffff7      bne	0x8500

----------------
IN: __libc_csu_init
0x00008520:  e8bd83f8      pop	{r3, r4, r5, r6, r7, r8, r9, pc}

----------------
IN: 
0xf669b1e8:  e59f317c      ldr	r3, [pc, #380]	; 0xf669b36c
0xf669b1ec:  e59d2000      ldr	r2, [sp]
0xf669b1f0:  e7923003      ldr	r3, [r2, r3]
0xf669b1f4:  e5934174      ldr	r4, [r3, #372]
0xf669b1f8:  e3540000      cmp	r4, #0	; 0x0
0xf669b1fc:  1a000045      bne	0xf669b318

----------------
IN: 
0xf669b200:  e3550000      cmp	r5, #0	; 0x0
0xf669b204:  1a000039      bne	0xf669b2f0

----------------
IN: 
0xf669b208:  e28d0010      add	r0, sp, #16	; 0x10
0xf669b20c:  eb00582b      bl	0xf66b12c0

----------------
IN: 
0xf66b12c0:  e3a01000      mov	r1, #0	; 0x0
0xf66b12c4:  eaffffc5      b	0xf66b11e0

----------------
IN: 
0xf66b11e0:  e59fc074      ldr	ip, [pc, #116]	; 0xf66b125c
0xf66b11e4:  e59f2074      ldr	r2, [pc, #116]	; 0xf66b1260
0xf66b11e8:  e08cc00f      add	ip, ip, pc
0xf66b11ec:  e79cc002      ldr	ip, [ip, r2]
0xf66b11f0:  e59c2000      ldr	r2, [ip]
0xf66b11f4:  e1a0c000      mov	ip, r0
0xf66b11f8:  e8ac0ff0      stmia	ip!, {r4, r5, r6, r7, r8, r9, sl, fp}
0xf66b11fc:  e1a0300d      mov	r3, sp
0xf66b1200:  e0233002      eor	r3, r3, r2
0xf66b1204:  e48c3004      str	r3, [ip], #4
0xf66b1208:  e02e3002      eor	r3, lr, r2
0xf66b120c:  e48c3004      str	r3, [ip], #4
0xf66b1210:  e59f203c      ldr	r2, [pc, #60]	; 0xf66b1254
0xf66b1214:  e59f303c      ldr	r3, [pc, #60]	; 0xf66b1258
0xf66b1218:  e08f2002      add	r2, pc, r2
0xf66b121c:  e7922003      ldr	r2, [r2, r3]
0xf66b1220:  e5922040      ldr	r2, [r2, #64]
0xf66b1224:  e3120040      tst	r2, #64	; 0x40
0xf66b1228:  0a000000      beq	0xf66b1230

----------------
IN: 
0xf66b122c:  ecac8b10      vstmia	ip!, {d8-d15}
0xf66b1230:  e3120c02      tst	r2, #512	; 0x200
0xf66b1234:  0a000005      beq	0xf66b1250

----------------
IN: 
0xf66b1250:  ea000006      b	0xf66b1270

----------------
IN: 
0xf66b1270:  e3510000      cmp	r1, #0	; 0x0
0xf66b1274:  e92d4010      push	{r4, lr}
0xf66b1278:  e1a04000      mov	r4, r0
0xf66b127c:  01a00001      moveq	r0, r1
0xf66b1280:  0a000005      beq	0xf66b129c

----------------
IN: 
0xf66b129c:  e5840100      str	r0, [r4, #256]
0xf66b12a0:  e3a00000      mov	r0, #0	; 0x0
0xf66b12a4:  e8bd8010      pop	{r4, pc}

----------------
IN: 
0xf669b210:  e3500000      cmp	r0, #0	; 0x0
0xf669b214:  1a000016      bne	0xf669b274

----------------
IN: 
0xf669b218:  eb000110      bl	0xf669b660

----------------
IN: 
0xf669b21c:  e5101440      ldr	r1, [r0, #-1088]
0xf669b220:  e5102444      ldr	r2, [r0, #-1092]
0xf669b224:  e58d1118      str	r1, [sp, #280]
0xf669b228:  e59f3140      ldr	r3, [pc, #320]	; 0xf669b370
0xf669b22c:  e28d1010      add	r1, sp, #16	; 0x10
0xf669b230:  e59dc000      ldr	ip, [sp]
0xf669b234:  e5001440      str	r1, [r0, #-1088]
0xf669b238:  e58d211c      str	r2, [sp, #284]
0xf669b23c:  e79c3003      ldr	r3, [ip, r3]
0xf669b240:  e59d1004      ldr	r1, [sp, #4]
0xf669b244:  e5932000      ldr	r2, [r3]
0xf669b248:  e59d0008      ldr	r0, [sp, #8]
0xf669b24c:  e59d300c      ldr	r3, [sp, #12]
0xf669b250:  e12fff33      blx	r3

----------------
IN: 
0x00008470:  e3a0720b      mov	r7, #-1342177280	; 0xb0000000
0x00008474:  f2800011      vmov.i32	d0, #1	; 0x00000001
0x00008478:  f2801010      vmov.i32	d1, #0	; 0x00000000
0x0000847c:  f2802011      vmov.i32	d2, #1	; 0x00000001
0x00008480:  f2803010      vmov.i32	d3, #0	; 0x00000000
0x00008484:  f2804012      vmov.i32	d4, #2	; 0x00000002
0x00008488:  f2805010      vmov.i32	d5, #0	; 0x00000000
0x0000848c:  f2200842      vadd.i32	q0, q0, q1
0x00008490:  f2200954      vmul.i32	q0, q0, q2
0x00008494:  f2200842      vadd.i32	q0, q0, q1
0x00008498:  e357020b      cmp	r7, #-1342177280	; 0xb0000000
0x0000849c:  1a000004      bne	0x84b4

----------------
IN: 
0x000084a0:  e92d1080      push	{r7, ip}
0x000084a4:  e59f0018      ldr	r0, [pc, #24]	; 0x84c4
0x000084a8:  ee101b10      vmov.32	r1, d0[0]
0x000084ac:  ebffff93      bl	0x8300

----------------
IN: 
0x00008300:  e28fc600      add	ip, pc, #0	; 0x0
0x00008304:  e28cca08      add	ip, ip, #32768	; 0x8000
0x00008308:  e5bcfd04      ldr	pc, [ip, #3332]!

----------------
IN: 
0xf66ccf0c:  e92d000f      push	{r0, r1, r2, r3}
0xf66ccf10:  e52de004      push	{lr}		; (str lr, [sp, #-4]!)
0xf66ccf14:  e59f3030      ldr	r3, [pc, #48]	; 0xf66ccf4c
0xf66ccf18:  e24dd00c      sub	sp, sp, #12	; 0xc
0xf66ccf1c:  e28d2014      add	r2, sp, #20	; 0x14
0xf66ccf20:  e59f1028      ldr	r1, [pc, #40]	; 0xf66ccf50
0xf66ccf24:  e08f3003      add	r3, pc, r3
0xf66ccf28:  e58d2004      str	r2, [sp, #4]
0xf66ccf2c:  e7931001      ldr	r1, [r3, r1]
0xf66ccf30:  e5910000      ldr	r0, [r1]
0xf66ccf34:  e59d1010      ldr	r1, [sp, #16]
0xf66ccf38:  ebffda11      bl	0xf66c3784

----------------
IN: 
0xf66c3784:  e92d4ff0      push	{r4, r5, r6, r7, r8, r9, sl, fp, lr}
0xf66c3788:  e28db020      add	fp, sp, #32	; 0x20
0xf66c378c:  e24dde51      sub	sp, sp, #1296	; 0x510
0xf66c3790:  e24dd004      sub	sp, sp, #4	; 0x4
0xf66c3794:  e59f3fdc      ldr	r3, [pc, #4060]	; 0xf66c4778
0xf66c3798:  e79f3003      ldr	r3, [pc, r3]
0xf66c379c:  e590406c      ldr	r4, [r0, #108]
0xf66c37a0:  e1a05000      mov	r5, r0
0xf66c37a4:  ebff5fad      bl	0xf669b660

----------------
IN: 
0xf66c37a8:  e7903003      ldr	r3, [r0, r3]
0xf66c37ac:  e3540000      cmp	r4, #0	; 0x0
0xf66c37b0:  e50b3464      str	r3, [fp, #-1124]
0xf66c37b4:  03e03000      mvneq	r3, #0	; 0x0
0xf66c37b8:  e59fafbc      ldr	sl, [pc, #4028]	; 0xf66c477c
0xf66c37bc:  e1a07001      mov	r7, r1
0xf66c37c0:  e08fa00a      add	sl, pc, sl
0xf66c37c4:  e50b245c      str	r2, [fp, #-1116]
0xf66c37c8:  0585306c      streq	r3, [r5, #108]
0xf66c37cc:  0a000001      beq	0xf66c37d8

----------------
IN: 
0xf66c37d8:  e5954000      ldr	r4, [r5]
0xf66c37dc:  e3140008      tst	r4, #8	; 0x8
0xf66c37e0:  1a0000cc      bne	0xf66c3b18

----------------
IN: 
0xf66c37e4:  e3570000      cmp	r7, #0	; 0x0
0xf66c37e8:  0a0000d3      beq	0xf66c3b3c

----------------
IN: 
0xf66c37ec:  e2146002      ands	r6, r4, #2	; 0x2
0xf66c37f0:  1a000059      bne	0xf66c395c

----------------
IN: 
0xf66c37f4:  e1a00007      mov	r0, r7
0xf66c37f8:  e3a01025      mov	r1, #37	; 0x25
0xf66c37fc:  e50b244c      str	r2, [fp, #-1100]
0xf66c3800:  eb00fa46      bl	0xf6702120

----------------
IN: 
0xf6702120:  e3100003      tst	r0, #3	; 0x3
0xf6702124:  e92d41f0      push	{r4, r5, r6, r7, r8, lr}
0xf6702128:  e20110ff      and	r1, r1, #255	; 0xff
0xf670212c:  0a00000e      beq	0xf670216c

----------------
IN: 
0xf6702130:  e5d03000      ldrb	r3, [r0]
0xf6702134:  e1530001      cmp	r3, r1
0xf6702138:  08bd81f0      popeq	{r4, r5, r6, r7, r8, pc}

----------------
IN: 
0xf670213c:  e3530000      cmp	r3, #0	; 0x0
0xf6702140:  08bd81f0      popeq	{r4, r5, r6, r7, r8, pc}

----------------
IN: 
0xf6702144:  e2803001      add	r3, r0, #1	; 0x1
0xf6702148:  ea000004      b	0xf6702160

----------------
IN: 
0xf6702160:  e3130003      tst	r3, #3	; 0x3
0xf6702164:  e1a00003      mov	r0, r3
0xf6702168:  1afffff7      bne	0xf670214c

----------------
IN: 
0xf670214c:  e4d32001      ldrb	r2, [r3], #1
0xf6702150:  e1520001      cmp	r2, r1
0xf6702154:  08bd81f0      popeq	{r4, r5, r6, r7, r8, pc}

----------------
IN: 
0xf6702158:  e3520000      cmp	r2, #0	; 0x0
0xf670215c:  08bd81f0      popeq	{r4, r5, r6, r7, r8, pc}

----------------
IN: 
0xf670216c:  e1816401      orr	r6, r1, r1, lsl #8
0xf6702170:  e1866806      orr	r6, r6, r6, lsl #16
0xf6702174:  e2402004      sub	r2, r0, #4	; 0x4
0xf6702178:  ea00000c      b	0xf67021b0

----------------
IN: 
0xf67021b0:  e1a03000      mov	r3, r0
0xf67021b4:  e59fe074      ldr	lr, [pc, #116]	; 0xf6702230
0xf67021b8:  e4934004      ldr	r4, [r3], #4
0xf67021bc:  e1a0c00e      mov	ip, lr
0xf67021c0:  e0245006      eor	r5, r4, r6
0xf67021c4:  e1e08005      mvn	r8, r5
0xf67021c8:  e1e07004      mvn	r7, r4
0xf67021cc:  e084c00c      add	ip, r4, ip
0xf67021d0:  e085e00e      add	lr, r5, lr
0xf67021d4:  e027400c      eor	r4, r7, ip
0xf67021d8:  e02ee008      eor	lr, lr, r8
0xf67021dc:  e59fc050      ldr	ip, [pc, #80]	; 0xf6702234
0xf67021e0:  e18ee004      orr	lr, lr, r4
0xf67021e4:  e00cc00e      and	ip, ip, lr
0xf67021e8:  e35c0000      cmp	ip, #0	; 0x0
0xf67021ec:  e2822004      add	r2, r2, #4	; 0x4
0xf67021f0:  0affffed      beq	0xf67021ac

----------------
IN: 
0xf67021ac:  e1a00003      mov	r0, r3
0xf67021b0:  e1a03000      mov	r3, r0
0xf67021b4:  e59fe074      ldr	lr, [pc, #116]	; 0xf6702230
0xf67021b8:  e4934004      ldr	r4, [r3], #4
0xf67021bc:  e1a0c00e      mov	ip, lr
0xf67021c0:  e0245006      eor	r5, r4, r6
0xf67021c4:  e1e08005      mvn	r8, r5
0xf67021c8:  e1e07004      mvn	r7, r4
0xf67021cc:  e084c00c      add	ip, r4, ip
0xf67021d0:  e085e00e      add	lr, r5, lr
0xf67021d4:  e027400c      eor	r4, r7, ip
0xf67021d8:  e02ee008      eor	lr, lr, r8
0xf67021dc:  e59fc050      ldr	ip, [pc, #80]	; 0xf6702234
0xf67021e0:  e18ee004      orr	lr, lr, r4
0xf67021e4:  e00cc00e      and	ip, ip, lr
0xf67021e8:  e35c0000      cmp	ip, #0	; 0x0
0xf67021ec:  e2822004      add	r2, r2, #4	; 0x4
0xf67021f0:  0affffed      beq	0xf67021ac

----------------
IN: 
0xf67021f4:  e553c004      ldrb	ip, [r3, #-4]
0xf67021f8:  e280e001      add	lr, r0, #1	; 0x1
0xf67021fc:  e15c0001      cmp	ip, r1
0xf6702200:  08bd81f0      popeq	{r4, r5, r6, r7, r8, pc}

----------------
IN: 
0xf6702204:  e35c0000      cmp	ip, #0	; 0x0
0xf6702208:  08bd81f0      popeq	{r4, r5, r6, r7, r8, pc}

----------------
IN: 
0xf670220c:  e5d2c001      ldrb	ip, [r2, #1]
0xf6702210:  e15c0001      cmp	ip, r1
0xf6702214:  1affffd8      bne	0xf670217c

----------------
IN: 
0xf670217c:  e35c0000      cmp	ip, #0	; 0x0
0xf6702180:  0a000024      beq	0xf6702218

----------------
IN: 
0xf6702184:  e5d2c002      ldrb	ip, [r2, #2]
0xf6702188:  e15c0001      cmp	ip, r1
0xf670218c:  0a000023      beq	0xf6702220

----------------
IN: 
0xf6702190:  e35c0000      cmp	ip, #0	; 0x0
0xf6702194:  0a000021      beq	0xf6702220

----------------
IN: 
0xf6702198:  e5d2c003      ldrb	ip, [r2, #3]
0xf670219c:  e15c0001      cmp	ip, r1
0xf67021a0:  0a000020      beq	0xf6702228

----------------
IN: 
0xf6702228:  e2800003      add	r0, r0, #3	; 0x3
0xf670222c:  e8bd81f0      pop	{r4, r5, r6, r7, r8, pc}

----------------
IN: 
0xf66c3804:  e3140902      tst	r4, #32768	; 0x8000
0xf66c3808:  e50b0458      str	r0, [fp, #-1112]
0xf66c380c:  e50b0450      str	r0, [fp, #-1104]
0xf66c3810:  150b6460      strne	r6, [fp, #-1120]
0xf66c3814:  0a00002b      beq	0xf66c38c8

----------------
IN: 
0xf66c38c8:  e59f3eb0      ldr	r3, [pc, #3760]	; 0xf66c4780
0xf66c38cc:  e08f3003      add	r3, pc, r3
0xf66c38d0:  e5933000      ldr	r3, [r3]
0xf66c38d4:  e3530000      cmp	r3, #0	; 0x0
0xf66c38d8:  e50b3460      str	r3, [fp, #-1120]
0xf66c38dc:  1a000025      bne	0xf66c3978

----------------
IN: 
0xf66c38e0:  e59f3e9c      ldr	r3, [pc, #3740]	; 0xf66c4784
0xf66c38e4:  e79a3003      ldr	r3, [sl, r3]
0xf66c38e8:  e50b542c      str	r5, [fp, #-1068]
0xf66c38ec:  e50b3430      str	r3, [fp, #-1072]
0xf66c38f0:  e5956048      ldr	r6, [r5, #72]
0xf66c38f4:  ebff5f59      bl	0xf669b660

----------------
IN: 
0xf66c38f8:  e5963008      ldr	r3, [r6, #8]
0xf66c38fc:  e2408d13      sub	r8, r0, #1216	; 0x4c0
0xf66c3900:  e1530008      cmp	r3, r8
0xf66c3904:  0a000010      beq	0xf66c394c

----------------
IN: 
0xf66c3908:  e3a01001      mov	r1, #1	; 0x1
0xf66c390c:  e1a02006      mov	r2, r6
0xf66c3910:  e3a04000      mov	r4, #0	; 0x0
0xf66c3914:  e5923000      ldr	r3, [r2]
0xf66c3918:  e1530004      cmp	r3, r4
0xf66c391c:  1a000005      bne	0xf66c3938

----------------
IN: 
0xf66c3920:  e1a00004      mov	r0, r4
0xf66c3924:  e3e03a0f      mvn	r3, #61440	; 0xf000
0xf66c3928:  e1a0e00f      mov	lr, pc
0xf66c392c:  e243f03f      sub	pc, r3, #63	; 0x3f

----------------
IN: 
0xf66c3930:  3afffff7      bcc	0xf66c3914

----------------
IN: 
0xf66c3934:  e1a03004      mov	r3, r4
0xf66c3938:  e3530000      cmp	r3, #0	; 0x0
0xf66c393c:  1a000085      bne	0xf66c3b58

----------------
IN: 
0xf66c3940:  e5953048      ldr	r3, [r5, #72]
0xf66c3944:  e1a06003      mov	r6, r3
0xf66c3948:  e5838008      str	r8, [r3, #8]
0xf66c394c:  e5963004      ldr	r3, [r6, #4]
0xf66c3950:  e2833001      add	r3, r3, #1	; 0x1
0xf66c3954:  e5863004      str	r3, [r6, #4]
0xf66c3958:  eaffffae      b	0xf66c3818

----------------
IN: 
0xf66c3818:  e51b6458      ldr	r6, [fp, #-1112]
0xf66c381c:  e5953098      ldr	r3, [r5, #152]
0xf66c3820:  e0678006      rsb	r8, r7, r6
0xf66c3824:  e1a02008      mov	r2, r8
0xf66c3828:  e593301c      ldr	r3, [r3, #28]
0xf66c382c:  e1a00005      mov	r0, r5
0xf66c3830:  e1a01007      mov	r1, r7
0xf66c3834:  e12fff33      blx	r3

----------------
IN: 
0xf66f0bc0:  e92d41f0      push	{r4, r5, r6, r7, r8, lr}
0xf66f0bc4:  e2525000      subs	r5, r2, #0	; 0x0
0xf66f0bc8:  0a00001b      beq	0xf66f0c3c

----------------
IN: 
0xf66f0bcc:  e5903000      ldr	r3, [r0]
0xf66f0bd0:  e1a04000      mov	r4, r0
0xf66f0bd4:  e2033c0a      and	r3, r3, #2560	; 0xa00
0xf66f0bd8:  e3530c0a      cmp	r3, #2560	; 0xa00
0xf66f0bdc:  e1a06001      mov	r6, r1
0xf66f0be0:  0a000017      beq	0xf66f0c44

----------------
IN: 
0xf66f0be4:  e5907018      ldr	r7, [r0, #24]
0xf66f0be8:  e5900014      ldr	r0, [r0, #20]
0xf66f0bec:  e1570000      cmp	r7, r0
0xf66f0bf0:  91a07005      movls	r7, r5
0xf66f0bf4:  93a08000      movls	r8, #0	; 0x0
0xf66f0bf8:  9a00000b      bls	0xf66f0c2c

----------------
IN: 
0xf66f0c2c:  e1780007      cmn	r8, r7
0xf66f0c30:  1a000017      bne	0xf66f0c94

----------------
IN: 
0xf66f0c94:  e5943098      ldr	r3, [r4, #152]
0xf66f0c98:  e1a00004      mov	r0, r4
0xf66f0c9c:  e593300c      ldr	r3, [r3, #12]
0xf66f0ca0:  e3e01000      mvn	r1, #0	; 0x0
0xf66f0ca4:  e12fff33      blx	r3

----------------
IN: 
0xf66f19dc:  e5903000      ldr	r3, [r0]
0xf66f19e0:  e92d4070      push	{r4, r5, r6, lr}
0xf66f19e4:  e3130008      tst	r3, #8	; 0x8
0xf66f19e8:  e1a04000      mov	r4, r0
0xf66f19ec:  1a000052      bne	0xf66f1b3c

----------------
IN: 
0xf66f19f0:  e3130b02      tst	r3, #2048	; 0x800
0xf66f19f4:  e1a05001      mov	r5, r1
0xf66f19f8:  0a000014      beq	0xf66f1a50

----------------
IN: 
0xf66f1a50:  e5902010      ldr	r2, [r0, #16]
0xf66f1a54:  e3520000      cmp	r2, #0	; 0x0
0xf66f1a58:  0a000040      beq	0xf66f1b60

----------------
IN: 
0xf66f1b60:  e1a00004      mov	r0, r4
0xf66f1b64:  eb000368      bl	0xf66f290c

----------------
IN: 
0xf66f290c:  e590301c      ldr	r3, [r0, #28]
0xf66f2910:  e92d4010      push	{r4, lr}
0xf66f2914:  e3530000      cmp	r3, #0	; 0x0
0xf66f2918:  e1a04000      mov	r4, r0
0xf66f291c:  18bd8010      popne	{r4, pc}

----------------
IN: 
0xf66f2920:  e5903000      ldr	r3, [r0]
0xf66f2924:  e3130002      tst	r3, #2	; 0x2
0xf66f2928:  0a000002      beq	0xf66f2938

----------------
IN: 
0xf66f2938:  e5943098      ldr	r3, [r4, #152]
0xf66f293c:  e1a00004      mov	r0, r4
0xf66f2940:  e5933034      ldr	r3, [r3, #52]
0xf66f2944:  e12fff33      blx	r3

----------------
IN: 
0xf66e31cc:  e92d4070      push	{r4, r5, r6, lr}
0xf66e31d0:  e5903038      ldr	r3, [r0, #56]
0xf66e31d4:  e24dd070      sub	sp, sp, #112	; 0x70
0xf66e31d8:  e3530000      cmp	r3, #0	; 0x0
0xf66e31dc:  e1a04000      mov	r4, r0
0xf66e31e0:  ba000011      blt	0xf66e322c

----------------
IN: 
0xf66e31e4:  e5903098      ldr	r3, [r0, #152]
0xf66e31e8:  e28d1008      add	r1, sp, #8	; 0x8
0xf66e31ec:  e5933048      ldr	r3, [r3, #72]
0xf66e31f0:  e12fff33      blx	r3

----------------
IN: 
0xf66f063c:  e1a02001      mov	r2, r1
0xf66f0640:  e5901038      ldr	r1, [r0, #56]
0xf66f0644:  e3a00003      mov	r0, #3	; 0x3
0xf66f0648:  ea0150ad      b	0xf6744904

----------------
IN: 
0xf6744904:  e92d4080      push	{r7, lr}
0xf6744908:  e1a00001      mov	r0, r1
0xf674490c:  e3a070c5      mov	r7, #197	; 0xc5
0xf6744910:  e1a01002      mov	r1, r2
0xf6744914:  ef000000      svc	0x00000000

----------------
IN: 
0xf6744918:  e3700a01      cmn	r0, #4096	; 0x1000
0xf674491c:  e1a03000      mov	r3, r0
0xf6744920:  8a000001      bhi	0xf674492c

----------------
IN: 
0xf6744924:  e1a00003      mov	r0, r3
0xf6744928:  e8bd8080      pop	{r7, pc}

----------------
IN: 
0xf66e31f4:  e3500000      cmp	r0, #0	; 0x0
0xf66e31f8:  ba00000b      blt	0xf66e322c

----------------
IN: 
0xf66e31fc:  e59d3018      ldr	r3, [sp, #24]
0xf66e3200:  e2033a0f      and	r3, r3, #61440	; 0xf000
0xf66e3204:  e3530a02      cmp	r3, #8192	; 0x2000
0xf66e3208:  0a00001a      beq	0xf66e3278

----------------
IN: 
0xf66e3278:  e59d202c      ldr	r2, [sp, #44]
0xf66e327c:  e59d3028      ldr	r3, [sp, #40]
0xf66e3280:  e3c22eff      bic	r2, r2, #4080	; 0xff0
0xf66e3284:  e3c2200f      bic	r2, r2, #15	; 0xf
0xf66e3288:  e1a03603      lsl	r3, r3, #12
0xf66e328c:  e1823a23      orr	r3, r2, r3, lsr #20
0xf66e3290:  e2433088      sub	r3, r3, #136	; 0x88
0xf66e3294:  e3530007      cmp	r3, #7	; 0x7
0xf66e3298:  8a000006      bhi	0xf66e32b8

----------------
IN: 
0xf66e329c:  e5943000      ldr	r3, [r4]
0xf66e32a0:  e59d5040      ldr	r5, [sp, #64]
0xf66e32a4:  e3833c02      orr	r3, r3, #512	; 0x200
0xf66e32a8:  e3550000      cmp	r5, #0	; 0x0
0xf66e32ac:  e5843000      str	r3, [r4]
0xf66e32b0:  caffffd8      bgt	0xf66e3218

----------------
IN: 
0xf66e3218:  e2851eff      add	r1, r5, #4080	; 0xff0
0xf66e321c:  e281100f      add	r1, r1, #15	; 0xf
0xf66e3220:  e3c11eff      bic	r1, r1, #4080	; 0xff0
0xf66e3224:  e3c1100f      bic	r1, r1, #15	; 0xf
0xf66e3228:  ea000001      b	0xf66e3234

----------------
IN: 
0xf66e3234:  e3e03000      mvn	r3, #0	; 0x0
0xf66e3238:  e3a00000      mov	r0, #0	; 0x0
0xf66e323c:  e58d3000      str	r3, [sp]
0xf66e3240:  e58d0004      str	r0, [sp, #4]
0xf66e3244:  e3a02003      mov	r2, #3	; 0x3
0xf66e3248:  e3a03022      mov	r3, #34	; 0x22
0xf66e324c:  eb01b567      bl	0xf67507f0

----------------
IN: 
0xf67507f0:  e52d5004      push	{r5}		; (str r5, [sp, #-4]!)
0xf67507f4:  e59d5008      ldr	r5, [sp, #8]
0xf67507f8:  e52d4004      push	{r4}		; (str r4, [sp, #-4]!)
0xf67507fc:  e59d4008      ldr	r4, [sp, #8]
0xf6750800:  e1b0ca05      lsls	ip, r5, #20
0xf6750804:  1a000009      bne	0xf6750830

----------------
IN: 
0xf6750808:  e1a05625      lsr	r5, r5, #12
0xf675080c:  e52d7004      push	{r7}		; (str r7, [sp, #-4]!)
0xf6750810:  e3a070c0      mov	r7, #192	; 0xc0
0xf6750814:  ef000000      svc	0x00000000

----------------
IN: 
0xf6750818:  e49d7004      pop	{r7}		; (ldr r7, [sp], #4)
0xf675081c:  e49d4004      pop	{r4}		; (ldr r4, [sp], #4)
0xf6750820:  e49d5004      pop	{r5}		; (ldr r5, [sp], #4)
0xf6750824:  e3700a01      cmn	r0, #4096	; 0x1000
0xf6750828:  312fff1e      bxcc	lr

----------------
IN: 
0xf66e3250:  e3700001      cmn	r0, #1	; 0x1
0xf66e3254:  0a000005      beq	0xf66e3270

----------------
IN: 
0xf66e3258:  e1a01000      mov	r1, r0
0xf66e325c:  e3a03001      mov	r3, #1	; 0x1
0xf66e3260:  e1a00004      mov	r0, r4
0xf66e3264:  e0812005      add	r2, r1, r5
0xf66e3268:  eb003d8b      bl	0xf66f289c

----------------
IN: 
0xf66f289c:  e92d40f8      push	{r3, r4, r5, r6, r7, lr}
0xf66f28a0:  e590e01c      ldr	lr, [r0, #28]
0xf66f28a4:  e1a04000      mov	r4, r0
0xf66f28a8:  e35e0000      cmp	lr, #0	; 0x0
0xf66f28ac:  e1a05001      mov	r5, r1
0xf66f28b0:  e590c000      ldr	ip, [r0]
0xf66f28b4:  e1a06002      mov	r6, r2
0xf66f28b8:  e1a07003      mov	r7, r3
0xf66f28bc:  0a000001      beq	0xf66f28c8

----------------
IN: 
0xf66f28c8:  e3570000      cmp	r7, #0	; 0x0
0xf66f28cc:  13ccc001      bicne	ip, ip, #1	; 0x1
0xf66f28d0:  038cc001      orreq	ip, ip, #1	; 0x1
0xf66f28d4:  e584501c      str	r5, [r4, #28]
0xf66f28d8:  e5846020      str	r6, [r4, #32]
0xf66f28dc:  e584c000      str	ip, [r4]
0xf66f28e0:  e8bd80f8      pop	{r3, r4, r5, r6, r7, pc}

----------------
IN: 
0xf66e326c:  e3a00001      mov	r0, #1	; 0x1
0xf66e3270:  e28dd070      add	sp, sp, #112	; 0x70
0xf66e3274:  e8bd8070      pop	{r4, r5, r6, pc}

----------------
IN: 
0xf66f2948:  e3700001      cmn	r0, #1	; 0x1
0xf66f294c:  18bd8010      popne	{r4, pc}

----------------
IN: 
0xf66f1b68:  e594201c      ldr	r2, [r4, #28]
0xf66f1b6c:  e5943000      ldr	r3, [r4]
0xf66f1b70:  e584200c      str	r2, [r4, #12]
0xf66f1b74:  e5842004      str	r2, [r4, #4]
0xf66f1b78:  e5842008      str	r2, [r4, #8]
0xf66f1b7c:  eaffffb7      b	0xf66f1a60

----------------
IN: 
0xf66f1a60:  e3130c01      tst	r3, #256	; 0x100
0xf66f1a64:  1a00004d      bne	0xf66f1ba0

----------------
IN: 
0xf66f1a68:  e5940020      ldr	r0, [r4, #32]
0xf66f1a6c:  e594e06c      ldr	lr, [r4, #108]
0xf66f1a70:  e1500002      cmp	r0, r2
0xf66f1a74:  0594101c      ldreq	r1, [r4, #28]
0xf66f1a78:  15941008      ldrne	r1, [r4, #8]
0xf66f1a7c:  01a02001      moveq	r2, r1
0xf66f1a80:  05841008      streq	r1, [r4, #8]
0xf66f1a84:  e383cb02      orr	ip, r3, #2048	; 0x800
0xf66f1a88:  e35e0000      cmp	lr, #0	; 0x0
0xf66f1a8c:  e5842014      str	r2, [r4, #20]
0xf66f1a90:  e5842010      str	r2, [r4, #16]
0xf66f1a94:  e5840018      str	r0, [r4, #24]
0xf66f1a98:  e5841004      str	r1, [r4, #4]
0xf66f1a9c:  e584100c      str	r1, [r4, #12]
0xf66f1aa0:  e584c000      str	ip, [r4]
0xf66f1aa4:  caffffd8      bgt	0xf66f1a0c

----------------
IN: 
0xf66f1aa8:  e59f1128      ldr	r1, [pc, #296]	; 0xf66f1bd8
0xf66f1aac:  e0011003      and	r1, r1, r3
0xf66f1ab0:  e3510000      cmp	r1, #0	; 0x0
0xf66f1ab4:  15842018      strne	r2, [r4, #24]
0xf66f1ab8:  eaffffd3      b	0xf66f1a0c

----------------
IN: 
0xf66f1a0c:  e3750001      cmn	r5, #1	; 0x1
0xf66f1a10:  0a000044      beq	0xf66f1b28

----------------
IN: 
0xf66f1b28:  e5941010      ldr	r1, [r4, #16]
0xf66f1b2c:  e1a00004      mov	r0, r4
0xf66f1b30:  e8bd4070      pop	{r4, r5, r6, lr}
0xf66f1b34:  e0612002      rsb	r2, r1, r2
0xf66f1b38:  eafffed6      b	0xf66f1698

----------------
IN: 
0xf66f1698:  e92d4010      push	{r4, lr}
0xf66f169c:  e2524000      subs	r4, r2, #0	; 0x0
0xf66f16a0:  1a000001      bne	0xf66f16ac

----------------
IN: 
0xf66f16a4:  e1a00004      mov	r0, r4
0xf66f16a8:  e8bd8010      pop	{r4, pc}

----------------
IN: 
0xf66f0ca8:  e3700001      cmn	r0, #1	; 0x1
0xf66f0cac:  0a000015      beq	0xf66f0d08

----------------
IN: 
0xf66f0cb0:  e5941020      ldr	r1, [r4, #32]
0xf66f0cb4:  e594301c      ldr	r3, [r4, #28]
0xf66f0cb8:  e0631001      rsb	r1, r3, r1
0xf66f0cbc:  e351007f      cmp	r1, #127	; 0x7f
0xf66f0cc0:  93a01000      movls	r1, #0	; 0x0
0xf66f0cc4:  9a000001      bls	0xf66f0cd0

----------------
IN: 
0xf66f0cc8:  e1a00007      mov	r0, r7
0xf66f0ccc:  eb0276c5      bl	0xf678e7e8

----------------
IN: 
0xf678e7e8:  e3510000      cmp	r1, #0	; 0x0
0xf678e7ec:  0afffffa      beq	0xf678e7dc

----------------
IN: 
0xf678e7f0:  e92d4003      push	{r0, r1, lr}
0xf678e7f4:  ebffff80      bl	0xf678e5fc

----------------
IN: 
0xf678e5fc:  e2512001      subs	r2, r1, #1	; 0x1
0xf678e600:  012fff1e      bxeq	lr

----------------
IN: 
0xf678e604:  3a000074      bcc	0xf678e7dc

----------------
IN: 
0xf678e608:  e1500001      cmp	r0, r1
0xf678e60c:  9a00006b      bls	0xf678e7c0

----------------
IN: 
0xf678e7c0:  03a00001      moveq	r0, #1	; 0x1
0xf678e7c4:  13a00000      movne	r0, #0	; 0x0
0xf678e7c8:  e12fff1e      bx	lr

----------------
IN: 
0xf678e7f8:  e8bd4006      pop	{r1, r2, lr}
0xf678e7fc:  e0030092      mul	r3, r2, r0
0xf678e800:  e0411003      sub	r1, r1, r3
0xf678e804:  e12fff1e      bx	lr

----------------
IN: 
0xf66f0cd0:  e0578001      subs	r8, r7, r1
0xf66f0cd4:  1a000012      bne	0xf66f0d24

----------------
IN: 
0xf66f0cd8:  e3570000      cmp	r7, #0	; 0x0
0xf66f0cdc:  0affffd4      beq	0xf66f0c34

----------------
IN: 
0xf66f0ce0:  e1a02007      mov	r2, r7
0xf66f0ce4:  e1a00004      mov	r0, r4
0xf66f0ce8:  e0861008      add	r1, r6, r8
0xf66f0cec:  eb00072a      bl	0xf66f299c

----------------
IN: 
0xf66f299c:  e92d41f0      push	{r4, r5, r6, r7, r8, lr}
0xf66f29a0:  e2527000      subs	r7, r2, #0	; 0x0
0xf66f29a4:  0a00002b      beq	0xf66f2a58

----------------
IN: 
0xf66f29a8:  e1a05000      mov	r5, r0
0xf66f29ac:  e1a06001      mov	r6, r1
0xf66f29b0:  e1a04007      mov	r4, r7
0xf66f29b4:  e5950014      ldr	r0, [r5, #20]
0xf66f29b8:  e5951018      ldr	r1, [r5, #24]
0xf66f29bc:  e1500001      cmp	r0, r1
0xf66f29c0:  2a000010      bcs	0xf66f2a08

----------------
IN: 
0xf66f2a08:  e3540000      cmp	r4, #0	; 0x0
0xf66f2a0c:  0a00000f      beq	0xf66f2a50

----------------
IN: 
0xf66f2a10:  e5953098      ldr	r3, [r5, #152]
0xf66f2a14:  e5d61000      ldrb	r1, [r6]
0xf66f2a18:  e1a00005      mov	r0, r5
0xf66f2a1c:  e593300c      ldr	r3, [r3, #12]
0xf66f2a20:  e12fff33      blx	r3

----------------
IN: 
0xf66f19fc:  e5903010      ldr	r3, [r0, #16]
0xf66f1a00:  e3530000      cmp	r3, #0	; 0x0
0xf66f1a04:  0a000055      beq	0xf66f1b60

----------------
IN: 
0xf66f1a08:  e5902014      ldr	r2, [r0, #20]
0xf66f1a0c:  e3750001      cmn	r5, #1	; 0x1
0xf66f1a10:  0a000044      beq	0xf66f1b28

----------------
IN: 
0xf66f1a14:  e5943020      ldr	r3, [r4, #32]
0xf66f1a18:  e1530002      cmp	r3, r2
0xf66f1a1c:  0a00002f      beq	0xf66f1ae0

----------------
IN: 
0xf66f1a20:  e2823001      add	r3, r2, #1	; 0x1
0xf66f1a24:  e5843014      str	r3, [r4, #20]
0xf66f1a28:  e5c25000      strb	r5, [r2]
0xf66f1a2c:  e5943000      ldr	r3, [r4]
0xf66f1a30:  e3130002      tst	r3, #2	; 0x2
0xf66f1a34:  1a000020      bne	0xf66f1abc

----------------
IN: 
0xf66f1a38:  e3130c02      tst	r3, #512	; 0x200
0xf66f1a3c:  0a000001      beq	0xf66f1a48

----------------
IN: 
0xf66f1a40:  e355000a      cmp	r5, #10	; 0xa
0xf66f1a44:  0a00001c      beq	0xf66f1abc

----------------
IN: 
0xf66f1a48:  e20500ff      and	r0, r5, #255	; 0xff
0xf66f1a4c:  e8bd8070      pop	{r4, r5, r6, pc}

----------------
IN: 
0xf66f2a24:  e3700001      cmn	r0, #1	; 0x1
0xf66f2a28:  e2866001      add	r6, r6, #1	; 0x1
0xf66f2a2c:  0a000007      beq	0xf66f2a50

----------------
IN: 
0xf66f2a30:  e2444001      sub	r4, r4, #1	; 0x1
0xf66f2a34:  eaffffde      b	0xf66f29b4

----------------
IN: 
0xf66f29b4:  e5950014      ldr	r0, [r5, #20]
0xf66f29b8:  e5951018      ldr	r1, [r5, #24]
0xf66f29bc:  e1500001      cmp	r0, r1
0xf66f29c0:  2a000010      bcs	0xf66f2a08

----------------
IN: 
0xf66f2a50:  e0640007      rsb	r0, r4, r7
0xf66f2a54:  e8bd81f0      pop	{r4, r5, r6, r7, r8, pc}

----------------
IN: 
0xf66f0cf0:  e0607007      rsb	r7, r0, r7
0xf66f0cf4:  eaffffce      b	0xf66f0c34

----------------
IN: 
0xf66f0c34:  e0670005      rsb	r0, r7, r5
0xf66f0c38:  e8bd81f0      pop	{r4, r5, r6, r7, r8, pc}

----------------
IN: 
0xf66c3838:  e1580000      cmp	r8, r0
0xf66c383c:  13e08000      mvnne	r8, #0	; 0x0
0xf66c3840:  0a00005c      beq	0xf66c39b8

----------------
IN: 
0xf66c39b8:  e51b3450      ldr	r3, [fp, #-1104]
0xf66c39bc:  e5d32000      ldrb	r2, [r3]
0xf66c39c0:  e3520000      cmp	r2, #0	; 0x0
0xf66c39c4:  0affff9e      beq	0xf66c3844

----------------
IN: 
0xf66c39c8:  e59f2dc0      ldr	r2, [pc, #3520]	; 0xf66c4790
0xf66c39cc:  e08f2002      add	r2, pc, r2
0xf66c39d0:  e5922000      ldr	r2, [r2]
0xf66c39d4:  e3520000      cmp	r2, #0	; 0x0
0xf66c39d8:  1a0006b7      bne	0xf66c54bc

----------------
IN: 
0xf66c39dc:  e59f1db0      ldr	r1, [pc, #3504]	; 0xf66c4794
0xf66c39e0:  e08f1001      add	r1, pc, r1
0xf66c39e4:  e5911000      ldr	r1, [r1]
0xf66c39e8:  e3510000      cmp	r1, #0	; 0x0
0xf66c39ec:  1a000530      bne	0xf66c4eb4

----------------
IN: 
0xf66c39f0:  e59f2da0      ldr	r2, [pc, #3488]	; 0xf66c4798
0xf66c39f4:  e08f2002      add	r2, pc, r2
0xf66c39f8:  e5922000      ldr	r2, [r2]
0xf66c39fc:  e3520000      cmp	r2, #0	; 0x0
0xf66c3a00:  1a0006b7      bne	0xf66c54e4

----------------
IN: 
0xf66c3a04:  e3e06000      mvn	r6, #0	; 0x0
0xf66c3a08:  e50b2468      str	r2, [fp, #-1128]
0xf66c3a0c:  e50b24a0      str	r2, [fp, #-1184]
0xf66c3a10:  e50b24b0      str	r2, [fp, #-1200]
0xf66c3a14:  e50b2490      str	r2, [fp, #-1168]
0xf66c3a18:  e50b24a8      str	r2, [fp, #-1192]
0xf66c3a1c:  e50b6488      str	r6, [fp, #-1160]
0xf66c3a20:  e2832001      add	r2, r3, #1	; 0x1
0xf66c3a24:  e50b2450      str	r2, [fp, #-1104]
0xf66c3a28:  e5d33001      ldrb	r3, [r3, #1]
0xf66c3a2c:  e50b3474      str	r3, [fp, #-1140]
0xf66c3a30:  e2433020      sub	r3, r3, #32	; 0x20
0xf66c3a34:  e353005a      cmp	r3, #90	; 0x5a
0xf66c3a38:  9a00002c      bls	0xf66c3af0

----------------
IN: 
0xf66c3af0:  e59f2cbc      ldr	r2, [pc, #3260]	; 0xf66c47b4
0xf66c3af4:  e51b6474      ldr	r6, [fp, #-1140]
0xf66c3af8:  e08f2002      add	r2, pc, r2
0xf66c3afc:  e0821006      add	r1, r2, r6
0xf66c3b00:  e5d11058      ldrb	r1, [r1, #88]
0xf66c3b04:  e59f3cac      ldr	r3, [pc, #3244]	; 0xf66c47b8
0xf66c3b08:  e7922101      ldr	r2, [r2, r1, lsl #2]
0xf66c3b0c:  e08f3003      add	r3, pc, r3
0xf66c3b10:  e0823003      add	r3, r2, r3
0xf66c3b14:  eaffffca      b	0xf66c3a44

----------------
IN: 
0xf66c3a44:  e3a04000      mov	r4, #0	; 0x0
0xf66c3a48:  e3e0c000      mvn	ip, #0	; 0x0
0xf66c3a4c:  e3a0e020      mov	lr, #32	; 0x20
0xf66c3a50:  e50b44cc      str	r4, [fp, #-1228]
0xf66c3a54:  e50b44c8      str	r4, [fp, #-1224]
0xf66c3a58:  e50b44bc      str	r4, [fp, #-1212]
0xf66c3a5c:  e50b449c      str	r4, [fp, #-1180]
0xf66c3a60:  e50b44c4      str	r4, [fp, #-1220]
0xf66c3a64:  e50b4498      str	r4, [fp, #-1176]
0xf66c3a68:  e50b44b4      str	r4, [fp, #-1204]
0xf66c3a6c:  e50b44a4      str	r4, [fp, #-1188]
0xf66c3a70:  e50b44d4      str	r4, [fp, #-1236]
0xf66c3a74:  e50b44ac      str	r4, [fp, #-1196]
0xf66c3a78:  e50b44d8      str	r4, [fp, #-1240]
0xf66c3a7c:  e24b6024      sub	r6, fp, #36	; 0x24
0xf66c3a80:  e50bc494      str	ip, [fp, #-1172]
0xf66c3a84:  e50be4b8      str	lr, [fp, #-1208]
0xf66c3a88:  e24b2e45      sub	r2, fp, #1104	; 0x450
0xf66c3a8c:  e50b2510      str	r2, [fp, #-1296]
0xf66c3a90:  e59f1d08      ldr	r1, [pc, #3336]	; 0xf66c47a0
0xf66c3a94:  e59f2d08      ldr	r2, [pc, #3336]	; 0xf66c47a4
0xf66c3a98:  e08f1001      add	r1, pc, r1
0xf66c3a9c:  e08f2002      add	r2, pc, r2
0xf66c3aa0:  e50b2514      str	r2, [fp, #-1300]
0xf66c3aa4:  e50b1504      str	r1, [fp, #-1284]
0xf66c3aa8:  e59f2cf8      ldr	r2, [pc, #3320]	; 0xf66c47a8
0xf66c3aac:  e59f1cf8      ldr	r1, [pc, #3320]	; 0xf66c47ac
0xf66c3ab0:  e08f2002      add	r2, pc, r2
0xf66c3ab4:  e08f1001      add	r1, pc, r1
0xf66c3ab8:  e50b2518      str	r2, [fp, #-1304]
0xf66c3abc:  e50b150c      str	r1, [fp, #-1292]
0xf66c3ac0:  e1a0f003      mov	pc, r3

----------------
IN: 
0xf66c80fc:  e3a0c00a      mov	ip, #10	; 0xa
0xf66c8100:  e50bc4a4      str	ip, [fp, #-1188]
0xf66c8104:  eaffff62      b	0xf66c7e94

----------------
IN: 
0xf66c7e94:  e51be498      ldr	lr, [fp, #-1176]
0xf66c7e98:  e35e0000      cmp	lr, #0	; 0x0
0xf66c7e9c:  0a00000c      beq	0xf66c7ed4

----------------
IN: 
0xf66c7ed4:  e51bc4d4      ldr	ip, [fp, #-1236]
0xf66c7ed8:  e35c0000      cmp	ip, #0	; 0x0
0xf66c7edc:  0a000041      beq	0xf66c7fe8

----------------
IN: 
0xf66c7fe8:  e51b04b4      ldr	r0, [fp, #-1204]
0xf66c7fec:  e3500000      cmp	r0, #0	; 0x0
0xf66c7ff0:  1a00000c      bne	0xf66c8028

----------------
IN: 
0xf66c7ff4:  e51b145c      ldr	r1, [fp, #-1116]
0xf66c7ff8:  e51bc45c      ldr	ip, [fp, #-1116]
0xf66c7ffc:  e5911000      ldr	r1, [r1]

----------------
IN: 
0xf66c8000:  e28cc004      add	ip, ip, #4	; 0x4
0xf66c8004:  e50b049c      str	r0, [fp, #-1180]
0xf66c8008:  e50b14f4      str	r1, [fp, #-1268]
0xf66c800c:  e50bc498      str	ip, [fp, #-1176]
0xf66c8010:  e50b04c8      str	r0, [fp, #-1224]
0xf66c8014:  eaffffbb      b	0xf66c7f08

----------------
IN: 
0xf66c7f08:  e51be494      ldr	lr, [fp, #-1172]
0xf66c7f0c:  e35e0000      cmp	lr, #0	; 0x0
0xf66c7f10:  ba00004f      blt	0xf66c8054

----------------
IN: 
0xf66c8054:  e3a00001      mov	r0, #1	; 0x1
0xf66c8058:  e50b0494      str	r0, [fp, #-1172]
0xf66c805c:  eaffffc1      b	0xf66c7f68

----------------
IN: 
0xf66c7f68:  e51bc474      ldr	ip, [fp, #-1140]
0xf66c7f6c:  e1a01006      mov	r1, r6
0xf66c7f70:  e24c3058      sub	r3, ip, #88	; 0x58
0xf66c7f74:  e16f3f13      clz	r3, r3
0xf66c7f78:  e51b04f4      ldr	r0, [fp, #-1268]
0xf66c7f7c:  e51b24a4      ldr	r2, [fp, #-1188]
0xf66c7f80:  e1a032a3      lsr	r3, r3, #5
0xf66c7f84:  ebffeb1e      bl	0xf66c2c04

----------------
IN: 
0xf66c2c04:  e92d40f8      push	{r3, r4, r5, r6, r7, lr}
0xf66c2c08:  e59f60bc      ldr	r6, [pc, #188]	; 0xf66c2ccc
0xf66c2c0c:  e3530000      cmp	r3, #0	; 0x0
0xf66c2c10:  e08f6006      add	r6, pc, r6
0xf66c2c14:  e1a04000      mov	r4, r0
0xf66c2c18:  e1a05001      mov	r5, r1
0xf66c2c1c:  e1a07002      mov	r7, r2
0xf66c2c20:  059f60a8      ldreq	r6, [pc, #168]	; 0xf66c2cd0
0xf66c2c24:  008f6006      addeq	r6, pc, r6
0xf66c2c28:  e357000a      cmp	r7, #10	; 0xa
0xf66c2c2c:  0a00001b      beq	0xf66c2ca0

----------------
IN: 
0xf66c2ca0:  e59f102c      ldr	r1, [pc, #44]	; 0xf66c2cd4
0xf66c2ca4:  e0832491      umull	r2, r3, r1, r4
0xf66c2ca8:  e1a031a3      lsr	r3, r3, #3
0xf66c2cac:  e0832103      add	r2, r3, r3, lsl #2
0xf66c2cb0:  e0444082      sub	r4, r4, r2, lsl #1
0xf66c2cb4:  e7d62004      ldrb	r2, [r6, r4]
0xf66c2cb8:  e2534000      subs	r4, r3, #0	; 0x0
0xf66c2cbc:  e5652001      strb	r2, [r5, #-1]!
0xf66c2cc0:  1afffff7      bne	0xf66c2ca4

----------------
IN: 
0xf66c2cc4:  e1a00005      mov	r0, r5
0xf66c2cc8:  e8bd80f8      pop	{r3, r4, r5, r6, r7, pc}

----------------
IN: 
0xf66c7f88:  e51be488      ldr	lr, [fp, #-1160]
0xf66c7f8c:  e51b14c4      ldr	r1, [fp, #-1220]
0xf66c7f90:  e50b045c      str	r0, [fp, #-1116]
0xf66c7f94:  e35e0000      cmp	lr, #0	; 0x0
0xf66c7f98:  13510000      cmpne	r1, #0	; 0x0
0xf66c7f9c:  1a00002f      bne	0xf66c8060

----------------
IN: 
0xf66c7fa0:  e51bc4a4      ldr	ip, [fp, #-1188]
0xf66c7fa4:  e51be4d8      ldr	lr, [fp, #-1240]
0xf66c7fa8:  e24c300a      sub	r3, ip, #10	; 0xa
0xf66c7fac:  e16f3f13      clz	r3, r3
0xf66c7fb0:  e35e0000      cmp	lr, #0	; 0x0
0xf66c7fb4:  e1a032a3      lsr	r3, r3, #5
0xf66c7fb8:  03a03000      moveq	r3, #0	; 0x0
0xf66c7fbc:  e3530000      cmp	r3, #0	; 0x0
0xf66c7fc0:  0afffde7      beq	0xf66c7764

----------------
IN: 
0xf66c7764:  e51bc45c      ldr	ip, [fp, #-1116]
0xf66c7768:  e51be494      ldr	lr, [fp, #-1172]
0xf66c776c:  e06c3006      rsb	r3, ip, r6
0xf66c7770:  e15e0003      cmp	lr, r3
0xf66c7774:  ca00000e      bgt	0xf66c77b4

----------------
IN: 
0xf66c7778:  e51b04f4      ldr	r0, [fp, #-1268]
0xf66c777c:  e3500000      cmp	r0, #0	; 0x0
0xf66c7780:  0a00000b      beq	0xf66c77b4

----------------
IN: 
0xf66c7784:  e51b14cc      ldr	r1, [fp, #-1228]
0xf66c7788:  e51bc4a4      ldr	ip, [fp, #-1188]
0xf66c778c:  e2913000      adds	r3, r1, #0	; 0x0
0xf66c7790:  13a03001      movne	r3, #1	; 0x1
0xf66c7794:  e35c0008      cmp	ip, #8	; 0x8
0xf66c7798:  13a03000      movne	r3, #0	; 0x0
0xf66c779c:  e3530000      cmp	r3, #0	; 0x0
0xf66c77a0:  13a03030      movne	r3, #48	; 0x30
0xf66c77a4:  151bc45c      ldrne	ip, [fp, #-1116]
0xf66c77a8:  154c3001      strbne	r3, [ip, #-1]
0xf66c77ac:  124cc001      subne	ip, ip, #1	; 0x1
0xf66c77b0:  150bc45c      strne	ip, [fp, #-1116]
0xf66c77b4:  e51b345c      ldr	r3, [fp, #-1116]
0xf66c77b8:  e51be494      ldr	lr, [fp, #-1172]
0xf66c77bc:  e0663003      rsb	r3, r6, r3
0xf66c77c0:  e51bc4bc      ldr	ip, [fp, #-1212]
0xf66c77c4:  e50b34c4      str	r3, [fp, #-1220]
0xf66c77c8:  e083300e      add	r3, r3, lr
0xf66c77cc:  e1c33fc3      bic	r3, r3, r3, asr #31
0xf66c77d0:  e35c0000      cmp	ip, #0	; 0x0
0xf66c77d4:  e50b3494      str	r3, [fp, #-1172]
0xf66c77d8:  1a00006f      bne	0xf66c799c

----------------
IN: 
0xf66c77dc:  e51bc4c4      ldr	ip, [fp, #-1220]
0xf66c77e0:  e51be4f4      ldr	lr, [fp, #-1268]
0xf66c77e4:  e51b04ac      ldr	r0, [fp, #-1196]
0xf66c77e8:  e063300c      rsb	r3, r3, ip
0xf66c77ec:  e35e0000      cmp	lr, #0	; 0x0
0xf66c77f0:  e0833000      add	r3, r3, r0
0xf66c77f4:  0a000007      beq	0xf66c7818

----------------
IN: 
0xf66c77f8:  e51b14cc      ldr	r1, [fp, #-1228]
0xf66c77fc:  e51bc4a4      ldr	ip, [fp, #-1188]
0xf66c7800:  e2912000      adds	r2, r1, #0	; 0x0
0xf66c7804:  13a02001      movne	r2, #1	; 0x1
0xf66c7808:  e35c0010      cmp	ip, #16	; 0x10
0xf66c780c:  13a02000      movne	r2, #0	; 0x0
0xf66c7810:  e3520000      cmp	r2, #0	; 0x0
0xf66c7814:  12433002      subne	r3, r3, #2	; 0x2
0xf66c7818:  e51be4c8      ldr	lr, [fp, #-1224]
0xf66c781c:  e51bc4b4      ldr	ip, [fp, #-1204]
0xf66c7820:  e51b04b8      ldr	r0, [fp, #-1208]
0xf66c7824:  e18e200c      orr	r2, lr, ip
0xf66c7828:  e51be49c      ldr	lr, [fp, #-1180]
0xf66c782c:  e192e00e      orrs	lr, r2, lr
0xf66c7830:  12433001      subne	r3, r3, #1	; 0x1
0xf66c7834:  e3500020      cmp	r0, #32	; 0x20
0xf66c7838:  0a00014b      beq	0xf66c7d6c

----------------
IN: 
0xf66c7d6c:  e3530000      cmp	r3, #0	; 0x0
0xf66c7d70:  da00001d      ble	0xf66c7dec

----------------
IN: 
0xf66c7dec:  e3a03000      mov	r3, #0	; 0x0
0xf66c7df0:  eafffe91      b	0xf66c783c

----------------
IN: 
0xf66c783c:  e51bc4b4      ldr	ip, [fp, #-1204]
0xf66c7840:  e35c0000      cmp	ip, #0	; 0x0
0xf66c7844:  0a0000d8      beq	0xf66c7bac

----------------
IN: 
0xf66c7bac:  e51be49c      ldr	lr, [fp, #-1180]
0xf66c7bb0:  e35e0000      cmp	lr, #0	; 0x0
0xf66c7bb4:  0a000160      beq	0xf66c813c

----------------
IN: 
0xf66c813c:  e51b04c8      ldr	r0, [fp, #-1224]
0xf66c8140:  e3500000      cmp	r0, #0	; 0x0
0xf66c8144:  0afffdca      beq	0xf66c7874

----------------
IN: 
0xf66c7874:  e51b14f4      ldr	r1, [fp, #-1268]
0xf66c7878:  e3510000      cmp	r1, #0	; 0x0
0xf66c787c:  0a00001c      beq	0xf66c78f4

----------------
IN: 
0xf66c7880:  e51bc4cc      ldr	ip, [fp, #-1228]
0xf66c7884:  e51be4a4      ldr	lr, [fp, #-1188]
0xf66c7888:  e29c2000      adds	r2, ip, #0	; 0x0
0xf66c788c:  13a02001      movne	r2, #1	; 0x1
0xf66c7890:  e35e0010      cmp	lr, #16	; 0x10
0xf66c7894:  13a02000      movne	r2, #0	; 0x0
0xf66c7898:  e3520000      cmp	r2, #0	; 0x0
0xf66c789c:  0a000014      beq	0xf66c78f4

----------------
IN: 
0xf66c78f4:  e51bc494      ldr	ip, [fp, #-1172]
0xf66c78f8:  e083300c      add	r3, r3, ip
0xf66c78fc:  e3530000      cmp	r3, #0	; 0x0
0xf66c7900:  da00000e      ble	0xf66c7940

----------------
IN: 
0xf66c7940:  e3580000      cmp	r8, #0	; 0x0
0xf66c7944:  ba000120      blt	0xf66c7dcc

----------------
IN: 
0xf66c7948:  e51bc45c      ldr	ip, [fp, #-1116]
0xf66c794c:  e5953098      ldr	r3, [r5, #152]
0xf66c7950:  e06c6006      rsb	r6, ip, r6
0xf66c7954:  e1a0100c      mov	r1, ip
0xf66c7958:  e1a02006      mov	r2, r6
0xf66c795c:  e593301c      ldr	r3, [r3, #28]
0xf66c7960:  e1a00005      mov	r0, r5
0xf66c7964:  e12fff33      blx	r3

----------------
IN: 
0xf66f0c44:  e5900014      ldr	r0, [r0, #20]
0xf66f0c48:  e5947020      ldr	r7, [r4, #32]
0xf66f0c4c:  e0607007      rsb	r7, r0, r7
0xf66f0c50:  e1550007      cmp	r5, r7
0xf66f0c54:  8a000029      bhi	0xf66f0d00

----------------
IN: 
0xf66f0c58:  e0813005      add	r3, r1, r5
0xf66f0c5c:  e1510003      cmp	r1, r3
0xf66f0c60:  2a000009      bcs	0xf66f0c8c

----------------
IN: 
0xf66f0c64:  e5532001      ldrb	r2, [r3, #-1]
0xf66f0c68:  e2433001      sub	r3, r3, #1	; 0x1
0xf66f0c6c:  e352000a      cmp	r2, #10	; 0xa
0xf66f0c70:  1a000003      bne	0xf66f0c84

----------------
IN: 
0xf66f0c84:  e1530006      cmp	r3, r6
0xf66f0c88:  1afffffa      bne	0xf66f0c78

----------------
IN: 
0xf66f0c8c:  e3a08000      mov	r8, #0	; 0x0
0xf66f0c90:  eaffffdd      b	0xf66f0c0c

----------------
IN: 
0xf66f0c0c:  e1570005      cmp	r7, r5
0xf66f0c10:  21a07005      movcs	r7, r5
0xf66f0c14:  e1a01006      mov	r1, r6
0xf66f0c18:  e1a02007      mov	r2, r7
0xf66f0c1c:  eb003cf7      bl	0xf6700000

----------------
IN: 
0xf6700000:  e92d4010      push	{r4, lr}
0xf6700004:  e1a04002      mov	r4, r2
0xf6700008:  eb000174      bl	0xf67005e0

----------------
IN: 
0xf67005e0:  e92d4011      push	{r0, r4, lr}
0xf67005e4:  e2522004      subs	r2, r2, #4	; 0x4
0xf67005e8:  ba000021      blt	0xf6700674

----------------
IN: 
0xf6700674:  e1b02f82      lsls	r2, r2, #31
0xf6700678:  14d13001      ldrbne	r3, [r1], #1
0xf670067c:  24d14001      ldrbcs	r4, [r1], #1
0xf6700680:  25d1c000      ldrbcs	ip, [r1]
0xf6700684:  14c03001      strbne	r3, [r0], #1
0xf6700688:  24c04001      strbcs	r4, [r0], #1
0xf670068c:  25c0c000      strbcs	ip, [r0]
0xf6700690:  e8bd8011      pop	{r0, r4, pc}

----------------
IN: 
0xf670000c:  e0800004      add	r0, r0, r4
0xf6700010:  e8bd8010      pop	{r4, pc}

----------------
IN: 
0xf66f0c20:  e0866007      add	r6, r6, r7
0xf66f0c24:  e5840014      str	r0, [r4, #20]
0xf66f0c28:  e0677005      rsb	r7, r7, r5
0xf66f0c2c:  e1780007      cmn	r8, r7
0xf66f0c30:  1a000017      bne	0xf66f0c94

----------------
IN: 
0xf66c7968:  e1560000      cmp	r6, r0
0xf66c796c:  1afff0b8      bne	0xf66c3c54

----------------
IN: 
0xf66c7970:  e3e03102      mvn	r3, #-2147483648	; 0x80000000
0xf66c7974:  e0683003      rsb	r3, r8, r3
0xf66c7978:  e1560003      cmp	r6, r3
0xf66c797c:  d0886006      addle	r6, r8, r6
0xf66c7980:  dafff8b6      ble	0xf66c5c60

----------------
IN: 
0xf66c5c60:  e3540000      cmp	r4, #0	; 0x0
0xf66c5c64:  1a000036      bne	0xf66c5d44

----------------
IN: 
0xf66c5c68:  e51b4450      ldr	r4, [fp, #-1104]
0xf66c5c6c:  e3a01025      mov	r1, #37	; 0x25
0xf66c5c70:  e2844001      add	r4, r4, #1	; 0x1
0xf66c5c74:  e1a00004      mov	r0, r4
0xf66c5c78:  e50b4450      str	r4, [fp, #-1104]
0xf66c5c7c:  eb00f127      bl	0xf6702120

----------------
IN: 
0xf66c5c80:  e3560000      cmp	r6, #0	; 0x0
0xf66c5c84:  e50b0450      str	r0, [fp, #-1104]
0xf66c5c88:  ba000025      blt	0xf66c5d24

----------------
IN: 
0xf66c5c8c:  e5953098      ldr	r3, [r5, #152]
0xf66c5c90:  e0642000      rsb	r2, r4, r0
0xf66c5c94:  e593301c      ldr	r3, [r3, #28]
0xf66c5c98:  e1a01004      mov	r1, r4
0xf66c5c9c:  e1a00005      mov	r0, r5
0xf66c5ca0:  e12fff33      blx	r3

----------------
IN: 
0xf66f0c74:  ea000026      b	0xf66f0d14

----------------
IN: 
0xf66f0d14:  e0663003      rsb	r3, r6, r3
0xf66f0d18:  e2837001      add	r7, r3, #1	; 0x1
0xf66f0d1c:  e3a08001      mov	r8, #1	; 0x1
0xf66f0d20:  eaffffb7      b	0xf66f0c04

----------------
IN: 
0xf66f0c04:  e3570000      cmp	r7, #0	; 0x0
0xf66f0c08:  0a00003a      beq	0xf66f0cf8

----------------
IN: 
0xf66f16ac:  ebfff906      bl	0xf66efacc

----------------
IN: 
0xf66efacc:  e92d4ff0      push	{r4, r5, r6, r7, r8, r9, sl, fp, lr}
0xf66efad0:  e5903000      ldr	r3, [r0]
0xf66efad4:  e24dd00c      sub	sp, sp, #12	; 0xc
0xf66efad8:  e213ba01      ands	fp, r3, #4096	; 0x1000
0xf66efadc:  e1a08000      mov	r8, r0
0xf66efae0:  e1a09001      mov	r9, r1
0xf66efae4:  e1a0a002      mov	sl, r2
0xf66efae8:  0a00001b      beq	0xf66efb5c

----------------
IN: 
0xf66efb5c:  e5902008      ldr	r2, [r0, #8]
0xf66efb60:  e5903010      ldr	r3, [r0, #16]
0xf66efb64:  e1520003      cmp	r2, r3
0xf66efb68:  0affffe3      beq	0xf66efafc

----------------
IN: 
0xf66efafc:  e5983098      ldr	r3, [r8, #152]
0xf66efb00:  e1a0200a      mov	r2, sl
0xf66efb04:  e593303c      ldr	r3, [r3, #60]
0xf66efb08:  e1a00008      mov	r0, r8
0xf66efb0c:  e1a01009      mov	r1, r9
0xf66efb10:  e12fff33      blx	r3

----------------
IN: 
0xf66f064c:  e92d41f0      push	{r4, r5, r6, r7, r8, lr}
0xf66f0650:  e2528000      subs	r8, r2, #0	; 0x0
0xf66f0654:  e1a06000      mov	r6, r0
0xf66f0658:  da00001f      ble	0xf66f06dc

----------------
IN: 
0xf66f065c:  e1a05001      mov	r5, r1
0xf66f0660:  e1a04008      mov	r4, r8
0xf66f0664:  ea000003      b	0xf66f0678

----------------
IN: 
0xf66f0678:  e596303c      ldr	r3, [r6, #60]
0xf66f067c:  e5960038      ldr	r0, [r6, #56]
0xf66f0680:  e3130002      tst	r3, #2	; 0x2
0xf66f0684:  e1a01005      mov	r1, r5
0xf66f0688:  e1a02004      mov	r2, r4
0xf66f068c:  1a000014      bne	0xf66f06e4

----------------
IN: 
0xf66f0690:  eb015382      bl	0xf67454a0

----------------
IN: 
0xf67454a0:  e59fc060      ldr	ip, [pc, #96]	; 0xf6745508
0xf67454a4:  e79fc00c      ldr	ip, [pc, ip]
0xf67454a8:  e33c0000      teq	ip, #0	; 0x0
0xf67454ac:  e52d7004      push	{r7}		; (str r7, [sp, #-4]!)
0xf67454b0:  1a000005      bne	0xf67454cc

----------------
IN: 
0xf67454b4:  e3a07004      mov	r7, #4	; 0x4
0xf67454b8:  ef000000      svc	0x00000000

----------------
IN: 
0xf67454bc:  e49d7004      pop	{r7}		; (ldr r7, [sp], #4)
0xf67454c0:  e3700a01      cmn	r0, #4096	; 0x1000
0xf67454c4:  312fff1e      bxcc	lr

----------------
IN: 
0xf66f0694:  e3500000      cmp	r0, #0	; 0x0
0xf66f0698:  aafffff2      bge	0xf66f0668

----------------
IN: 
0xf66f0668:  e0604004      rsb	r4, r0, r4
0xf66f066c:  e3540000      cmp	r4, #0	; 0x0
0xf66f0670:  e0855000      add	r5, r5, r0
0xf66f0674:  da000016      ble	0xf66f06d4

----------------
IN: 
0xf66f06d4:  e0640008      rsb	r0, r4, r8
0xf66f06d8:  eafffff3      b	0xf66f06ac

----------------
IN: 
0xf66f06ac:  e2865050      add	r5, r6, #80	; 0x50
0xf66f06b0:  e8950030      ldm	r5, {r4, r5}
0xf66f06b4:  e3540000      cmp	r4, #0	; 0x0
0xf66f06b8:  e2d53000      sbcs	r3, r5, #0	; 0x0
0xf66f06bc:  b8bd81f0      poplt	{r4, r5, r6, r7, r8, pc}

----------------
IN: 
0xf66efb14:  e1a04000      mov	r4, r0
0xf66efb18:  e1d804b4      ldrh	r0, [r8, #68]
0xf66efb1c:  e3500000      cmp	r0, #0	; 0x0
0xf66efb20:  1a000021      bne	0xf66efbac

----------------
IN: 
0xf66efb24:  e598206c      ldr	r2, [r8, #108]
0xf66efb28:  e598301c      ldr	r3, [r8, #28]
0xf66efb2c:  e3520000      cmp	r2, #0	; 0x0
0xf66efb30:  e588300c      str	r3, [r8, #12]
0xf66efb34:  e5883004      str	r3, [r8, #4]
0xf66efb38:  e5883008      str	r3, [r8, #8]
0xf66efb3c:  e5883014      str	r3, [r8, #20]
0xf66efb40:  e5883010      str	r3, [r8, #16]
0xf66efb44:  da000021      ble	0xf66efbd0

----------------
IN: 
0xf66efbd0:  e5981000      ldr	r1, [r8]
0xf66efbd4:  e59f200c      ldr	r2, [pc, #12]	; 0xf66efbe8
0xf66efbd8:  e0022001      and	r2, r2, r1
0xf66efbdc:  e3520000      cmp	r2, #0	; 0x0
0xf66efbe0:  1affffd9      bne	0xf66efb4c

----------------
IN: 
0xf66efb4c:  e1a00004      mov	r0, r4
0xf66efb50:  e5883018      str	r3, [r8, #24]
0xf66efb54:  e28dd00c      add	sp, sp, #12	; 0xc
0xf66efb58:  e8bd8ff0      pop	{r4, r5, r6, r7, r8, r9, sl, fp, pc}

----------------
IN: 
0xf66f16b0:  e0540000      subs	r0, r4, r0
0xf66f16b4:  13e00000      mvnne	r0, #0	; 0x0
0xf66f16b8:  e8bd8010      pop	{r4, pc}

----------------
IN: 
0xf66c5ca4:  e51b3450      ldr	r3, [fp, #-1104]
0xf66c5ca8:  e0644003      rsb	r4, r4, r3
0xf66c5cac:  e1500004      cmp	r0, r4
0xf66c5cb0:  13a04000      movne	r4, #0	; 0x0
0xf66c5cb4:  1afff7e6      bne	0xf66c3c54

----------------
IN: 
0xf66c5cb8:  e3e02102      mvn	r2, #-2147483648	; 0x80000000
0xf66c5cbc:  e0662002      rsb	r2, r6, r2
0xf66c5cc0:  e1500002      cmp	r0, r2
0xf66c5cc4:  ca00000f      bgt	0xf66c5d08

----------------
IN: 
0xf66c5cc8:  e5d34000      ldrb	r4, [r3]
0xf66c5ccc:  e0868000      add	r8, r6, r0
0xf66c5cd0:  e3540000      cmp	r4, #0	; 0x0
0xf66c5cd4:  0afff7df      beq	0xf66c3c58

----------------
IN: 
0xf66c3c58:  e51b9468      ldr	r9, [fp, #-1128]
0xf66c3c5c:  e3590000      cmp	r9, #0	; 0x0
0xf66c3c60:  0a000001      beq	0xf66c3c6c

----------------
IN: 
0xf66c3c6c:  e51b64a0      ldr	r6, [fp, #-1184]
0xf66c3c70:  e3560000      cmp	r6, #0	; 0x0
0xf66c3c74:  1a000004      bne	0xf66c3c8c

----------------
IN: 
0xf66c3c78:  e3540000      cmp	r4, #0	; 0x0
0xf66c3c7c:  0afffef0      beq	0xf66c3844

----------------
IN: 
0xf66c3844:  e5953000      ldr	r3, [r5]
0xf66c3848:  e3130902      tst	r3, #32768	; 0x8000
0xf66c384c:  1a000017      bne	0xf66c38b0

----------------
IN: 
0xf66c3850:  e5955048      ldr	r5, [r5, #72]
0xf66c3854:  e5953004      ldr	r3, [r5, #4]
0xf66c3858:  e2433001      sub	r3, r3, #1	; 0x1
0xf66c385c:  e3530000      cmp	r3, #0	; 0x0
0xf66c3860:  e5853004      str	r3, [r5, #4]
0xf66c3864:  1a000011      bne	0xf66c38b0

----------------
IN: 
0xf66c3868:  e5853008      str	r3, [r5, #8]
0xf66c386c:  e5956000      ldr	r6, [r5]
0xf66c3870:  e3a01000      mov	r1, #0	; 0x0
0xf66c3874:  e1a04006      mov	r4, r6
0xf66c3878:  e1a02005      mov	r2, r5
0xf66c387c:  e5923000      ldr	r3, [r2]
0xf66c3880:  e1530004      cmp	r3, r4
0xf66c3884:  1a000005      bne	0xf66c38a0

----------------
IN: 
0xf66c3888:  e1a00004      mov	r0, r4
0xf66c388c:  e3e03a0f      mvn	r3, #61440	; 0xf000
0xf66c3890:  e1a0e00f      mov	lr, pc
0xf66c3894:  e243f03f      sub	pc, r3, #63	; 0x3f

----------------
IN: 
0xf66c3898:  3afffff7      bcc	0xf66c387c

----------------
IN: 
0xf66c389c:  e1a03004      mov	r3, r4
0xf66c38a0:  e1560003      cmp	r6, r3
0xf66c38a4:  1afffff0      bne	0xf66c386c

----------------
IN: 
0xf66c38a8:  e3560001      cmp	r6, #1	; 0x1
0xf66c38ac:  ca000927      bgt	0xf66c5d50

----------------
IN: 
0xf66c38b0:  e51b9460      ldr	r9, [fp, #-1120]
0xf66c38b4:  e3590000      cmp	r9, #0	; 0x0
0xf66c38b8:  1a000081      bne	0xf66c3ac4

----------------
IN: 
0xf66c38bc:  e1a00008      mov	r0, r8
0xf66c38c0:  e24bd020      sub	sp, fp, #32	; 0x20
0xf66c38c4:  e8bd8ff0      pop	{r4, r5, r6, r7, r8, r9, sl, fp, pc}

----------------
IN: 
0xf66ccf3c:  e28dd00c      add	sp, sp, #12	; 0xc
0xf66ccf40:  e49de004      pop	{lr}		; (ldr lr, [sp], #4)
0xf66ccf44:  e28dd010      add	sp, sp, #16	; 0x10
0xf66ccf48:  e12fff1e      bx	lr

----------------
IN: 
0x000084b0:  e8bd1080      pop	{r7, ip}
0x000084b4:  e2577001      subs	r7, r7, #1	; 0x1
0x000084b8:  1afffff3      bne	0x848c

----------------
IN: 
0x0000848c:  f2200842      vadd.i32	q0, q0, q1
0x00008490:  f2200954      vmul.i32	q0, q0, q2
0x00008494:  f2200842      vadd.i32	q0, q0, q1
0x00008498:  e357020b      cmp	r7, #-1342177280	; 0xb0000000
0x0000849c:  1a000004      bne	0x84b4

----------------
IN: 
0x000084b4:  e2577001      subs	r7, r7, #1	; 0x1
0x000084b8:  1afffff3      bne	0x848c

